
build/output.elf:     file format elf32-littlearm


Disassembly of section .init:

00008000 <_start>:
    8000:	e3a0d902 	mov	sp, #32768	; 0x8000
    8004:	ea0005ec 	b	97bc <_cstartup>

Disassembly of section .text:

00008d58 <PrintCharacter>:
    8d58:	e92d4800 	push	{fp, lr}
    8d5c:	e28db004 	add	fp, sp, #4
    8d60:	e24dd008 	sub	sp, sp, #8
    8d64:	e1a03000 	mov	r3, r0
    8d68:	e54b3005 	strb	r3, [fp, #-5]
    8d6c:	e59f30a0 	ldr	r3, [pc, #160]	; 8e14 <PrintCharacter+0xbc>
    8d70:	e5933000 	ldr	r3, [r3]
    8d74:	e1a03183 	lsl	r3, r3, #3
    8d78:	e1a01003 	mov	r1, r3
    8d7c:	e59f3094 	ldr	r3, [pc, #148]	; 8e18 <PrintCharacter+0xc0>
    8d80:	e5933000 	ldr	r3, [r3]
    8d84:	e1a03203 	lsl	r3, r3, #4
    8d88:	e1a02003 	mov	r2, r3
    8d8c:	e55b3005 	ldrb	r3, [fp, #-5]
    8d90:	e1a00003 	mov	r0, r3
    8d94:	eb0003ac 	bl	9c4c <DrawCharacter>
    8d98:	e59f3074 	ldr	r3, [pc, #116]	; 8e14 <PrintCharacter+0xbc>
    8d9c:	e5933000 	ldr	r3, [r3]
    8da0:	e2833001 	add	r3, r3, #1
    8da4:	e59f2068 	ldr	r2, [pc, #104]	; 8e14 <PrintCharacter+0xbc>
    8da8:	e5823000 	str	r3, [r2]
    8dac:	e59f3060 	ldr	r3, [pc, #96]	; 8e14 <PrintCharacter+0xbc>
    8db0:	e5933000 	ldr	r3, [r3]
    8db4:	e353007f 	cmp	r3, #127	; 0x7f
    8db8:	da000011 	ble	8e04 <PrintCharacter+0xac>
    8dbc:	e59f3054 	ldr	r3, [pc, #84]	; 8e18 <PrintCharacter+0xc0>
    8dc0:	e5933000 	ldr	r3, [r3]
    8dc4:	e2833001 	add	r3, r3, #1
    8dc8:	e59f2048 	ldr	r2, [pc, #72]	; 8e18 <PrintCharacter+0xc0>
    8dcc:	e5823000 	str	r3, [r2]
    8dd0:	e59f303c 	ldr	r3, [pc, #60]	; 8e14 <PrintCharacter+0xbc>
    8dd4:	e3a02000 	mov	r2, #0
    8dd8:	e5832000 	str	r2, [r3]
    8ddc:	e59f3034 	ldr	r3, [pc, #52]	; 8e18 <PrintCharacter+0xc0>
    8de0:	e5933000 	ldr	r3, [r3]
    8de4:	e353002f 	cmp	r3, #47	; 0x2f
    8de8:	da000005 	ble	8e04 <PrintCharacter+0xac>
    8dec:	e59f3020 	ldr	r3, [pc, #32]	; 8e14 <PrintCharacter+0xbc>
    8df0:	e3a02000 	mov	r2, #0
    8df4:	e5832000 	str	r2, [r3]
    8df8:	e59f3018 	ldr	r3, [pc, #24]	; 8e18 <PrintCharacter+0xc0>
    8dfc:	e3a02000 	mov	r2, #0
    8e00:	e5832000 	str	r2, [r3]
    8e04:	e1a00000 	nop			; (mov r0, r0)
    8e08:	e24bd004 	sub	sp, fp, #4
    8e0c:	e8bd4800 	pop	{fp, lr}
    8e10:	e12fff1e 	bx	lr
    8e14:	00008900 	.word	0x00008900
    8e18:	00008904 	.word	0x00008904

00008e1c <_PrintNumber>:
    8e1c:	e92d4800 	push	{fp, lr}
    8e20:	e28db004 	add	fp, sp, #4
    8e24:	e24dd008 	sub	sp, sp, #8
    8e28:	e50b0008 	str	r0, [fp, #-8]
    8e2c:	e50b100c 	str	r1, [fp, #-12]
    8e30:	e51b3008 	ldr	r3, [fp, #-8]
    8e34:	e3530000 	cmp	r3, #0
    8e38:	0a000011 	beq	8e84 <_PrintNumber+0x68>
    8e3c:	e51b100c 	ldr	r1, [fp, #-12]
    8e40:	e51b0008 	ldr	r0, [fp, #-8]
    8e44:	eb003bdb 	bl	17db8 <__aeabi_uidiv>
    8e48:	e1a03000 	mov	r3, r0
    8e4c:	e51b100c 	ldr	r1, [fp, #-12]
    8e50:	e1a00003 	mov	r0, r3
    8e54:	ebfffff0 	bl	8e1c <_PrintNumber>
    8e58:	e51b3008 	ldr	r3, [fp, #-8]
    8e5c:	e51b100c 	ldr	r1, [fp, #-12]
    8e60:	e1a00003 	mov	r0, r3
    8e64:	eb003bd7 	bl	17dc8 <__aeabi_uidivmod>
    8e68:	e1a03001 	mov	r3, r1
    8e6c:	e1a02003 	mov	r2, r3
    8e70:	e59f301c 	ldr	r3, [pc, #28]	; 8e94 <_PrintNumber+0x78>
    8e74:	e7d33002 	ldrb	r3, [r3, r2]
    8e78:	e1a00003 	mov	r0, r3
    8e7c:	ebffffb5 	bl	8d58 <PrintCharacter>
    8e80:	ea000000 	b	8e88 <_PrintNumber+0x6c>
    8e84:	e1a00000 	nop			; (mov r0, r0)
    8e88:	e24bd004 	sub	sp, fp, #4
    8e8c:	e8bd4800 	pop	{fp, lr}
    8e90:	e12fff1e 	bx	lr
    8e94:	00008010 	.word	0x00008010

00008e98 <PrintNumber>:
    8e98:	e92d4800 	push	{fp, lr}
    8e9c:	e28db004 	add	fp, sp, #4
    8ea0:	e24dd008 	sub	sp, sp, #8
    8ea4:	e50b0008 	str	r0, [fp, #-8]
    8ea8:	e50b100c 	str	r1, [fp, #-12]
    8eac:	e51b3008 	ldr	r3, [fp, #-8]
    8eb0:	e3530000 	cmp	r3, #0
    8eb4:	aa000004 	bge	8ecc <PrintNumber+0x34>
    8eb8:	e51b3008 	ldr	r3, [fp, #-8]
    8ebc:	e2633000 	rsb	r3, r3, #0
    8ec0:	e50b3008 	str	r3, [fp, #-8]
    8ec4:	e3a0002d 	mov	r0, #45	; 0x2d
    8ec8:	ebffffa2 	bl	8d58 <PrintCharacter>
    8ecc:	e51b3008 	ldr	r3, [fp, #-8]
    8ed0:	e51b100c 	ldr	r1, [fp, #-12]
    8ed4:	e1a00003 	mov	r0, r3
    8ed8:	ebffffcf 	bl	8e1c <_PrintNumber>
    8edc:	e1a00000 	nop			; (mov r0, r0)
    8ee0:	e24bd004 	sub	sp, fp, #4
    8ee4:	e8bd4800 	pop	{fp, lr}
    8ee8:	e12fff1e 	bx	lr

00008eec <TerminalDisplay>:
    8eec:	e92d4800 	push	{fp, lr}
    8ef0:	e28db004 	add	fp, sp, #4
    8ef4:	e24dd018 	sub	sp, sp, #24
    8ef8:	e59f3170 	ldr	r3, [pc, #368]	; 9070 <TerminalDisplay+0x184>
    8efc:	e5933000 	ldr	r3, [r3]
    8f00:	e59f216c 	ldr	r2, [pc, #364]	; 9074 <TerminalDisplay+0x188>
    8f04:	e0833002 	add	r3, r3, r2
    8f08:	e50b3018 	str	r3, [fp, #-24]	; 0xffffffe8
    8f0c:	e59f3164 	ldr	r3, [pc, #356]	; 9078 <TerminalDisplay+0x18c>
    8f10:	e5932000 	ldr	r2, [r3]
    8f14:	e59f3154 	ldr	r3, [pc, #340]	; 9070 <TerminalDisplay+0x184>
    8f18:	e5933000 	ldr	r3, [r3]
    8f1c:	e0633002 	rsb	r3, r3, r2
    8f20:	e1a03083 	lsl	r3, r3, #1
    8f24:	e51b2018 	ldr	r2, [fp, #-24]	; 0xffffffe8
    8f28:	e0823003 	add	r3, r2, r3
    8f2c:	e1d330b0 	ldrh	r3, [r3]
    8f30:	e14b30b8 	strh	r3, [fp, #-8]
    8f34:	e59f3140 	ldr	r3, [pc, #320]	; 907c <TerminalDisplay+0x190>
    8f38:	e5932000 	ldr	r2, [r3]
    8f3c:	e59f312c 	ldr	r3, [pc, #300]	; 9070 <TerminalDisplay+0x184>
    8f40:	e5933000 	ldr	r3, [r3]
    8f44:	e0633002 	rsb	r3, r3, r2
    8f48:	e1a03083 	lsl	r3, r3, #1
    8f4c:	e51b2018 	ldr	r2, [fp, #-24]	; 0xffffffe8
    8f50:	e0823003 	add	r3, r2, r3
    8f54:	e1d330b0 	ldrh	r3, [r3]
    8f58:	e14b31ba 	strh	r3, [fp, #-26]	; 0xffffffe6
    8f5c:	e51b3018 	ldr	r3, [fp, #-24]	; 0xffffffe8
    8f60:	e50b300c 	str	r3, [fp, #-12]
    8f64:	e51b300c 	ldr	r3, [fp, #-12]
    8f68:	e1d330b0 	ldrh	r3, [r3]
    8f6c:	e14b31bc 	strh	r3, [fp, #-28]	; 0xffffffe4
    8f70:	e3a03000 	mov	r3, #0
    8f74:	e50b3010 	str	r3, [fp, #-16]
    8f78:	ea000035 	b	9054 <TerminalDisplay+0x168>
    8f7c:	e3a03000 	mov	r3, #0
    8f80:	e50b3014 	str	r3, [fp, #-20]	; 0xffffffec
    8f84:	ea00002c 	b	903c <TerminalDisplay+0x150>
    8f88:	e59f30e8 	ldr	r3, [pc, #232]	; 9078 <TerminalDisplay+0x18c>
    8f8c:	e5932000 	ldr	r2, [r3]
    8f90:	e59f30e4 	ldr	r3, [pc, #228]	; 907c <TerminalDisplay+0x190>
    8f94:	e5933000 	ldr	r3, [r3]
    8f98:	e1520003 	cmp	r2, r3
    8f9c:	0a000002 	beq	8fac <TerminalDisplay+0xc0>
    8fa0:	e15b30b8 	ldrh	r3, [fp, #-8]
    8fa4:	e14b30b6 	strh	r3, [fp, #-6]
    8fa8:	ea000001 	b	8fb4 <TerminalDisplay+0xc8>
    8fac:	e3a03c07 	mov	r3, #1792	; 0x700
    8fb0:	e14b30b6 	strh	r3, [fp, #-6]
    8fb4:	e15b20b6 	ldrh	r2, [fp, #-6]
    8fb8:	e15b31bc 	ldrh	r3, [fp, #-28]	; 0xffffffe4
    8fbc:	e1520003 	cmp	r2, r3
    8fc0:	0a000007 	beq	8fe4 <TerminalDisplay+0xf8>
    8fc4:	e51b300c 	ldr	r3, [fp, #-12]
    8fc8:	e15b20b6 	ldrh	r2, [fp, #-6]
    8fcc:	e1c320b0 	strh	r2, [r3]
    8fd0:	e51b3014 	ldr	r3, [fp, #-20]	; 0xffffffec
    8fd4:	e51b2010 	ldr	r2, [fp, #-16]
    8fd8:	e1a01003 	mov	r1, r3
    8fdc:	e3a0007f 	mov	r0, #127	; 0x7f
    8fe0:	eb000319 	bl	9c4c <DrawCharacter>
    8fe4:	e51b300c 	ldr	r3, [fp, #-12]
    8fe8:	e2833004 	add	r3, r3, #4
    8fec:	e50b300c 	str	r3, [fp, #-12]
    8ff0:	e15b20b8 	ldrh	r2, [fp, #-8]
    8ff4:	e15b31ba 	ldrh	r3, [fp, #-26]	; 0xffffffe6
    8ff8:	e1520003 	cmp	r2, r3
    8ffc:	0a000002 	beq	900c <TerminalDisplay+0x120>
    9000:	e15b30b8 	ldrh	r3, [fp, #-8]
    9004:	e2833002 	add	r3, r3, #2
    9008:	e14b30b8 	strh	r3, [fp, #-8]
    900c:	e59f3068 	ldr	r3, [pc, #104]	; 907c <TerminalDisplay+0x190>
    9010:	e5933000 	ldr	r3, [r3]
    9014:	e14b30b8 	strh	r3, [fp, #-8]
    9018:	e15b30b8 	ldrh	r3, [fp, #-8]
    901c:	e3530000 	cmp	r3, #0
    9020:	0a000002 	beq	9030 <TerminalDisplay+0x144>
    9024:	e59f3044 	ldr	r3, [pc, #68]	; 9070 <TerminalDisplay+0x184>
    9028:	e5933000 	ldr	r3, [r3]
    902c:	e14b30b8 	strh	r3, [fp, #-8]
    9030:	e51b3014 	ldr	r3, [fp, #-20]	; 0xffffffec
    9034:	e2833010 	add	r3, r3, #16
    9038:	e50b3014 	str	r3, [fp, #-20]	; 0xffffffec
    903c:	e51b3014 	ldr	r3, [fp, #-20]	; 0xffffffec
    9040:	e3530b01 	cmp	r3, #1024	; 0x400
    9044:	baffffcf 	blt	8f88 <TerminalDisplay+0x9c>
    9048:	e51b3010 	ldr	r3, [fp, #-16]
    904c:	e2833010 	add	r3, r3, #16
    9050:	e50b3010 	str	r3, [fp, #-16]
    9054:	e51b3010 	ldr	r3, [fp, #-16]
    9058:	e3530c03 	cmp	r3, #768	; 0x300
    905c:	baffffc6 	blt	8f7c <TerminalDisplay+0x90>
    9060:	e1a00000 	nop			; (mov r0, r0)
    9064:	e24bd004 	sub	sp, fp, #4
    9068:	e8bd4800 	pop	{fp, lr}
    906c:	e12fff1e 	bx	lr
    9070:	00008908 	.word	0x00008908
    9074:	00020160 	.word	0x00020160
    9078:	00008910 	.word	0x00008910
    907c:	0000890c 	.word	0x0000890c

00009080 <KeyboardHandler>:
    9080:	e92d4800 	push	{fp, lr}
    9084:	e28db004 	add	fp, sp, #4
    9088:	e24dd008 	sub	sp, sp, #8
    908c:	e50b0008 	str	r0, [fp, #-8]
    9090:	e59f30e4 	ldr	r3, [pc, #228]	; 917c <KeyboardHandler+0xfc>
    9094:	e3a02001 	mov	r2, #1
    9098:	e5832000 	str	r2, [r3]
    909c:	e59f30dc 	ldr	r3, [pc, #220]	; 9180 <KeyboardHandler+0x100>
    90a0:	e5932000 	ldr	r2, [r3]
    90a4:	e59f30d8 	ldr	r3, [pc, #216]	; 9184 <KeyboardHandler+0x104>
    90a8:	e5933000 	ldr	r3, [r3]
    90ac:	e0823003 	add	r3, r2, r3
    90b0:	e59f20c8 	ldr	r2, [pc, #200]	; 9180 <KeyboardHandler+0x100>
    90b4:	e5823000 	str	r3, [r2]
    90b8:	e59f30c0 	ldr	r3, [pc, #192]	; 9180 <KeyboardHandler+0x100>
    90bc:	e5933000 	ldr	r3, [r3]
    90c0:	e2833006 	add	r3, r3, #6
    90c4:	e3530ffa 	cmp	r3, #1000	; 0x3e8
    90c8:	ba000002 	blt	90d8 <KeyboardHandler+0x58>
    90cc:	e59f30ac 	ldr	r3, [pc, #172]	; 9180 <KeyboardHandler+0x100>
    90d0:	e3a02000 	mov	r2, #0
    90d4:	e5832000 	str	r2, [r3]
    90d8:	e59f30a4 	ldr	r3, [pc, #164]	; 9184 <KeyboardHandler+0x104>
    90dc:	e3a02000 	mov	r2, #0
    90e0:	e5832000 	str	r2, [r3]
    90e4:	ea000011 	b	9130 <KeyboardHandler+0xb0>
    90e8:	e59f3090 	ldr	r3, [pc, #144]	; 9180 <KeyboardHandler+0x100>
    90ec:	e5932000 	ldr	r2, [r3]
    90f0:	e59f308c 	ldr	r3, [pc, #140]	; 9184 <KeyboardHandler+0x104>
    90f4:	e5933000 	ldr	r3, [r3]
    90f8:	e0823003 	add	r3, r2, r3
    90fc:	e59f2080 	ldr	r2, [pc, #128]	; 9184 <KeyboardHandler+0x104>
    9100:	e5922000 	ldr	r2, [r2]
    9104:	e1a01002 	mov	r1, r2
    9108:	e51b2008 	ldr	r2, [fp, #-8]
    910c:	e0822001 	add	r2, r2, r1
    9110:	e5d21000 	ldrb	r1, [r2]
    9114:	e59f206c 	ldr	r2, [pc, #108]	; 9188 <KeyboardHandler+0x108>
    9118:	e7c21003 	strb	r1, [r2, r3]
    911c:	e59f3060 	ldr	r3, [pc, #96]	; 9184 <KeyboardHandler+0x104>
    9120:	e5933000 	ldr	r3, [r3]
    9124:	e2833001 	add	r3, r3, #1
    9128:	e59f2054 	ldr	r2, [pc, #84]	; 9184 <KeyboardHandler+0x104>
    912c:	e5823000 	str	r3, [r2]
    9130:	e51b0008 	ldr	r0, [fp, #-8]
    9134:	eb0001eb 	bl	98e8 <CharCount>
    9138:	e1a02000 	mov	r2, r0
    913c:	e59f3040 	ldr	r3, [pc, #64]	; 9184 <KeyboardHandler+0x104>
    9140:	e5933000 	ldr	r3, [r3]
    9144:	e1520003 	cmp	r2, r3
    9148:	caffffe6 	bgt	90e8 <KeyboardHandler+0x68>
    914c:	e59f302c 	ldr	r3, [pc, #44]	; 9180 <KeyboardHandler+0x100>
    9150:	e5932000 	ldr	r2, [r3]
    9154:	e59f3028 	ldr	r3, [pc, #40]	; 9184 <KeyboardHandler+0x104>
    9158:	e5933000 	ldr	r3, [r3]
    915c:	e0823003 	add	r3, r2, r3
    9160:	e59f2020 	ldr	r2, [pc, #32]	; 9188 <KeyboardHandler+0x108>
    9164:	e3a01000 	mov	r1, #0
    9168:	e7c21003 	strb	r1, [r2, r3]
    916c:	e1a00000 	nop			; (mov r0, r0)
    9170:	e24bd004 	sub	sp, fp, #4
    9174:	e8bd4800 	pop	{fp, lr}
    9178:	e12fff1e 	bx	lr
    917c:	00008918 	.word	0x00008918
    9180:	00008914 	.word	0x00008914
    9184:	0000891c 	.word	0x0000891c
    9188:	00024160 	.word	0x00024160

0000918c <DrawPixelColor>:
    918c:	e92d4800 	push	{fp, lr}
    9190:	e28db004 	add	fp, sp, #4
    9194:	e24dd010 	sub	sp, sp, #16
    9198:	e50b0008 	str	r0, [fp, #-8]
    919c:	e50b100c 	str	r1, [fp, #-12]
    91a0:	e1a03002 	mov	r3, r2
    91a4:	e14b30be 	strh	r3, [fp, #-14]
    91a8:	e15b30be 	ldrh	r3, [fp, #-14]
    91ac:	e1a00003 	mov	r0, r3
    91b0:	eb00025d 	bl	9b2c <SetForeColour>
    91b4:	e51b3008 	ldr	r3, [fp, #-8]
    91b8:	e20320ff 	and	r2, r3, #255	; 0xff
    91bc:	e51b300c 	ldr	r3, [fp, #-12]
    91c0:	e20330ff 	and	r3, r3, #255	; 0xff
    91c4:	e1a01003 	mov	r1, r3
    91c8:	e1a00002 	mov	r0, r2
    91cc:	eb00025e 	bl	9b4c <DrawPixel>
    91d0:	e59f0010 	ldr	r0, [pc, #16]	; 91e8 <DrawPixelColor+0x5c>
    91d4:	eb000254 	bl	9b2c <SetForeColour>
    91d8:	e1a00000 	nop			; (mov r0, r0)
    91dc:	e24bd004 	sub	sp, fp, #4
    91e0:	e8bd4800 	pop	{fp, lr}
    91e4:	e12fff1e 	bx	lr
    91e8:	0000ffff 	.word	0x0000ffff

000091ec <ClearScreen>:
    91ec:	e92d4800 	push	{fp, lr}
    91f0:	e28db004 	add	fp, sp, #4
    91f4:	e24dd008 	sub	sp, sp, #8
    91f8:	e3a03000 	mov	r3, #0
    91fc:	e50b3008 	str	r3, [fp, #-8]
    9200:	ea00000f 	b	9244 <ClearScreen+0x58>
    9204:	e3a03000 	mov	r3, #0
    9208:	e50b300c 	str	r3, [fp, #-12]
    920c:	ea000006 	b	922c <ClearScreen+0x40>
    9210:	e3a02000 	mov	r2, #0
    9214:	e51b100c 	ldr	r1, [fp, #-12]
    9218:	e51b0008 	ldr	r0, [fp, #-8]
    921c:	ebffffda 	bl	918c <DrawPixelColor>
    9220:	e51b300c 	ldr	r3, [fp, #-12]
    9224:	e2833001 	add	r3, r3, #1
    9228:	e50b300c 	str	r3, [fp, #-12]
    922c:	e51b300c 	ldr	r3, [fp, #-12]
    9230:	e3530c03 	cmp	r3, #768	; 0x300
    9234:	bafffff5 	blt	9210 <ClearScreen+0x24>
    9238:	e51b3008 	ldr	r3, [fp, #-8]
    923c:	e2833001 	add	r3, r3, #1
    9240:	e50b3008 	str	r3, [fp, #-8]
    9244:	e51b3008 	ldr	r3, [fp, #-8]
    9248:	e3530b01 	cmp	r3, #1024	; 0x400
    924c:	baffffec 	blt	9204 <ClearScreen+0x18>
    9250:	e1a00000 	nop			; (mov r0, r0)
    9254:	e24bd004 	sub	sp, fp, #4
    9258:	e8bd4800 	pop	{fp, lr}
    925c:	e12fff1e 	bx	lr

00009260 <snake>:
    9260:	e92d4800 	push	{fp, lr}
    9264:	e28db004 	add	fp, sp, #4
    9268:	e24ddfd2 	sub	sp, sp, #840	; 0x348
    926c:	e3a03000 	mov	r3, #0
    9270:	e50b3010 	str	r3, [fp, #-16]
    9274:	e3a00017 	mov	r0, #23
    9278:	eb0002d0 	bl	9dc0 <Random>
    927c:	e1a01000 	mov	r1, r0
    9280:	e59f33fc 	ldr	r3, [pc, #1020]	; 9684 <snake+0x424>
    9284:	e0832391 	umull	r2, r3, r1, r3
    9288:	e1a02323 	lsr	r2, r3, #6
    928c:	e1a03002 	mov	r3, r2
    9290:	e1a03083 	lsl	r3, r3, #1
    9294:	e0833002 	add	r3, r3, r2
    9298:	e1a03283 	lsl	r3, r3, #5
    929c:	e0632001 	rsb	r2, r3, r1
    92a0:	e1a03002 	mov	r3, r2
    92a4:	e50b302c 	str	r3, [fp, #-44]	; 0xffffffd4
    92a8:	e51b302c 	ldr	r3, [fp, #-44]	; 0xffffffd4
    92ac:	e1a00003 	mov	r0, r3
    92b0:	eb0002c2 	bl	9dc0 <Random>
    92b4:	e1a03000 	mov	r3, r0
    92b8:	e203303f 	and	r3, r3, #63	; 0x3f
    92bc:	e50b3028 	str	r3, [fp, #-40]	; 0xffffffd8
    92c0:	e51b3028 	ldr	r3, [fp, #-40]	; 0xffffffd8
    92c4:	e1a00003 	mov	r0, r3
    92c8:	eb0002bc 	bl	9dc0 <Random>
    92cc:	e1a03000 	mov	r3, r0
    92d0:	e2831003 	add	r1, r3, #3
    92d4:	e59f33a8 	ldr	r3, [pc, #936]	; 9684 <snake+0x424>
    92d8:	e0832391 	umull	r2, r3, r1, r3
    92dc:	e1a02323 	lsr	r2, r3, #6
    92e0:	e1a03002 	mov	r3, r2
    92e4:	e1a03083 	lsl	r3, r3, #1
    92e8:	e0833002 	add	r3, r3, r2
    92ec:	e1a03283 	lsl	r3, r3, #5
    92f0:	e0632001 	rsb	r2, r3, r1
    92f4:	e1a03002 	mov	r3, r2
    92f8:	e50b334c 	str	r3, [fp, #-844]	; 0xfffffcb4
    92fc:	e51b334c 	ldr	r3, [fp, #-844]	; 0xfffffcb4
    9300:	e1a00003 	mov	r0, r3
    9304:	eb0002ad 	bl	9dc0 <Random>
    9308:	e1a03000 	mov	r3, r0
    930c:	e203303f 	and	r3, r3, #63	; 0x3f
    9310:	e50b31bc 	str	r3, [fp, #-444]	; 0xfffffe44
    9314:	e51b334c 	ldr	r3, [fp, #-844]	; 0xfffffcb4
    9318:	e2433001 	sub	r3, r3, #1
    931c:	e50b3348 	str	r3, [fp, #-840]	; 0xfffffcb8
    9320:	e51b31bc 	ldr	r3, [fp, #-444]	; 0xfffffe44
    9324:	e2433001 	sub	r3, r3, #1
    9328:	e50b31b8 	str	r3, [fp, #-440]	; 0xfffffe48
    932c:	e3a03064 	mov	r3, #100	; 0x64
    9330:	e54b3011 	strb	r3, [fp, #-17]	; 0xffffffef
    9334:	e3a03064 	mov	r3, #100	; 0x64
    9338:	e54b3012 	strb	r3, [fp, #-18]	; 0xffffffee
    933c:	e3a03000 	mov	r3, #0
    9340:	e50b3018 	str	r3, [fp, #-24]	; 0xffffffe8
    9344:	ea0000c4 	b	965c <snake+0x3fc>
    9348:	e59f3338 	ldr	r3, [pc, #824]	; 9688 <snake+0x428>
    934c:	e5933000 	ldr	r3, [r3]
    9350:	e3530000 	cmp	r3, #0
    9354:	0a000017 	beq	93b8 <snake+0x158>
    9358:	e59f3328 	ldr	r3, [pc, #808]	; 9688 <snake+0x428>
    935c:	e3a02000 	mov	r2, #0
    9360:	e5832000 	str	r2, [r3]
    9364:	e59f3320 	ldr	r3, [pc, #800]	; 968c <snake+0x42c>
    9368:	e5933000 	ldr	r3, [r3]
    936c:	e1a02003 	mov	r2, r3
    9370:	e59f3318 	ldr	r3, [pc, #792]	; 9690 <snake+0x430>
    9374:	e0823003 	add	r3, r2, r3
    9378:	e5d33000 	ldrb	r3, [r3]
    937c:	e54b3012 	strb	r3, [fp, #-18]	; 0xffffffee
    9380:	e55b3012 	ldrb	r3, [fp, #-18]	; 0xffffffee
    9384:	e3530061 	cmp	r3, #97	; 0x61
    9388:	1a000008 	bne	93b0 <snake+0x150>
    938c:	e55b3012 	ldrb	r3, [fp, #-18]	; 0xffffffee
    9390:	e3530073 	cmp	r3, #115	; 0x73
    9394:	1a000005 	bne	93b0 <snake+0x150>
    9398:	e55b3012 	ldrb	r3, [fp, #-18]	; 0xffffffee
    939c:	e3530064 	cmp	r3, #100	; 0x64
    93a0:	1a000002 	bne	93b0 <snake+0x150>
    93a4:	e55b3012 	ldrb	r3, [fp, #-18]	; 0xffffffee
    93a8:	e3530077 	cmp	r3, #119	; 0x77
    93ac:	0a000001 	beq	93b8 <snake+0x158>
    93b0:	e55b3011 	ldrb	r3, [fp, #-17]	; 0xffffffef
    93b4:	e54b3012 	strb	r3, [fp, #-18]	; 0xffffffee
    93b8:	e3a03061 	mov	r3, #97	; 0x61
    93bc:	e54b3012 	strb	r3, [fp, #-18]	; 0xffffffee
    93c0:	e51b334c 	ldr	r3, [fp, #-844]	; 0xfffffcb4
    93c4:	e2433001 	sub	r3, r3, #1
    93c8:	e50b301c 	str	r3, [fp, #-28]	; 0xffffffe4
    93cc:	e3a03000 	mov	r3, #0
    93d0:	e50b3008 	str	r3, [fp, #-8]
    93d4:	ea000010 	b	941c <snake+0x1bc>
    93d8:	e51b3008 	ldr	r3, [fp, #-8]
    93dc:	e3530000 	cmp	r3, #0
    93e0:	0a00000a 	beq	9410 <snake+0x1b0>
    93e4:	e51b3008 	ldr	r3, [fp, #-8]
    93e8:	e2831001 	add	r1, r3, #1
    93ec:	e51b3008 	ldr	r3, [fp, #-8]
    93f0:	e1a03103 	lsl	r3, r3, #2
    93f4:	e24b2004 	sub	r2, fp, #4
    93f8:	e0823003 	add	r3, r2, r3
    93fc:	e5132348 	ldr	r2, [r3, #-840]	; 0xfffffcb8
    9400:	e1a03101 	lsl	r3, r1, #2
    9404:	e24b1004 	sub	r1, fp, #4
    9408:	e0813003 	add	r3, r1, r3
    940c:	e5032348 	str	r2, [r3, #-840]	; 0xfffffcb8
    9410:	e51b3008 	ldr	r3, [fp, #-8]
    9414:	e2833001 	add	r3, r3, #1
    9418:	e50b3008 	str	r3, [fp, #-8]
    941c:	e51b3008 	ldr	r3, [fp, #-8]
    9420:	e1a03103 	lsl	r3, r3, #2
    9424:	e24b2004 	sub	r2, fp, #4
    9428:	e0823003 	add	r3, r2, r3
    942c:	e5133348 	ldr	r3, [r3, #-840]	; 0xfffffcb8
    9430:	e3530000 	cmp	r3, #0
    9434:	1affffe7 	bne	93d8 <snake+0x178>
    9438:	e51b234c 	ldr	r2, [fp, #-844]	; 0xfffffcb4
    943c:	e51b302c 	ldr	r3, [fp, #-44]	; 0xffffffd4
    9440:	e1520003 	cmp	r2, r3
    9444:	1a00000d 	bne	9480 <snake+0x220>
    9448:	e51b21bc 	ldr	r2, [fp, #-444]	; 0xfffffe44
    944c:	e51b3028 	ldr	r3, [fp, #-40]	; 0xffffffd8
    9450:	e1520003 	cmp	r2, r3
    9454:	1a000009 	bne	9480 <snake+0x220>
    9458:	e51b3028 	ldr	r3, [fp, #-40]	; 0xffffffd8
    945c:	e1a00003 	mov	r0, r3
    9460:	eb000256 	bl	9dc0 <Random>
    9464:	e1a03000 	mov	r3, r0
    9468:	e50b302c 	str	r3, [fp, #-44]	; 0xffffffd4
    946c:	e51b302c 	ldr	r3, [fp, #-44]	; 0xffffffd4
    9470:	e1a00003 	mov	r0, r3
    9474:	eb000251 	bl	9dc0 <Random>
    9478:	e1a03000 	mov	r3, r0
    947c:	e50b3028 	str	r3, [fp, #-40]	; 0xffffffd8
    9480:	e3a03000 	mov	r3, #0
    9484:	e50b300c 	str	r3, [fp, #-12]
    9488:	ea000031 	b	9554 <snake+0x2f4>
    948c:	e51b300c 	ldr	r3, [fp, #-12]
    9490:	e3530000 	cmp	r3, #0
    9494:	1a00000f 	bne	94d8 <snake+0x278>
    9498:	e51b300c 	ldr	r3, [fp, #-12]
    949c:	e1a03103 	lsl	r3, r3, #2
    94a0:	e24b2004 	sub	r2, fp, #4
    94a4:	e0823003 	add	r3, r2, r3
    94a8:	e5133348 	ldr	r3, [r3, #-840]	; 0xfffffcb8
    94ac:	e1a01003 	mov	r1, r3
    94b0:	e51b300c 	ldr	r3, [fp, #-12]
    94b4:	e2833064 	add	r3, r3, #100	; 0x64
    94b8:	e1a03103 	lsl	r3, r3, #2
    94bc:	e24b2004 	sub	r2, fp, #4
    94c0:	e0823003 	add	r3, r2, r3
    94c4:	e5133348 	ldr	r3, [r3, #-840]	; 0xfffffcb8
    94c8:	e1a02003 	mov	r2, r3
    94cc:	e3a00040 	mov	r0, #64	; 0x40
    94d0:	eb0001dd 	bl	9c4c <DrawCharacter>
    94d4:	ea00000e 	b	9514 <snake+0x2b4>
    94d8:	e51b300c 	ldr	r3, [fp, #-12]
    94dc:	e1a03103 	lsl	r3, r3, #2
    94e0:	e24b2004 	sub	r2, fp, #4
    94e4:	e0823003 	add	r3, r2, r3
    94e8:	e5133348 	ldr	r3, [r3, #-840]	; 0xfffffcb8
    94ec:	e1a01003 	mov	r1, r3
    94f0:	e51b300c 	ldr	r3, [fp, #-12]
    94f4:	e2833064 	add	r3, r3, #100	; 0x64
    94f8:	e1a03103 	lsl	r3, r3, #2
    94fc:	e24b2004 	sub	r2, fp, #4
    9500:	e0823003 	add	r3, r2, r3
    9504:	e5133348 	ldr	r3, [r3, #-840]	; 0xfffffcb8
    9508:	e1a02003 	mov	r2, r3
    950c:	e3a00023 	mov	r0, #35	; 0x23
    9510:	eb0001cd 	bl	9c4c <DrawCharacter>
    9514:	e51b302c 	ldr	r3, [fp, #-44]	; 0xffffffd4
    9518:	e1a01003 	mov	r1, r3
    951c:	e51b3028 	ldr	r3, [fp, #-40]	; 0xffffffd8
    9520:	e1a02003 	mov	r2, r3
    9524:	e3a00058 	mov	r0, #88	; 0x58
    9528:	eb0001c7 	bl	9c4c <DrawCharacter>
    952c:	e24b3024 	sub	r3, fp, #36	; 0x24
    9530:	e3a0200a 	mov	r2, #10
    9534:	e1a01003 	mov	r1, r3
    9538:	e51b0010 	ldr	r0, [fp, #-16]
    953c:	eb0000f0 	bl	9904 <SignedString>
    9540:	e24b3024 	sub	r3, fp, #36	; 0x24
    9544:	e3a02000 	mov	r2, #0
    9548:	e3a01000 	mov	r1, #0
    954c:	e1a00003 	mov	r0, r3
    9550:	eb0000d7 	bl	98b4 <DrawStringz>
    9554:	e51b300c 	ldr	r3, [fp, #-12]
    9558:	e1a03103 	lsl	r3, r3, #2
    955c:	e24b2004 	sub	r2, fp, #4
    9560:	e0823003 	add	r3, r2, r3
    9564:	e5133348 	ldr	r3, [r3, #-840]	; 0xfffffcb8
    9568:	e3530000 	cmp	r3, #0
    956c:	1affffc6 	bne	948c <snake+0x22c>
    9570:	e51b302c 	ldr	r3, [fp, #-44]	; 0xffffffd4
    9574:	e1a01003 	mov	r1, r3
    9578:	e51b3028 	ldr	r3, [fp, #-40]	; 0xffffffd8
    957c:	e1a02003 	mov	r2, r3
    9580:	e3a00058 	mov	r0, #88	; 0x58
    9584:	eb0001b0 	bl	9c4c <DrawCharacter>
    9588:	e24b3024 	sub	r3, fp, #36	; 0x24
    958c:	e3a0200a 	mov	r2, #10
    9590:	e1a01003 	mov	r1, r3
    9594:	e51b0010 	ldr	r0, [fp, #-16]
    9598:	eb0000d9 	bl	9904 <SignedString>
    959c:	e24b3024 	sub	r3, fp, #36	; 0x24
    95a0:	e3a02000 	mov	r2, #0
    95a4:	e3a01000 	mov	r1, #0
    95a8:	e1a00003 	mov	r0, r3
    95ac:	eb0000c0 	bl	98b4 <DrawStringz>
    95b0:	e51b334c 	ldr	r3, [fp, #-844]	; 0xfffffcb4
    95b4:	e3530000 	cmp	r3, #0
    95b8:	da00002b 	ble	966c <snake+0x40c>
    95bc:	e51b334c 	ldr	r3, [fp, #-844]	; 0xfffffcb4
    95c0:	e3530060 	cmp	r3, #96	; 0x60
    95c4:	ca000028 	bgt	966c <snake+0x40c>
    95c8:	e51b31bc 	ldr	r3, [fp, #-444]	; 0xfffffe44
    95cc:	e3530000 	cmp	r3, #0
    95d0:	da000025 	ble	966c <snake+0x40c>
    95d4:	e51b31bc 	ldr	r3, [fp, #-444]	; 0xfffffe44
    95d8:	e3530040 	cmp	r3, #64	; 0x40
    95dc:	ca000022 	bgt	966c <snake+0x40c>
    95e0:	e3a03001 	mov	r3, #1
    95e4:	e50b300c 	str	r3, [fp, #-12]
    95e8:	ea000012 	b	9638 <snake+0x3d8>
    95ec:	e51b234c 	ldr	r2, [fp, #-844]	; 0xfffffcb4
    95f0:	e51b300c 	ldr	r3, [fp, #-12]
    95f4:	e1a03103 	lsl	r3, r3, #2
    95f8:	e24b1004 	sub	r1, fp, #4
    95fc:	e0813003 	add	r3, r1, r3
    9600:	e5133348 	ldr	r3, [r3, #-840]	; 0xfffffcb8
    9604:	e1520003 	cmp	r2, r3
    9608:	1a000007 	bne	962c <snake+0x3cc>
    960c:	e51b21bc 	ldr	r2, [fp, #-444]	; 0xfffffe44
    9610:	e51b300c 	ldr	r3, [fp, #-12]
    9614:	e1a03103 	lsl	r3, r3, #2
    9618:	e24b1004 	sub	r1, fp, #4
    961c:	e0813003 	add	r3, r1, r3
    9620:	e5133348 	ldr	r3, [r3, #-840]	; 0xfffffcb8
    9624:	e1520003 	cmp	r2, r3
    9628:	0a000011 	beq	9674 <snake+0x414>
    962c:	e51b300c 	ldr	r3, [fp, #-12]
    9630:	e2833001 	add	r3, r3, #1
    9634:	e50b300c 	str	r3, [fp, #-12]
    9638:	e51b300c 	ldr	r3, [fp, #-12]
    963c:	e1a03103 	lsl	r3, r3, #2
    9640:	e24b2004 	sub	r2, fp, #4
    9644:	e0823003 	add	r3, r2, r3
    9648:	e5133348 	ldr	r3, [r3, #-840]	; 0xfffffcb8
    964c:	e3530000 	cmp	r3, #0
    9650:	1affffe5 	bne	95ec <snake+0x38c>
    9654:	e59f0038 	ldr	r0, [pc, #56]	; 9694 <snake+0x434>
    9658:	eb000128 	bl	9b00 <timerWait>
    965c:	e51b3018 	ldr	r3, [fp, #-24]	; 0xffffffe8
    9660:	e3530000 	cmp	r3, #0
    9664:	0affff37 	beq	9348 <snake+0xe8>
    9668:	ea000002 	b	9678 <snake+0x418>
    966c:	e1a00000 	nop			; (mov r0, r0)
    9670:	ea000000 	b	9678 <snake+0x418>
    9674:	e1a00000 	nop			; (mov r0, r0)
    9678:	e24bd004 	sub	sp, fp, #4
    967c:	e8bd4800 	pop	{fp, lr}
    9680:	e12fff1e 	bx	lr
    9684:	aaaaaaab 	.word	0xaaaaaaab
    9688:	00008918 	.word	0x00008918
    968c:	00008914 	.word	0x00008914
    9690:	00024160 	.word	0x00024160
    9694:	000f4240 	.word	0x000f4240

00009698 <kernel_main>:
    9698:	e92d4800 	push	{fp, lr}
    969c:	e28db004 	add	fp, sp, #4
    96a0:	e24dd020 	sub	sp, sp, #32
    96a4:	e50b0018 	str	r0, [fp, #-24]	; 0xffffffe8
    96a8:	e50b101c 	str	r1, [fp, #-28]	; 0xffffffe4
    96ac:	e50b2020 	str	r2, [fp, #-32]	; 0xffffffe0
    96b0:	eb00407b 	bl	198a4 <USPiEnvInitialize>
    96b4:	eb0001d9 	bl	9e20 <USPiInitialize>
    96b8:	eb00026d 	bl	a074 <USPiKeyboardAvailable>
    96bc:	e59f00e8 	ldr	r0, [pc, #232]	; 97ac <kernel_main+0x114>
    96c0:	eb00027d 	bl	a0bc <USPiKeyboardRegisterKeyPressedHandler>
    96c4:	e3a02010 	mov	r2, #16
    96c8:	e3a01c03 	mov	r1, #768	; 0x300
    96cc:	e3a00b01 	mov	r0, #1024	; 0x400
    96d0:	eb00005f 	bl	9854 <InitialiseFrameBuffer>
    96d4:	e50b0010 	str	r0, [fp, #-16]
    96d8:	e51b3010 	ldr	r3, [fp, #-16]
    96dc:	e3530000 	cmp	r3, #0
    96e0:	0a000005 	beq	96fc <kernel_main+0x64>
    96e4:	e3a01001 	mov	r1, #1
    96e8:	e3a00010 	mov	r0, #16
    96ec:	eb00018a 	bl	9d1c <SetGpioFunction>
    96f0:	e3a01000 	mov	r1, #0
    96f4:	e3a0002f 	mov	r0, #47	; 0x2f
    96f8:	eb00019b 	bl	9d6c <SetGpio>
    96fc:	e51b0010 	ldr	r0, [fp, #-16]
    9700:	eb00010e 	bl	9b40 <SetGraphicsAddress>
    9704:	e3a0100a 	mov	r1, #10
    9708:	e3a00059 	mov	r0, #89	; 0x59
    970c:	ebfffde1 	bl	8e98 <PrintNumber>
    9710:	e3a03000 	mov	r3, #0
    9714:	e50b3008 	str	r3, [fp, #-8]
    9718:	e3a03010 	mov	r3, #16
    971c:	e50b300c 	str	r3, [fp, #-12]
    9720:	e59f3088 	ldr	r3, [pc, #136]	; 97b0 <kernel_main+0x118>
    9724:	e5933000 	ldr	r3, [r3]
    9728:	e3530000 	cmp	r3, #0
    972c:	0afffffb 	beq	9720 <kernel_main+0x88>
    9730:	e59f3078 	ldr	r3, [pc, #120]	; 97b0 <kernel_main+0x118>
    9734:	e3a02000 	mov	r2, #0
    9738:	e5832000 	str	r2, [r3]
    973c:	e59f3070 	ldr	r3, [pc, #112]	; 97b4 <kernel_main+0x11c>
    9740:	e5933000 	ldr	r3, [r3]
    9744:	e1a02003 	mov	r2, r3
    9748:	e59f3068 	ldr	r3, [pc, #104]	; 97b8 <kernel_main+0x120>
    974c:	e0823003 	add	r3, r2, r3
    9750:	e51b1008 	ldr	r1, [fp, #-8]
    9754:	e51b200c 	ldr	r2, [fp, #-12]
    9758:	e1a00003 	mov	r0, r3
    975c:	eb000054 	bl	98b4 <DrawStringz>
    9760:	e1a03000 	mov	r3, r0
    9764:	e1a03183 	lsl	r3, r3, #3
    9768:	e51b2008 	ldr	r2, [fp, #-8]
    976c:	e0823003 	add	r3, r2, r3
    9770:	e50b3008 	str	r3, [fp, #-8]
    9774:	e51b3008 	ldr	r3, [fp, #-8]
    9778:	e3530b01 	cmp	r3, #1024	; 0x400
    977c:	daffffe7 	ble	9720 <kernel_main+0x88>
    9780:	e3a03000 	mov	r3, #0
    9784:	e50b3008 	str	r3, [fp, #-8]
    9788:	e51b300c 	ldr	r3, [fp, #-12]
    978c:	e2833010 	add	r3, r3, #16
    9790:	e50b300c 	str	r3, [fp, #-12]
    9794:	e51b300c 	ldr	r3, [fp, #-12]
    9798:	e3530c03 	cmp	r3, #768	; 0x300
    979c:	daffffdf 	ble	9720 <kernel_main+0x88>
    97a0:	e3a03000 	mov	r3, #0
    97a4:	e50b300c 	str	r3, [fp, #-12]
    97a8:	eaffffdc 	b	9720 <kernel_main+0x88>
    97ac:	00009080 	.word	0x00009080
    97b0:	00008918 	.word	0x00008918
    97b4:	00008914 	.word	0x00008914
    97b8:	00024160 	.word	0x00024160

000097bc <_cstartup>:
    97bc:	e92d4800 	push	{fp, lr}
    97c0:	e28db004 	add	fp, sp, #4
    97c4:	e24dd010 	sub	sp, sp, #16
    97c8:	e50b0008 	str	r0, [fp, #-8]
    97cc:	e50b100c 	str	r1, [fp, #-12]
    97d0:	e50b2010 	str	r2, [fp, #-16]
    97d4:	e51b2010 	ldr	r2, [fp, #-16]
    97d8:	e51b100c 	ldr	r1, [fp, #-12]
    97dc:	e51b0008 	ldr	r0, [fp, #-8]
    97e0:	ebffffac 	bl	9698 <kernel_main>
    97e4:	e1a00000 	nop			; (mov r0, r0)
    97e8:	e24bd004 	sub	sp, fp, #4
    97ec:	e8bd4800 	pop	{fp, lr}
    97f0:	e12fff1e 	bx	lr

000097f4 <MailboxWrite>:
    97f4:	e310000f 	tst	r0, #15
    97f8:	11a0f00e 	movne	pc, lr
    97fc:	e351000f 	cmp	r1, #15
    9800:	81a0f00e 	movhi	pc, lr
    9804:	e59f2044 	ldr	r2, [pc, #68]	; 9850 <rightmail$+0x24>

00009808 <wait1$>:
    9808:	e5923018 	ldr	r3, [r2, #24]
    980c:	e3130102 	tst	r3, #-2147483648	; 0x80000000
    9810:	1afffffc 	bne	9808 <wait1$>
    9814:	e0800001 	add	r0, r0, r1
    9818:	e5820020 	str	r0, [r2, #32]
    981c:	e1a0f00e 	mov	pc, lr

00009820 <MailboxRead>:
    9820:	e350000f 	cmp	r0, #15
    9824:	81a0f00e 	movhi	pc, lr
    9828:	e59f1020 	ldr	r1, [pc, #32]	; 9850 <rightmail$+0x24>

0000982c <rightmail$>:
    982c:	e5912018 	ldr	r2, [r1, #24]
    9830:	e3120101 	tst	r2, #1073741824	; 0x40000000
    9834:	1afffffc 	bne	982c <rightmail$>
    9838:	e5912000 	ldr	r2, [r1]
    983c:	e202300f 	and	r3, r2, #15
    9840:	e1330000 	teq	r3, r0
    9844:	1afffff8 	bne	982c <rightmail$>
    9848:	e3c2000f 	bic	r0, r2, #15
    984c:	e1a0f00e 	mov	pc, lr
    9850:	2000b880 	.word	0x2000b880

00009854 <InitialiseFrameBuffer>:
    9854:	e3500a01 	cmp	r0, #4096	; 0x1000
    9858:	93510a01 	cmpls	r1, #4096	; 0x1000
    985c:	93520020 	cmpls	r2, #32
    9860:	83a00000 	movhi	r0, #0
    9864:	81a0f00e 	movhi	pc, lr
    9868:	e92d4010 	push	{r4, lr}
    986c:	e59f403c 	ldr	r4, [pc, #60]	; 98b0 <InitialiseFrameBuffer+0x5c>
    9870:	e5840000 	str	r0, [r4]
    9874:	e5841004 	str	r1, [r4, #4]
    9878:	e5840008 	str	r0, [r4, #8]
    987c:	e584100c 	str	r1, [r4, #12]
    9880:	e5842014 	str	r2, [r4, #20]
    9884:	e1a00004 	mov	r0, r4
    9888:	e2800101 	add	r0, r0, #1073741824	; 0x40000000
    988c:	e3a01001 	mov	r1, #1
    9890:	ebffffd7 	bl	97f4 <MailboxWrite>
    9894:	e3a00001 	mov	r0, #1
    9898:	ebffffe0 	bl	9820 <MailboxRead>
    989c:	e3300000 	teq	r0, #0
    98a0:	13a00000 	movne	r0, #0
    98a4:	18bd8010 	popne	{r4, pc}
    98a8:	e1a00004 	mov	r0, r4
    98ac:	e8bd8010 	pop	{r4, pc}
    98b0:	00008040 	.word	0x00008040

000098b4 <DrawStringz>:
    98b4:	e92d40f0 	push	{r4, r5, r6, r7, lr}
    98b8:	e1a04000 	mov	r4, r0
    98bc:	e1a05001 	mov	r5, r1
    98c0:	e1a06002 	mov	r6, r2
    98c4:	eb000007 	bl	98e8 <CharCount>
    98c8:	e1a07000 	mov	r7, r0
    98cc:	e1a01000 	mov	r1, r0
    98d0:	e1a00004 	mov	r0, r4
    98d4:	e1a02005 	mov	r2, r5
    98d8:	e1a03006 	mov	r3, r6
    98dc:	eb0000ef 	bl	9ca0 <DrawString>
    98e0:	e1a00007 	mov	r0, r7
    98e4:	e8bd80f0 	pop	{r4, r5, r6, r7, pc}

000098e8 <CharCount>:
    98e8:	e1a01000 	mov	r1, r0
    98ec:	e3a00000 	mov	r0, #0

000098f0 <CharCountLoop$>:
    98f0:	e7d12000 	ldrb	r2, [r1, r0]
    98f4:	e3520000 	cmp	r2, #0
    98f8:	01a0f00e 	moveq	pc, lr
    98fc:	e2800001 	add	r0, r0, #1
    9900:	eafffffa 	b	98f0 <CharCountLoop$>

00009904 <SignedString>:
    9904:	e92d4010 	push	{r4, lr}
    9908:	e3520000 	cmp	r2, #0
    990c:	d3e00001 	mvnle	r0, #1
    9910:	d8bd9ff0 	pople	{r4, r5, r6, r7, r8, r9, sl, fp, ip, pc}
    9914:	e3a04000 	mov	r4, #0
    9918:	e3500000 	cmp	r0, #0
    991c:	aa000005 	bge	9938 <ContinueSignedString$>
    9920:	e3a0302d 	mov	r3, #45	; 0x2d
    9924:	e3310000 	teq	r1, #0
    9928:	15c13000 	strbne	r3, [r1]
    992c:	e2811001 	add	r1, r1, #1
    9930:	e2600000 	rsb	r0, r0, #0
    9934:	e2844001 	add	r4, r4, #1

00009938 <ContinueSignedString$>:
    9938:	eb000001 	bl	9944 <UnsignedString>
    993c:	e0800004 	add	r0, r0, r4
    9940:	d8bd8010 	pople	{r4, pc}

00009944 <UnsignedString>:
    9944:	e92d5ff0 	push	{r4, r5, r6, r7, r8, r9, sl, fp, ip, lr}
    9948:	e1a04000 	mov	r4, r0
    994c:	e1a05001 	mov	r5, r1
    9950:	e1a06002 	mov	r6, r2
    9954:	e3a07000 	mov	r7, #0

00009958 <ConversionLoop$>:
    9958:	e1a01006 	mov	r1, r6
    995c:	eb00011d 	bl	9dd8 <DivideU32>
    9960:	e351000a 	cmp	r1, #10
    9964:	32811030 	addcc	r1, r1, #48	; 0x30
    9968:	22811057 	addcs	r1, r1, #87	; 0x57
    996c:	e3350000 	teq	r5, #0
    9970:	17c51007 	strbne	r1, [r5, r7]
    9974:	e2877001 	add	r7, r7, #1
    9978:	e3500000 	cmp	r0, #0
    997c:	8afffff5 	bhi	9958 <ConversionLoop$>
    9980:	e3350000 	teq	r5, #0
    9984:	11a00005 	movne	r0, r5
    9988:	11a01007 	movne	r1, r7
    998c:	1b000001 	blne	9998 <ReverseString>
    9990:	e1a00007 	mov	r0, r7
    9994:	e8bd9ff0 	pop	{r4, r5, r6, r7, r8, r9, sl, fp, ip, pc}

00009998 <ReverseString>:
    9998:	e0801001 	add	r1, r0, r1
    999c:	e2411001 	sub	r1, r1, #1

000099a0 <ReversionLoop$>:
    99a0:	e1510000 	cmp	r1, r0
    99a4:	91a0f00e 	movls	pc, lr
    99a8:	e5d02000 	ldrb	r2, [r0]
    99ac:	e5d13000 	ldrb	r3, [r1]
    99b0:	e5c03000 	strb	r3, [r0]
    99b4:	e5c12000 	strb	r2, [r1]
    99b8:	e2800001 	add	r0, r0, #1
    99bc:	e2411001 	sub	r1, r1, #1
    99c0:	eafffff6 	b	99a0 <ReversionLoop$>

000099c4 <FormatString>:
    99c4:	e92d43f0 	push	{r4, r5, r6, r7, r8, r9, lr}
    99c8:	e1a04000 	mov	r4, r0
    99cc:	e1a05001 	mov	r5, r1
    99d0:	e1a06002 	mov	r6, r2
    99d4:	e1a07003 	mov	r7, r3
    99d8:	e28d801c 	add	r8, sp, #28
    99dc:	e3a09000 	mov	r9, #0

000099e0 <formatLoop$>:
    99e0:	e2555001 	subs	r5, r5, #1
    99e4:	b1a00009 	movlt	r0, r9
    99e8:	b8bd83f0 	poplt	{r4, r5, r6, r7, r8, r9, pc}
    99ec:	e5d40000 	ldrb	r0, [r4]
    99f0:	e2844001 	add	r4, r4, #1
    99f4:	e3300025 	teq	r0, #37	; 0x25
    99f8:	0a000004 	beq	9a10 <formatArg$>

000099fc <formatChar$>:
    99fc:	e3360000 	teq	r6, #0
    9a00:	15c60000 	strbne	r0, [r6]
    9a04:	12866001 	addne	r6, r6, #1
    9a08:	e2899001 	add	r9, r9, #1
    9a0c:	eafffff3 	b	99e0 <formatLoop$>

00009a10 <formatArg$>:
    9a10:	e2555001 	subs	r5, r5, #1
    9a14:	b1a00009 	movlt	r0, r9
    9a18:	b8bd83f0 	poplt	{r4, r5, r6, r7, r8, r9, pc}
    9a1c:	e5d40000 	ldrb	r0, [r4]
    9a20:	e2844001 	add	r4, r4, #1
    9a24:	e3300025 	teq	r0, #37	; 0x25
    9a28:	0afffff3 	beq	99fc <formatChar$>
    9a2c:	e3300063 	teq	r0, #99	; 0x63
    9a30:	01a00007 	moveq	r0, r7
    9a34:	05987000 	ldreq	r7, [r8]
    9a38:	02888004 	addeq	r8, r8, #4
    9a3c:	0affffee 	beq	99fc <formatChar$>
    9a40:	e3300073 	teq	r0, #115	; 0x73
    9a44:	0a000007 	beq	9a68 <formatString$>
    9a48:	e3300064 	teq	r0, #100	; 0x64
    9a4c:	0a000010 	beq	9a94 <formatSigned$>
    9a50:	e3300075 	teq	r0, #117	; 0x75
    9a54:	13300078 	teqne	r0, #120	; 0x78
    9a58:	13300062 	teqne	r0, #98	; 0x62
    9a5c:	1330006f 	teqne	r0, #111	; 0x6f
    9a60:	0a000015 	beq	9abc <formatUnsigned$>
    9a64:	eaffffdd 	b	99e0 <formatLoop$>

00009a68 <formatString$>:
    9a68:	e5d70000 	ldrb	r0, [r7]
    9a6c:	e3300000 	teq	r0, #0
    9a70:	05987000 	ldreq	r7, [r8]
    9a74:	02888004 	addeq	r8, r8, #4
    9a78:	0affffd8 	beq	99e0 <formatLoop$>
    9a7c:	e2899001 	add	r9, r9, #1
    9a80:	e3360000 	teq	r6, #0
    9a84:	15c60000 	strbne	r0, [r6]
    9a88:	12866001 	addne	r6, r6, #1
    9a8c:	e2877001 	add	r7, r7, #1
    9a90:	eafffff4 	b	9a68 <formatString$>

00009a94 <formatSigned$>:
    9a94:	e1a00007 	mov	r0, r7
    9a98:	e5987000 	ldr	r7, [r8]
    9a9c:	e2888004 	add	r8, r8, #4
    9aa0:	e1a01006 	mov	r1, r6
    9aa4:	e3a0200a 	mov	r2, #10
    9aa8:	ebffff95 	bl	9904 <SignedString>
    9aac:	e3360000 	teq	r6, #0
    9ab0:	10866000 	addne	r6, r6, r0
    9ab4:	e0899000 	add	r9, r9, r0
    9ab8:	eaffffc8 	b	99e0 <formatLoop$>

00009abc <formatUnsigned$>:
    9abc:	e3300075 	teq	r0, #117	; 0x75
    9ac0:	03a0200a 	moveq	r2, #10
    9ac4:	e3300078 	teq	r0, #120	; 0x78
    9ac8:	03a02010 	moveq	r2, #16
    9acc:	e3300062 	teq	r0, #98	; 0x62
    9ad0:	03a02002 	moveq	r2, #2
    9ad4:	e330006f 	teq	r0, #111	; 0x6f
    9ad8:	03a02008 	moveq	r2, #8
    9adc:	e1a00007 	mov	r0, r7
    9ae0:	e5987000 	ldr	r7, [r8]
    9ae4:	e2888004 	add	r8, r8, #4
    9ae8:	e1a01006 	mov	r1, r6
    9aec:	ebffff94 	bl	9944 <UnsignedString>
    9af0:	e3360000 	teq	r6, #0
    9af4:	10866000 	addne	r6, r6, r0
    9af8:	e0899000 	add	r9, r9, r0
    9afc:	eaffffb7 	b	99e0 <formatLoop$>

00009b00 <timerWait>:
    9b00:	e52d3004 	push	{r3}		; (str r3, [sp, #-4]!)
    9b04:	e1a03000 	mov	r3, r0
    9b08:	e59f2018 	ldr	r2, [pc, #24]	; 9b28 <timerWaitLoop$+0x14>
    9b0c:	e1c200d0 	ldrd	r0, [r2]
    9b10:	e0833000 	add	r3, r3, r0

00009b14 <timerWaitLoop$>:
    9b14:	e1c200d0 	ldrd	r0, [r2]
    9b18:	e1530000 	cmp	r3, r0
    9b1c:	8afffffc 	bhi	9b14 <timerWaitLoop$>
    9b20:	e49d3004 	pop	{r3}		; (ldr r3, [sp], #4)
    9b24:	e1a0f00e 	mov	pc, lr
    9b28:	20003004 	.word	0x20003004

00009b2c <SetForeColour>:
    9b2c:	e3500801 	cmp	r0, #65536	; 0x10000
    9b30:	21a0f00e 	movcs	pc, lr
    9b34:	e59f11d4 	ldr	r1, [pc, #468]	; 9d10 <stringLoopTab$+0x14>
    9b38:	e1c100b0 	strh	r0, [r1]
    9b3c:	e1a0f00e 	mov	pc, lr

00009b40 <SetGraphicsAddress>:
    9b40:	e59f11cc 	ldr	r1, [pc, #460]	; 9d14 <stringLoopTab$+0x18>
    9b44:	e5810000 	str	r0, [r1]
    9b48:	e1a0f00e 	mov	pc, lr

00009b4c <DrawPixel>:
    9b4c:	e59f21c0 	ldr	r2, [pc, #448]	; 9d14 <stringLoopTab$+0x18>
    9b50:	e5922000 	ldr	r2, [r2]
    9b54:	e5923004 	ldr	r3, [r2, #4]
    9b58:	e1510003 	cmp	r1, r3
    9b5c:	21a0f00e 	movcs	pc, lr
    9b60:	e5923000 	ldr	r3, [r2]
    9b64:	e1500003 	cmp	r0, r3
    9b68:	21a0f00e 	movcs	pc, lr
    9b6c:	e5922020 	ldr	r2, [r2, #32]
    9b70:	e0200391 	mla	r0, r1, r3, r0
    9b74:	e0822080 	add	r2, r2, r0, lsl #1
    9b78:	e59f3190 	ldr	r3, [pc, #400]	; 9d10 <stringLoopTab$+0x14>
    9b7c:	e1d330b0 	ldrh	r3, [r3]
    9b80:	e1c230b0 	strh	r3, [r2]
    9b84:	e1a0f00e 	mov	pc, lr

00009b88 <DrawLine>:
    9b88:	e92d5ff0 	push	{r4, r5, r6, r7, r8, r9, sl, fp, ip, lr}
    9b8c:	e1a09000 	mov	r9, r0
    9b90:	e1a0a002 	mov	sl, r2
    9b94:	e1a0b001 	mov	fp, r1
    9b98:	e1a0c003 	mov	ip, r3
    9b9c:	e159000a 	cmp	r9, sl
    9ba0:	c049400a 	subgt	r4, r9, sl
    9ba4:	c3e06000 	mvngt	r6, #0
    9ba8:	d04a4009 	suble	r4, sl, r9
    9bac:	d3a06001 	movle	r6, #1
    9bb0:	e15b000c 	cmp	fp, ip
    9bb4:	c04c500b 	subgt	r5, ip, fp
    9bb8:	c3e07000 	mvngt	r7, #0
    9bbc:	d04b500c 	suble	r5, fp, ip
    9bc0:	d3a07001 	movle	r7, #1
    9bc4:	e0848005 	add	r8, r4, r5
    9bc8:	e08aa006 	add	sl, sl, r6
    9bcc:	e08cc007 	add	ip, ip, r7

00009bd0 <pixelLoop$>:
    9bd0:	e139000a 	teq	r9, sl
    9bd4:	113b000c 	teqne	fp, ip
    9bd8:	08bd9ff0 	popeq	{r4, r5, r6, r7, r8, r9, sl, fp, ip, pc}
    9bdc:	e1a00009 	mov	r0, r9
    9be0:	e1a0100b 	mov	r1, fp
    9be4:	ebffffd8 	bl	9b4c <DrawPixel>
    9be8:	e1550088 	cmp	r5, r8, lsl #1
    9bec:	d0888005 	addle	r8, r8, r5
    9bf0:	d0899006 	addle	r9, r9, r6
    9bf4:	e1540088 	cmp	r4, r8, lsl #1
    9bf8:	a0888004 	addge	r8, r8, r4
    9bfc:	a08bb007 	addge	fp, fp, r7
    9c00:	eafffff2 	b	9bd0 <pixelLoop$>

00009c04 <DrawByte>:
    9c04:	e20000ff 	and	r0, r0, #255	; 0xff
    9c08:	e3510b01 	cmp	r1, #1024	; 0x400
    9c0c:	33520c03 	cmpcc	r2, #768	; 0x300
    9c10:	21a0f00e 	movcs	pc, lr
    9c14:	e92d40f0 	push	{r4, r5, r6, r7, lr}
    9c18:	e1a04000 	mov	r4, r0
    9c1c:	e1a05001 	mov	r5, r1
    9c20:	e1a06002 	mov	r6, r2
    9c24:	e3a07000 	mov	r7, #0

00009c28 <DrawByteLoop$>:
    9c28:	e3140001 	tst	r4, #1
    9c2c:	10850007 	addne	r0, r5, r7
    9c30:	11a01006 	movne	r1, r6
    9c34:	1bffffc4 	blne	9b4c <DrawPixel>
    9c38:	e1a040a4 	lsr	r4, r4, #1
    9c3c:	e2877001 	add	r7, r7, #1
    9c40:	e3370008 	teq	r7, #8
    9c44:	1afffff7 	bne	9c28 <DrawByteLoop$>
    9c48:	e8bd80f0 	pop	{r4, r5, r6, r7, pc}

00009c4c <DrawCharacter>:
    9c4c:	e350007f 	cmp	r0, #127	; 0x7f
    9c50:	81a0f00e 	movhi	pc, lr
    9c54:	e3510b01 	cmp	r1, #1024	; 0x400
    9c58:	33520c03 	cmpcc	r2, #768	; 0x300
    9c5c:	21a0f00e 	movcs	pc, lr
    9c60:	e92d40f0 	push	{r4, r5, r6, r7, lr}
    9c64:	e1a04001 	mov	r4, r1
    9c68:	e1a05002 	mov	r5, r2
    9c6c:	e59f60a4 	ldr	r6, [pc, #164]	; 9d18 <stringLoopTab$+0x1c>
    9c70:	e0866200 	add	r6, r6, r0, lsl #4

00009c74 <DrawCharacterLewp$>:
    9c74:	e5d60000 	ldrb	r0, [r6]
    9c78:	e1a01004 	mov	r1, r4
    9c7c:	e1a02005 	mov	r2, r5
    9c80:	ebffffdf 	bl	9c04 <DrawByte>
    9c84:	e2855001 	add	r5, r5, #1
    9c88:	e2866001 	add	r6, r6, #1
    9c8c:	e316000f 	tst	r6, #15
    9c90:	1afffff7 	bne	9c74 <DrawCharacterLewp$>
    9c94:	e3a00008 	mov	r0, #8
    9c98:	e3a01010 	mov	r1, #16
    9c9c:	e8bd80f0 	pop	{r4, r5, r6, r7, pc}

00009ca0 <DrawString>:
    9ca0:	e92d43f0 	push	{r4, r5, r6, r7, r8, r9, lr}
    9ca4:	e1a04000 	mov	r4, r0
    9ca8:	e1a07001 	mov	r7, r1
    9cac:	e1a05002 	mov	r5, r2
    9cb0:	e1a06003 	mov	r6, r3
    9cb4:	e1a08005 	mov	r8, r5

00009cb8 <DrawStringLoop$>:
    9cb8:	e2577001 	subs	r7, r7, #1
    9cbc:	b8bd83f0 	poplt	{r4, r5, r6, r7, r8, r9, pc}
    9cc0:	e5d49000 	ldrb	r9, [r4]
    9cc4:	e1a00009 	mov	r0, r9
    9cc8:	e1a01005 	mov	r1, r5
    9ccc:	e1a02006 	mov	r2, r6
    9cd0:	ebffffdd 	bl	9c4c <DrawCharacter>
    9cd4:	e2844001 	add	r4, r4, #1
    9cd8:	e339000a 	teq	r9, #10
    9cdc:	00866001 	addeq	r6, r6, r1
    9ce0:	01a05008 	moveq	r5, r8
    9ce4:	0afffff3 	beq	9cb8 <DrawStringLoop$>
    9ce8:	e3390009 	teq	r9, #9
    9cec:	10855000 	addne	r5, r5, r0
    9cf0:	1afffff0 	bne	9cb8 <DrawStringLoop$>
    9cf4:	e0800100 	add	r0, r0, r0, lsl #2
    9cf8:	e1a01008 	mov	r1, r8

00009cfc <stringLoopTab$>:
    9cfc:	e0811000 	add	r1, r1, r0
    9d00:	e1550001 	cmp	r5, r1
    9d04:	aafffffc 	bge	9cfc <stringLoopTab$>
    9d08:	e1a05001 	mov	r5, r1
    9d0c:	eaffffe9 	b	9cb8 <DrawStringLoop$>
    9d10:	00008070 	.word	0x00008070
    9d14:	00008074 	.word	0x00008074
    9d18:	00008080 	.word	0x00008080

00009d1c <SetGpioFunction>:
    9d1c:	e3500035 	cmp	r0, #53	; 0x35
    9d20:	93510007 	cmpls	r1, #7
    9d24:	81a0f00e 	movhi	pc, lr
    9d28:	e1a02000 	mov	r2, r0
    9d2c:	e59f0088 	ldr	r0, [pc, #136]	; 9dbc <SetGpio+0x50>

00009d30 <functionLoop$>:
    9d30:	e3520009 	cmp	r2, #9
    9d34:	8242200a 	subhi	r2, r2, #10
    9d38:	82800004 	addhi	r0, r0, #4
    9d3c:	8afffffb 	bhi	9d30 <functionLoop$>
    9d40:	e0822082 	add	r2, r2, r2, lsl #1
    9d44:	e1a01211 	lsl	r1, r1, r2
    9d48:	e3a03007 	mov	r3, #7
    9d4c:	e1a03213 	lsl	r3, r3, r2
    9d50:	e52d4004 	push	{r4}		; (str r4, [sp, #-4]!)
    9d54:	e5904000 	ldr	r4, [r0]
    9d58:	e1c44003 	bic	r4, r4, r3
    9d5c:	e1811004 	orr	r1, r1, r4
    9d60:	e5801000 	str	r1, [r0]
    9d64:	e49d4004 	pop	{r4}		; (ldr r4, [sp], #4)
    9d68:	e1a0f00e 	mov	pc, lr

00009d6c <SetGpio>:
    9d6c:	e3500035 	cmp	r0, #53	; 0x35
    9d70:	81a0f00e 	movhi	pc, lr
    9d74:	e1a02000 	mov	r2, r0
    9d78:	e59f003c 	ldr	r0, [pc, #60]	; 9dbc <SetGpio+0x50>
    9d7c:	e1a032a2 	lsr	r3, r2, #5
    9d80:	e1a03103 	lsl	r3, r3, #2
    9d84:	e0800003 	add	r0, r0, r3
    9d88:	e202201f 	and	r2, r2, #31
    9d8c:	e3a03001 	mov	r3, #1
    9d90:	e1a03213 	lsl	r3, r3, r2
    9d94:	e52d4004 	push	{r4}		; (str r4, [sp, #-4]!)
    9d98:	e3310000 	teq	r1, #0
    9d9c:	05904028 	ldreq	r4, [r0, #40]	; 0x28
    9da0:	1590401c 	ldrne	r4, [r0, #28]
    9da4:	e1833004 	orr	r3, r3, r4
    9da8:	e3310000 	teq	r1, #0
    9dac:	05803028 	streq	r3, [r0, #40]	; 0x28
    9db0:	1580301c 	strne	r3, [r0, #28]
    9db4:	e49d4004 	pop	{r4}		; (ldr r4, [sp], #4)
    9db8:	e1a0f00e 	mov	pc, lr
    9dbc:	20200000 	.word	0x20200000

00009dc0 <Random>:
    9dc0:	e3a01cef 	mov	r1, #61184	; 0xef00
    9dc4:	e0010190 	mul	r1, r0, r1
    9dc8:	e0010190 	mul	r1, r0, r1
    9dcc:	e0811000 	add	r1, r1, r0
    9dd0:	e2810049 	add	r0, r1, #73	; 0x49
    9dd4:	e1a0f00e 	mov	pc, lr

00009dd8 <DivideU32>:
    9dd8:	e16f2f11 	clz	r2, r1
    9ddc:	e16f3f10 	clz	r3, r0
    9de0:	e0522003 	subs	r2, r2, r3
    9de4:	e1a03211 	lsl	r3, r1, r2
    9de8:	e1a01000 	mov	r1, r0
    9dec:	e3a00000 	mov	r0, #0
    9df0:	ba000009 	blt	9e1c <divideU32Return$>

00009df4 <divideU32Loop$>:
    9df4:	e1510003 	cmp	r1, r3
    9df8:	ba000003 	blt	9e0c <divideU32LoopContinue$>
    9dfc:	e2800001 	add	r0, r0, #1
    9e00:	e0511003 	subs	r1, r1, r3
    9e04:	01a00210 	lsleq	r0, r0, r2
    9e08:	0a000003 	beq	9e1c <divideU32Return$>

00009e0c <divideU32LoopContinue$>:
    9e0c:	e2522001 	subs	r2, r2, #1
    9e10:	a1a030a3 	lsrge	r3, r3, #1
    9e14:	a1a00080 	lslge	r0, r0, #1
    9e18:	aafffff5 	bge	9df4 <divideU32Loop$>

00009e1c <divideU32Return$>:
    9e1c:	e1a0f00e 	mov	pc, lr

00009e20 <USPiInitialize>:
    9e20:	e92d47f0 	push	{r4, r5, r6, r7, r8, r9, sl, lr}
    9e24:	e24dd010 	sub	sp, sp, #16
    9e28:	e59f3210 	ldr	r3, [pc, #528]	; a040 <USPiInitialize+0x220>
    9e2c:	e5933000 	ldr	r3, [r3]
    9e30:	e3530000 	cmp	r3, #0
    9e34:	0a000003 	beq	9e48 <USPiInitialize+0x28>
    9e38:	e3a02022 	mov	r2, #34	; 0x22
    9e3c:	e59f1200 	ldr	r1, [pc, #512]	; a044 <USPiInitialize+0x224>
    9e40:	e59f0200 	ldr	r0, [pc, #512]	; a048 <USPiInitialize+0x228>
    9e44:	eb003e90 	bl	1988c <uspi_assertion_failed>
    9e48:	e3a00088 	mov	r0, #136	; 0x88
    9e4c:	eb003667 	bl	177f0 <malloc>
    9e50:	e59f31e8 	ldr	r3, [pc, #488]	; a040 <USPiInitialize+0x220>
    9e54:	e5830000 	str	r0, [r3]
    9e58:	e3500000 	cmp	r0, #0
    9e5c:	1a000003 	bne	9e70 <USPiInitialize+0x50>
    9e60:	e3a02024 	mov	r2, #36	; 0x24
    9e64:	e59f11d8 	ldr	r1, [pc, #472]	; a044 <USPiInitialize+0x224>
    9e68:	e59f01dc 	ldr	r0, [pc, #476]	; a04c <USPiInitialize+0x22c>
    9e6c:	eb003e86 	bl	1988c <uspi_assertion_failed>
    9e70:	e59f41c8 	ldr	r4, [pc, #456]	; a040 <USPiInitialize+0x220>
    9e74:	e5940000 	ldr	r0, [r4]
    9e78:	eb0017a9 	bl	fd24 <DeviceNameService>
    9e7c:	e5940000 	ldr	r0, [r4]
    9e80:	e2800004 	add	r0, r0, #4
    9e84:	eb000336 	bl	ab64 <DWHCIDevice>
    9e88:	e5940000 	ldr	r0, [r4]
    9e8c:	e3a03000 	mov	r3, #0
    9e90:	e5803070 	str	r3, [r0, #112]	; 0x70
    9e94:	e2800004 	add	r0, r0, #4
    9e98:	eb000bb8 	bl	cd80 <DWHCIDeviceInitialize>
    9e9c:	e2504000 	subs	r4, r0, #0
    9ea0:	1a00000e 	bne	9ee0 <USPiInitialize+0xc0>
    9ea4:	e59f21a4 	ldr	r2, [pc, #420]	; a050 <USPiInitialize+0x230>
    9ea8:	e3a01001 	mov	r1, #1
    9eac:	e59f01a0 	ldr	r0, [pc, #416]	; a054 <USPiInitialize+0x234>
    9eb0:	eb003e63 	bl	19844 <LogWrite>
    9eb4:	e59f5184 	ldr	r5, [pc, #388]	; a040 <USPiInitialize+0x220>
    9eb8:	e5950000 	ldr	r0, [r5]
    9ebc:	e2800004 	add	r0, r0, #4
    9ec0:	eb00033e 	bl	abc0 <_DWHCIDevice>
    9ec4:	e5950000 	ldr	r0, [r5]
    9ec8:	eb0017ad 	bl	fd84 <_DeviceNameService>
    9ecc:	e5950000 	ldr	r0, [r5]
    9ed0:	eb0036af 	bl	17994 <free>
    9ed4:	e3a03000 	mov	r3, #0
    9ed8:	e5853000 	str	r3, [r5]
    9edc:	ea000054 	b	a034 <USPiInitialize+0x214>
    9ee0:	e59f4158 	ldr	r4, [pc, #344]	; a040 <USPiInitialize+0x220>
    9ee4:	e5945000 	ldr	r5, [r4]
    9ee8:	eb001841 	bl	fff4 <DeviceNameServiceGet>
    9eec:	e3a02000 	mov	r2, #0
    9ef0:	e59f1160 	ldr	r1, [pc, #352]	; a058 <USPiInitialize+0x238>
    9ef4:	eb001805 	bl	ff10 <DeviceNameServiceGetDevice>
    9ef8:	e5850058 	str	r0, [r5, #88]	; 0x58
    9efc:	e5945000 	ldr	r5, [r4]
    9f00:	eb00183b 	bl	fff4 <DeviceNameServiceGet>
    9f04:	e3a02000 	mov	r2, #0
    9f08:	e59f114c 	ldr	r1, [pc, #332]	; a05c <USPiInitialize+0x23c>
    9f0c:	eb0017ff 	bl	ff10 <DeviceNameServiceGetDevice>
    9f10:	e585005c 	str	r0, [r5, #92]	; 0x5c
    9f14:	e5944000 	ldr	r4, [r4]
    9f18:	eb001835 	bl	fff4 <DeviceNameServiceGet>
    9f1c:	e3a02000 	mov	r2, #0
    9f20:	e59f1138 	ldr	r1, [pc, #312]	; a060 <USPiInitialize+0x240>
    9f24:	eb0017f9 	bl	ff10 <DeviceNameServiceGetDevice>
    9f28:	e5840084 	str	r0, [r4, #132]	; 0x84
    9f2c:	e3a04000 	mov	r4, #0
    9f30:	e59fa12c 	ldr	sl, [pc, #300]	; a064 <USPiInitialize+0x244>
    9f34:	e59f9104 	ldr	r9, [pc, #260]	; a040 <USPiInitialize+0x220>
    9f38:	e3a08001 	mov	r8, #1
    9f3c:	e28d0004 	add	r0, sp, #4
    9f40:	eb001bfd 	bl	10f3c <String>
    9f44:	e2845001 	add	r5, r4, #1
    9f48:	e1a02005 	mov	r2, r5
    9f4c:	e1a0100a 	mov	r1, sl
    9f50:	e28d0004 	add	r0, sp, #4
    9f54:	eb001e85 	bl	11970 <StringFormat>
    9f58:	e5996000 	ldr	r6, [r9]
    9f5c:	eb001824 	bl	fff4 <DeviceNameServiceGet>
    9f60:	e1a07000 	mov	r7, r0
    9f64:	e28d0004 	add	r0, sp, #4
    9f68:	eb001c23 	bl	10ffc <StringGet>
    9f6c:	e1a02008 	mov	r2, r8
    9f70:	e1a01000 	mov	r1, r0
    9f74:	e1a00007 	mov	r0, r7
    9f78:	eb0017e4 	bl	ff10 <DeviceNameServiceGetDevice>
    9f7c:	e2844018 	add	r4, r4, #24
    9f80:	e7860104 	str	r0, [r6, r4, lsl #2]
    9f84:	e28d0004 	add	r0, sp, #4
    9f88:	eb001c0b 	bl	10fbc <_String>
    9f8c:	e1a04005 	mov	r4, r5
    9f90:	e3550004 	cmp	r5, #4
    9f94:	1affffe8 	bne	9f3c <USPiInitialize+0x11c>
    9f98:	e59f30a0 	ldr	r3, [pc, #160]	; a040 <USPiInitialize+0x220>
    9f9c:	e5934000 	ldr	r4, [r3]
    9fa0:	eb001813 	bl	fff4 <DeviceNameServiceGet>
    9fa4:	e3a02000 	mov	r2, #0
    9fa8:	e59f10b8 	ldr	r1, [pc, #184]	; a068 <USPiInitialize+0x248>
    9fac:	eb0017d7 	bl	ff10 <DeviceNameServiceGetDevice>
    9fb0:	e5840070 	str	r0, [r4, #112]	; 0x70
    9fb4:	e3a06000 	mov	r6, #0
    9fb8:	e59fa0ac 	ldr	sl, [pc, #172]	; a06c <USPiInitialize+0x24c>
    9fbc:	e59f907c 	ldr	r9, [pc, #124]	; a040 <USPiInitialize+0x220>
    9fc0:	e1a08006 	mov	r8, r6
    9fc4:	e28d0004 	add	r0, sp, #4
    9fc8:	eb001bdb 	bl	10f3c <String>
    9fcc:	e2864001 	add	r4, r6, #1
    9fd0:	e1a02004 	mov	r2, r4
    9fd4:	e1a0100a 	mov	r1, sl
    9fd8:	e28d0004 	add	r0, sp, #4
    9fdc:	eb001e63 	bl	11970 <StringFormat>
    9fe0:	e5995000 	ldr	r5, [r9]
    9fe4:	eb001802 	bl	fff4 <DeviceNameServiceGet>
    9fe8:	e1a07000 	mov	r7, r0
    9fec:	e28d0004 	add	r0, sp, #4
    9ff0:	eb001c01 	bl	10ffc <StringGet>
    9ff4:	e1a02008 	mov	r2, r8
    9ff8:	e1a01000 	mov	r1, r0
    9ffc:	e1a00007 	mov	r0, r7
    a000:	eb0017c2 	bl	ff10 <DeviceNameServiceGetDevice>
    a004:	e0855106 	add	r5, r5, r6, lsl #2
    a008:	e5850074 	str	r0, [r5, #116]	; 0x74
    a00c:	e28d0004 	add	r0, sp, #4
    a010:	eb001be9 	bl	10fbc <_String>
    a014:	e1a06004 	mov	r6, r4
    a018:	e3540004 	cmp	r4, #4
    a01c:	1affffe8 	bne	9fc4 <USPiInitialize+0x1a4>
    a020:	e59f2048 	ldr	r2, [pc, #72]	; a070 <USPiInitialize+0x250>
    a024:	e3a01004 	mov	r1, #4
    a028:	e59f0024 	ldr	r0, [pc, #36]	; a054 <USPiInitialize+0x234>
    a02c:	eb003e04 	bl	19844 <LogWrite>
    a030:	e3a04001 	mov	r4, #1
    a034:	e1a00004 	mov	r0, r4
    a038:	e28dd010 	add	sp, sp, #16
    a03c:	e8bd87f0 	pop	{r4, r5, r6, r7, r8, r9, sl, pc}
    a040:	00008920 	.word	0x00008920
    a044:	0001b38c 	.word	0x0001b38c
    a048:	0001b39c 	.word	0x0001b39c
    a04c:	0001b3ac 	.word	0x0001b3ac
    a050:	0001b3bc 	.word	0x0001b3bc
    a054:	0001b384 	.word	0x0001b384
    a058:	0001b3ec 	.word	0x0001b3ec
    a05c:	0001b3f4 	.word	0x0001b3f4
    a060:	0001b3fc 	.word	0x0001b3fc
    a064:	0001b404 	.word	0x0001b404
    a068:	0001b40c 	.word	0x0001b40c
    a06c:	0001b414 	.word	0x0001b414
    a070:	0001b41c 	.word	0x0001b41c

0000a074 <USPiKeyboardAvailable>:
    a074:	e92d4010 	push	{r4, lr}
    a078:	e59f3030 	ldr	r3, [pc, #48]	; a0b0 <USPiKeyboardAvailable+0x3c>
    a07c:	e5933000 	ldr	r3, [r3]
    a080:	e3530000 	cmp	r3, #0
    a084:	1a000003 	bne	a098 <USPiKeyboardAvailable+0x24>
    a088:	e3a0205d 	mov	r2, #93	; 0x5d
    a08c:	e59f1020 	ldr	r1, [pc, #32]	; a0b4 <USPiKeyboardAvailable+0x40>
    a090:	e59f0020 	ldr	r0, [pc, #32]	; a0b8 <USPiKeyboardAvailable+0x44>
    a094:	eb003dfc 	bl	1988c <uspi_assertion_failed>
    a098:	e59f3010 	ldr	r3, [pc, #16]	; a0b0 <USPiKeyboardAvailable+0x3c>
    a09c:	e5933000 	ldr	r3, [r3]
    a0a0:	e5930058 	ldr	r0, [r3, #88]	; 0x58
    a0a4:	e2900000 	adds	r0, r0, #0
    a0a8:	13a00001 	movne	r0, #1
    a0ac:	e8bd8010 	pop	{r4, pc}
    a0b0:	00008920 	.word	0x00008920
    a0b4:	0001b38c 	.word	0x0001b38c
    a0b8:	0001b3ac 	.word	0x0001b3ac

0000a0bc <USPiKeyboardRegisterKeyPressedHandler>:
    a0bc:	e92d4010 	push	{r4, lr}
    a0c0:	e1a04000 	mov	r4, r0
    a0c4:	e59f3054 	ldr	r3, [pc, #84]	; a120 <USPiKeyboardRegisterKeyPressedHandler+0x64>
    a0c8:	e5933000 	ldr	r3, [r3]
    a0cc:	e3530000 	cmp	r3, #0
    a0d0:	1a000003 	bne	a0e4 <USPiKeyboardRegisterKeyPressedHandler+0x28>
    a0d4:	e3a02063 	mov	r2, #99	; 0x63
    a0d8:	e59f1044 	ldr	r1, [pc, #68]	; a124 <USPiKeyboardRegisterKeyPressedHandler+0x68>
    a0dc:	e59f0044 	ldr	r0, [pc, #68]	; a128 <USPiKeyboardRegisterKeyPressedHandler+0x6c>
    a0e0:	eb003de9 	bl	1988c <uspi_assertion_failed>
    a0e4:	e59f3034 	ldr	r3, [pc, #52]	; a120 <USPiKeyboardRegisterKeyPressedHandler+0x64>
    a0e8:	e5933000 	ldr	r3, [r3]
    a0ec:	e5933058 	ldr	r3, [r3, #88]	; 0x58
    a0f0:	e3530000 	cmp	r3, #0
    a0f4:	1a000003 	bne	a108 <USPiKeyboardRegisterKeyPressedHandler+0x4c>
    a0f8:	e3a02064 	mov	r2, #100	; 0x64
    a0fc:	e59f1020 	ldr	r1, [pc, #32]	; a124 <USPiKeyboardRegisterKeyPressedHandler+0x68>
    a100:	e59f0024 	ldr	r0, [pc, #36]	; a12c <USPiKeyboardRegisterKeyPressedHandler+0x70>
    a104:	eb003de0 	bl	1988c <uspi_assertion_failed>
    a108:	e59f3010 	ldr	r3, [pc, #16]	; a120 <USPiKeyboardRegisterKeyPressedHandler+0x64>
    a10c:	e5933000 	ldr	r3, [r3]
    a110:	e1a01004 	mov	r1, r4
    a114:	e5930058 	ldr	r0, [r3, #88]	; 0x58
    a118:	eb0025ad 	bl	137d4 <USBKeyboardDeviceRegisterKeyPressedHandler>
    a11c:	e8bd8010 	pop	{r4, pc}
    a120:	00008920 	.word	0x00008920
    a124:	0001b38c 	.word	0x0001b38c
    a128:	0001b3ac 	.word	0x0001b3ac
    a12c:	0001b444 	.word	0x0001b444

0000a130 <USPiKeyboardRegisterShutdownHandler>:
    a130:	e92d4010 	push	{r4, lr}
    a134:	e1a04000 	mov	r4, r0
    a138:	e59f3054 	ldr	r3, [pc, #84]	; a194 <USPiKeyboardRegisterShutdownHandler+0x64>
    a13c:	e5933000 	ldr	r3, [r3]
    a140:	e3530000 	cmp	r3, #0
    a144:	1a000003 	bne	a158 <USPiKeyboardRegisterShutdownHandler+0x28>
    a148:	e3a0206a 	mov	r2, #106	; 0x6a
    a14c:	e59f1044 	ldr	r1, [pc, #68]	; a198 <USPiKeyboardRegisterShutdownHandler+0x68>
    a150:	e59f0044 	ldr	r0, [pc, #68]	; a19c <USPiKeyboardRegisterShutdownHandler+0x6c>
    a154:	eb003dcc 	bl	1988c <uspi_assertion_failed>
    a158:	e59f3034 	ldr	r3, [pc, #52]	; a194 <USPiKeyboardRegisterShutdownHandler+0x64>
    a15c:	e5933000 	ldr	r3, [r3]
    a160:	e5933058 	ldr	r3, [r3, #88]	; 0x58
    a164:	e3530000 	cmp	r3, #0
    a168:	1a000003 	bne	a17c <USPiKeyboardRegisterShutdownHandler+0x4c>
    a16c:	e3a0206b 	mov	r2, #107	; 0x6b
    a170:	e59f1020 	ldr	r1, [pc, #32]	; a198 <USPiKeyboardRegisterShutdownHandler+0x68>
    a174:	e59f0024 	ldr	r0, [pc, #36]	; a1a0 <USPiKeyboardRegisterShutdownHandler+0x70>
    a178:	eb003dc3 	bl	1988c <uspi_assertion_failed>
    a17c:	e59f3010 	ldr	r3, [pc, #16]	; a194 <USPiKeyboardRegisterShutdownHandler+0x64>
    a180:	e5933000 	ldr	r3, [r3]
    a184:	e1a01004 	mov	r1, r4
    a188:	e5930058 	ldr	r0, [r3, #88]	; 0x58
    a18c:	eb0025b6 	bl	1386c <USBKeyboardDeviceRegisterShutdownHandler>
    a190:	e8bd8010 	pop	{r4, pc}
    a194:	00008920 	.word	0x00008920
    a198:	0001b38c 	.word	0x0001b38c
    a19c:	0001b3ac 	.word	0x0001b3ac
    a1a0:	0001b444 	.word	0x0001b444

0000a1a4 <USPiKeyboardRegisterKeyStatusHandlerRaw>:
    a1a4:	e92d4010 	push	{r4, lr}
    a1a8:	e1a04000 	mov	r4, r0
    a1ac:	e59f3054 	ldr	r3, [pc, #84]	; a208 <USPiKeyboardRegisterKeyStatusHandlerRaw+0x64>
    a1b0:	e5933000 	ldr	r3, [r3]
    a1b4:	e3530000 	cmp	r3, #0
    a1b8:	1a000003 	bne	a1cc <USPiKeyboardRegisterKeyStatusHandlerRaw+0x28>
    a1bc:	e3a02071 	mov	r2, #113	; 0x71
    a1c0:	e59f1044 	ldr	r1, [pc, #68]	; a20c <USPiKeyboardRegisterKeyStatusHandlerRaw+0x68>
    a1c4:	e59f0044 	ldr	r0, [pc, #68]	; a210 <USPiKeyboardRegisterKeyStatusHandlerRaw+0x6c>
    a1c8:	eb003daf 	bl	1988c <uspi_assertion_failed>
    a1cc:	e59f3034 	ldr	r3, [pc, #52]	; a208 <USPiKeyboardRegisterKeyStatusHandlerRaw+0x64>
    a1d0:	e5933000 	ldr	r3, [r3]
    a1d4:	e5933058 	ldr	r3, [r3, #88]	; 0x58
    a1d8:	e3530000 	cmp	r3, #0
    a1dc:	1a000003 	bne	a1f0 <USPiKeyboardRegisterKeyStatusHandlerRaw+0x4c>
    a1e0:	e3a02072 	mov	r2, #114	; 0x72
    a1e4:	e59f1020 	ldr	r1, [pc, #32]	; a20c <USPiKeyboardRegisterKeyStatusHandlerRaw+0x68>
    a1e8:	e59f0024 	ldr	r0, [pc, #36]	; a214 <USPiKeyboardRegisterKeyStatusHandlerRaw+0x70>
    a1ec:	eb003da6 	bl	1988c <uspi_assertion_failed>
    a1f0:	e59f3010 	ldr	r3, [pc, #16]	; a208 <USPiKeyboardRegisterKeyStatusHandlerRaw+0x64>
    a1f4:	e5933000 	ldr	r3, [r3]
    a1f8:	e1a01004 	mov	r1, r4
    a1fc:	e5930058 	ldr	r0, [r3, #88]	; 0x58
    a200:	eb0025ac 	bl	138b8 <USBKeyboardDeviceRegisterKeyStatusHandlerRaw>
    a204:	e8bd8010 	pop	{r4, pc}
    a208:	00008920 	.word	0x00008920
    a20c:	0001b38c 	.word	0x0001b38c
    a210:	0001b3ac 	.word	0x0001b3ac
    a214:	0001b444 	.word	0x0001b444

0000a218 <USPiMouseAvailable>:
    a218:	e92d4010 	push	{r4, lr}
    a21c:	e59f3030 	ldr	r3, [pc, #48]	; a254 <USPiMouseAvailable+0x3c>
    a220:	e5933000 	ldr	r3, [r3]
    a224:	e3530000 	cmp	r3, #0
    a228:	1a000003 	bne	a23c <USPiMouseAvailable+0x24>
    a22c:	e3a02078 	mov	r2, #120	; 0x78
    a230:	e59f1020 	ldr	r1, [pc, #32]	; a258 <USPiMouseAvailable+0x40>
    a234:	e59f0020 	ldr	r0, [pc, #32]	; a25c <USPiMouseAvailable+0x44>
    a238:	eb003d93 	bl	1988c <uspi_assertion_failed>
    a23c:	e59f3010 	ldr	r3, [pc, #16]	; a254 <USPiMouseAvailable+0x3c>
    a240:	e5933000 	ldr	r3, [r3]
    a244:	e593005c 	ldr	r0, [r3, #92]	; 0x5c
    a248:	e2900000 	adds	r0, r0, #0
    a24c:	13a00001 	movne	r0, #1
    a250:	e8bd8010 	pop	{r4, pc}
    a254:	00008920 	.word	0x00008920
    a258:	0001b38c 	.word	0x0001b38c
    a25c:	0001b3ac 	.word	0x0001b3ac

0000a260 <USPiMouseRegisterStatusHandler>:
    a260:	e92d4010 	push	{r4, lr}
    a264:	e1a04000 	mov	r4, r0
    a268:	e59f3054 	ldr	r3, [pc, #84]	; a2c4 <USPiMouseRegisterStatusHandler+0x64>
    a26c:	e5933000 	ldr	r3, [r3]
    a270:	e3530000 	cmp	r3, #0
    a274:	1a000003 	bne	a288 <USPiMouseRegisterStatusHandler+0x28>
    a278:	e3a0207e 	mov	r2, #126	; 0x7e
    a27c:	e59f1044 	ldr	r1, [pc, #68]	; a2c8 <USPiMouseRegisterStatusHandler+0x68>
    a280:	e59f0044 	ldr	r0, [pc, #68]	; a2cc <USPiMouseRegisterStatusHandler+0x6c>
    a284:	eb003d80 	bl	1988c <uspi_assertion_failed>
    a288:	e59f3034 	ldr	r3, [pc, #52]	; a2c4 <USPiMouseRegisterStatusHandler+0x64>
    a28c:	e5933000 	ldr	r3, [r3]
    a290:	e593305c 	ldr	r3, [r3, #92]	; 0x5c
    a294:	e3530000 	cmp	r3, #0
    a298:	1a000003 	bne	a2ac <USPiMouseRegisterStatusHandler+0x4c>
    a29c:	e3a0207f 	mov	r2, #127	; 0x7f
    a2a0:	e59f1020 	ldr	r1, [pc, #32]	; a2c8 <USPiMouseRegisterStatusHandler+0x68>
    a2a4:	e59f0024 	ldr	r0, [pc, #36]	; a2d0 <USPiMouseRegisterStatusHandler+0x70>
    a2a8:	eb003d77 	bl	1988c <uspi_assertion_failed>
    a2ac:	e59f3010 	ldr	r3, [pc, #16]	; a2c4 <USPiMouseRegisterStatusHandler+0x64>
    a2b0:	e5933000 	ldr	r3, [r3]
    a2b4:	e1a01004 	mov	r1, r4
    a2b8:	e593005c 	ldr	r0, [r3, #92]	; 0x5c
    a2bc:	eb0027c4 	bl	141d4 <USBMouseDeviceRegisterStatusHandler>
    a2c0:	e8bd8010 	pop	{r4, pc}
    a2c4:	00008920 	.word	0x00008920
    a2c8:	0001b38c 	.word	0x0001b38c
    a2cc:	0001b3ac 	.word	0x0001b3ac
    a2d0:	0001b45c 	.word	0x0001b45c

0000a2d4 <USPiMassStorageDeviceAvailable>:
    a2d4:	e92d4010 	push	{r4, lr}
    a2d8:	e59f3070 	ldr	r3, [pc, #112]	; a350 <USPiMassStorageDeviceAvailable+0x7c>
    a2dc:	e5933000 	ldr	r3, [r3]
    a2e0:	e3530000 	cmp	r3, #0
    a2e4:	1a000003 	bne	a2f8 <USPiMassStorageDeviceAvailable+0x24>
    a2e8:	e3a02085 	mov	r2, #133	; 0x85
    a2ec:	e59f1060 	ldr	r1, [pc, #96]	; a354 <USPiMassStorageDeviceAvailable+0x80>
    a2f0:	e59f0060 	ldr	r0, [pc, #96]	; a358 <USPiMassStorageDeviceAvailable+0x84>
    a2f4:	eb003d64 	bl	1988c <uspi_assertion_failed>
    a2f8:	e59f3050 	ldr	r3, [pc, #80]	; a350 <USPiMassStorageDeviceAvailable+0x7c>
    a2fc:	e5933000 	ldr	r3, [r3]
    a300:	e5932060 	ldr	r2, [r3, #96]	; 0x60
    a304:	e3520000 	cmp	r2, #0
    a308:	0a00000e 	beq	a348 <USPiMassStorageDeviceAvailable+0x74>
    a30c:	e5932064 	ldr	r2, [r3, #100]	; 0x64
    a310:	e3520000 	cmp	r2, #0
    a314:	0a000007 	beq	a338 <USPiMassStorageDeviceAvailable+0x64>
    a318:	e5932068 	ldr	r2, [r3, #104]	; 0x68
    a31c:	e3520000 	cmp	r2, #0
    a320:	0a000006 	beq	a340 <USPiMassStorageDeviceAvailable+0x6c>
    a324:	e593006c 	ldr	r0, [r3, #108]	; 0x6c
    a328:	e3500000 	cmp	r0, #0
    a32c:	13a00004 	movne	r0, #4
    a330:	03a00003 	moveq	r0, #3
    a334:	e8bd8010 	pop	{r4, pc}
    a338:	e3a00001 	mov	r0, #1
    a33c:	e8bd8010 	pop	{r4, pc}
    a340:	e3a00002 	mov	r0, #2
    a344:	e8bd8010 	pop	{r4, pc}
    a348:	e3a00000 	mov	r0, #0
    a34c:	e8bd8010 	pop	{r4, pc}
    a350:	00008920 	.word	0x00008920
    a354:	0001b38c 	.word	0x0001b38c
    a358:	0001b3ac 	.word	0x0001b3ac

0000a35c <USPiMassStorageDeviceRead>:
    a35c:	e92d41f0 	push	{r4, r5, r6, r7, r8, lr}
    a360:	e1a06000 	mov	r6, r0
    a364:	e1a07001 	mov	r7, r1
    a368:	e1a05002 	mov	r5, r2
    a36c:	e1a08003 	mov	r8, r3
    a370:	e59d4018 	ldr	r4, [sp, #24]
    a374:	e59f3088 	ldr	r3, [pc, #136]	; a404 <USPiMassStorageDeviceRead+0xa8>
    a378:	e5933000 	ldr	r3, [r3]
    a37c:	e3530000 	cmp	r3, #0
    a380:	1a000003 	bne	a394 <USPiMassStorageDeviceRead+0x38>
    a384:	e3a02095 	mov	r2, #149	; 0x95
    a388:	e59f1078 	ldr	r1, [pc, #120]	; a408 <USPiMassStorageDeviceRead+0xac>
    a38c:	e59f0078 	ldr	r0, [pc, #120]	; a40c <USPiMassStorageDeviceRead+0xb0>
    a390:	eb003d3d 	bl	1988c <uspi_assertion_failed>
    a394:	e3540003 	cmp	r4, #3
    a398:	8a000013 	bhi	a3ec <USPiMassStorageDeviceRead+0x90>
    a39c:	e59f3060 	ldr	r3, [pc, #96]	; a404 <USPiMassStorageDeviceRead+0xa8>
    a3a0:	e5933000 	ldr	r3, [r3]
    a3a4:	e2842018 	add	r2, r4, #24
    a3a8:	e7930102 	ldr	r0, [r3, r2, lsl #2]
    a3ac:	e3500000 	cmp	r0, #0
    a3b0:	0a00000f 	beq	a3f4 <USPiMassStorageDeviceRead+0x98>
    a3b4:	e1a02006 	mov	r2, r6
    a3b8:	e1a03007 	mov	r3, r7
    a3bc:	eb001e56 	bl	11d1c <USBBulkOnlyMassStorageDeviceSeek>
    a3c0:	e1570001 	cmp	r7, r1
    a3c4:	01560000 	cmpeq	r6, r0
    a3c8:	1a00000b 	bne	a3fc <USPiMassStorageDeviceRead+0xa0>
    a3cc:	e59f3030 	ldr	r3, [pc, #48]	; a404 <USPiMassStorageDeviceRead+0xa8>
    a3d0:	e5933000 	ldr	r3, [r3]
    a3d4:	e2844018 	add	r4, r4, #24
    a3d8:	e1a02008 	mov	r2, r8
    a3dc:	e1a01005 	mov	r1, r5
    a3e0:	e7930104 	ldr	r0, [r3, r4, lsl #2]
    a3e4:	eb00214e 	bl	12924 <USBBulkOnlyMassStorageDeviceRead>
    a3e8:	e8bd81f0 	pop	{r4, r5, r6, r7, r8, pc}
    a3ec:	e3e00000 	mvn	r0, #0
    a3f0:	e8bd81f0 	pop	{r4, r5, r6, r7, r8, pc}
    a3f4:	e3e00000 	mvn	r0, #0
    a3f8:	e8bd81f0 	pop	{r4, r5, r6, r7, r8, pc}
    a3fc:	e3e00000 	mvn	r0, #0
    a400:	e8bd81f0 	pop	{r4, r5, r6, r7, r8, pc}
    a404:	00008920 	.word	0x00008920
    a408:	0001b38c 	.word	0x0001b38c
    a40c:	0001b3ac 	.word	0x0001b3ac

0000a410 <USPiMassStorageDeviceWrite>:
    a410:	e92d41f0 	push	{r4, r5, r6, r7, r8, lr}
    a414:	e1a06000 	mov	r6, r0
    a418:	e1a07001 	mov	r7, r1
    a41c:	e1a05002 	mov	r5, r2
    a420:	e1a08003 	mov	r8, r3
    a424:	e59d4018 	ldr	r4, [sp, #24]
    a428:	e59f3088 	ldr	r3, [pc, #136]	; a4b8 <USPiMassStorageDeviceWrite+0xa8>
    a42c:	e5933000 	ldr	r3, [r3]
    a430:	e3530000 	cmp	r3, #0
    a434:	1a000003 	bne	a448 <USPiMassStorageDeviceWrite+0x38>
    a438:	e3a020a7 	mov	r2, #167	; 0xa7
    a43c:	e59f1078 	ldr	r1, [pc, #120]	; a4bc <USPiMassStorageDeviceWrite+0xac>
    a440:	e59f0078 	ldr	r0, [pc, #120]	; a4c0 <USPiMassStorageDeviceWrite+0xb0>
    a444:	eb003d10 	bl	1988c <uspi_assertion_failed>
    a448:	e3540003 	cmp	r4, #3
    a44c:	8a000013 	bhi	a4a0 <USPiMassStorageDeviceWrite+0x90>
    a450:	e59f3060 	ldr	r3, [pc, #96]	; a4b8 <USPiMassStorageDeviceWrite+0xa8>
    a454:	e5933000 	ldr	r3, [r3]
    a458:	e2842018 	add	r2, r4, #24
    a45c:	e7930102 	ldr	r0, [r3, r2, lsl #2]
    a460:	e3500000 	cmp	r0, #0
    a464:	0a00000f 	beq	a4a8 <USPiMassStorageDeviceWrite+0x98>
    a468:	e1a02006 	mov	r2, r6
    a46c:	e1a03007 	mov	r3, r7
    a470:	eb001e29 	bl	11d1c <USBBulkOnlyMassStorageDeviceSeek>
    a474:	e1570001 	cmp	r7, r1
    a478:	01560000 	cmpeq	r6, r0
    a47c:	1a00000b 	bne	a4b0 <USPiMassStorageDeviceWrite+0xa0>
    a480:	e59f3030 	ldr	r3, [pc, #48]	; a4b8 <USPiMassStorageDeviceWrite+0xa8>
    a484:	e5933000 	ldr	r3, [r3]
    a488:	e2844018 	add	r4, r4, #24
    a48c:	e1a02008 	mov	r2, r8
    a490:	e1a01005 	mov	r1, r5
    a494:	e7930104 	ldr	r0, [r3, r4, lsl #2]
    a498:	eb00213e 	bl	12998 <USBBulkOnlyMassStorageDeviceWrite>
    a49c:	e8bd81f0 	pop	{r4, r5, r6, r7, r8, pc}
    a4a0:	e3e00000 	mvn	r0, #0
    a4a4:	e8bd81f0 	pop	{r4, r5, r6, r7, r8, pc}
    a4a8:	e3e00000 	mvn	r0, #0
    a4ac:	e8bd81f0 	pop	{r4, r5, r6, r7, r8, pc}
    a4b0:	e3e00000 	mvn	r0, #0
    a4b4:	e8bd81f0 	pop	{r4, r5, r6, r7, r8, pc}
    a4b8:	00008920 	.word	0x00008920
    a4bc:	0001b38c 	.word	0x0001b38c
    a4c0:	0001b3ac 	.word	0x0001b3ac

0000a4c4 <USPiMassStorageDeviceGetCapacity>:
    a4c4:	e92d4010 	push	{r4, lr}
    a4c8:	e1a04000 	mov	r4, r0
    a4cc:	e59f3050 	ldr	r3, [pc, #80]	; a524 <USPiMassStorageDeviceGetCapacity+0x60>
    a4d0:	e5933000 	ldr	r3, [r3]
    a4d4:	e3530000 	cmp	r3, #0
    a4d8:	1a000003 	bne	a4ec <USPiMassStorageDeviceGetCapacity+0x28>
    a4dc:	e3a020b9 	mov	r2, #185	; 0xb9
    a4e0:	e59f1040 	ldr	r1, [pc, #64]	; a528 <USPiMassStorageDeviceGetCapacity+0x64>
    a4e4:	e59f0040 	ldr	r0, [pc, #64]	; a52c <USPiMassStorageDeviceGetCapacity+0x68>
    a4e8:	eb003ce7 	bl	1988c <uspi_assertion_failed>
    a4ec:	e3540003 	cmp	r4, #3
    a4f0:	8a000007 	bhi	a514 <USPiMassStorageDeviceGetCapacity+0x50>
    a4f4:	e59f3028 	ldr	r3, [pc, #40]	; a524 <USPiMassStorageDeviceGetCapacity+0x60>
    a4f8:	e5933000 	ldr	r3, [r3]
    a4fc:	e2844018 	add	r4, r4, #24
    a500:	e7930104 	ldr	r0, [r3, r4, lsl #2]
    a504:	e3500000 	cmp	r0, #0
    a508:	0a000003 	beq	a51c <USPiMassStorageDeviceGetCapacity+0x58>
    a50c:	eb001e12 	bl	11d5c <USBBulkOnlyMassStorageDeviceGetCapacity>
    a510:	e8bd8010 	pop	{r4, pc}
    a514:	e3a00000 	mov	r0, #0
    a518:	e8bd8010 	pop	{r4, pc}
    a51c:	e3a00000 	mov	r0, #0
    a520:	e8bd8010 	pop	{r4, pc}
    a524:	00008920 	.word	0x00008920
    a528:	0001b38c 	.word	0x0001b38c
    a52c:	0001b3ac 	.word	0x0001b3ac

0000a530 <USPiEthernetAvailable>:
    a530:	e92d4010 	push	{r4, lr}
    a534:	e59f3030 	ldr	r3, [pc, #48]	; a56c <USPiEthernetAvailable+0x3c>
    a538:	e5933000 	ldr	r3, [r3]
    a53c:	e3530000 	cmp	r3, #0
    a540:	1a000003 	bne	a554 <USPiEthernetAvailable+0x24>
    a544:	e3a020c6 	mov	r2, #198	; 0xc6
    a548:	e59f1020 	ldr	r1, [pc, #32]	; a570 <USPiEthernetAvailable+0x40>
    a54c:	e59f0020 	ldr	r0, [pc, #32]	; a574 <USPiEthernetAvailable+0x44>
    a550:	eb003ccd 	bl	1988c <uspi_assertion_failed>
    a554:	e59f3010 	ldr	r3, [pc, #16]	; a56c <USPiEthernetAvailable+0x3c>
    a558:	e5933000 	ldr	r3, [r3]
    a55c:	e5930070 	ldr	r0, [r3, #112]	; 0x70
    a560:	e2900000 	adds	r0, r0, #0
    a564:	13a00001 	movne	r0, #1
    a568:	e8bd8010 	pop	{r4, pc}
    a56c:	00008920 	.word	0x00008920
    a570:	0001b38c 	.word	0x0001b38c
    a574:	0001b3ac 	.word	0x0001b3ac

0000a578 <USPiGetMACAddress>:
    a578:	e92d4070 	push	{r4, r5, r6, lr}
    a57c:	e1a04000 	mov	r4, r0
    a580:	e59f3078 	ldr	r3, [pc, #120]	; a600 <USPiGetMACAddress+0x88>
    a584:	e5933000 	ldr	r3, [r3]
    a588:	e3530000 	cmp	r3, #0
    a58c:	1a000003 	bne	a5a0 <USPiGetMACAddress+0x28>
    a590:	e3a020cc 	mov	r2, #204	; 0xcc
    a594:	e59f1068 	ldr	r1, [pc, #104]	; a604 <USPiGetMACAddress+0x8c>
    a598:	e59f0068 	ldr	r0, [pc, #104]	; a608 <USPiGetMACAddress+0x90>
    a59c:	eb003cba 	bl	1988c <uspi_assertion_failed>
    a5a0:	e59f3058 	ldr	r3, [pc, #88]	; a600 <USPiGetMACAddress+0x88>
    a5a4:	e5933000 	ldr	r3, [r3]
    a5a8:	e5933070 	ldr	r3, [r3, #112]	; 0x70
    a5ac:	e3530000 	cmp	r3, #0
    a5b0:	1a000003 	bne	a5c4 <USPiGetMACAddress+0x4c>
    a5b4:	e3a020cd 	mov	r2, #205	; 0xcd
    a5b8:	e59f1044 	ldr	r1, [pc, #68]	; a604 <USPiGetMACAddress+0x8c>
    a5bc:	e59f0048 	ldr	r0, [pc, #72]	; a60c <USPiGetMACAddress+0x94>
    a5c0:	eb003cb1 	bl	1988c <uspi_assertion_failed>
    a5c4:	e59f3034 	ldr	r3, [pc, #52]	; a600 <USPiGetMACAddress+0x88>
    a5c8:	e5933000 	ldr	r3, [r3]
    a5cc:	e5930070 	ldr	r0, [r3, #112]	; 0x70
    a5d0:	eb0017c1 	bl	104dc <SMSC951xDeviceGetMACAddress>
    a5d4:	e1a05000 	mov	r5, r0
    a5d8:	e3540000 	cmp	r4, #0
    a5dc:	1a000003 	bne	a5f0 <USPiGetMACAddress+0x78>
    a5e0:	e3a020d0 	mov	r2, #208	; 0xd0
    a5e4:	e59f1018 	ldr	r1, [pc, #24]	; a604 <USPiGetMACAddress+0x8c>
    a5e8:	e59f0020 	ldr	r0, [pc, #32]	; a610 <USPiGetMACAddress+0x98>
    a5ec:	eb003ca6 	bl	1988c <uspi_assertion_failed>
    a5f0:	e1a01004 	mov	r1, r4
    a5f4:	e1a00005 	mov	r0, r5
    a5f8:	eb00170b 	bl	1022c <MACAddressCopyTo>
    a5fc:	e8bd8070 	pop	{r4, r5, r6, pc}
    a600:	00008920 	.word	0x00008920
    a604:	0001b38c 	.word	0x0001b38c
    a608:	0001b3ac 	.word	0x0001b3ac
    a60c:	0001b478 	.word	0x0001b478
    a610:	0001cbe4 	.word	0x0001cbe4

0000a614 <USPiSendFrame>:
    a614:	e92d4070 	push	{r4, r5, r6, lr}
    a618:	e1a04000 	mov	r4, r0
    a61c:	e1a05001 	mov	r5, r1
    a620:	e59f3060 	ldr	r3, [pc, #96]	; a688 <USPiSendFrame+0x74>
    a624:	e5933000 	ldr	r3, [r3]
    a628:	e3530000 	cmp	r3, #0
    a62c:	1a000003 	bne	a640 <USPiSendFrame+0x2c>
    a630:	e3a020d6 	mov	r2, #214	; 0xd6
    a634:	e59f1050 	ldr	r1, [pc, #80]	; a68c <USPiSendFrame+0x78>
    a638:	e59f0050 	ldr	r0, [pc, #80]	; a690 <USPiSendFrame+0x7c>
    a63c:	eb003c92 	bl	1988c <uspi_assertion_failed>
    a640:	e59f3040 	ldr	r3, [pc, #64]	; a688 <USPiSendFrame+0x74>
    a644:	e5933000 	ldr	r3, [r3]
    a648:	e5933070 	ldr	r3, [r3, #112]	; 0x70
    a64c:	e3530000 	cmp	r3, #0
    a650:	1a000003 	bne	a664 <USPiSendFrame+0x50>
    a654:	e3a020d7 	mov	r2, #215	; 0xd7
    a658:	e59f102c 	ldr	r1, [pc, #44]	; a68c <USPiSendFrame+0x78>
    a65c:	e59f0030 	ldr	r0, [pc, #48]	; a694 <USPiSendFrame+0x80>
    a660:	eb003c89 	bl	1988c <uspi_assertion_failed>
    a664:	e59f301c 	ldr	r3, [pc, #28]	; a688 <USPiSendFrame+0x74>
    a668:	e5933000 	ldr	r3, [r3]
    a66c:	e1a02005 	mov	r2, r5
    a670:	e1a01004 	mov	r1, r4
    a674:	e5930070 	ldr	r0, [r3, #112]	; 0x70
    a678:	eb0017a3 	bl	1050c <SMSC951xDeviceSendFrame>
    a67c:	e2900000 	adds	r0, r0, #0
    a680:	13a00001 	movne	r0, #1
    a684:	e8bd8070 	pop	{r4, r5, r6, pc}
    a688:	00008920 	.word	0x00008920
    a68c:	0001b38c 	.word	0x0001b38c
    a690:	0001b3ac 	.word	0x0001b3ac
    a694:	0001b478 	.word	0x0001b478

0000a698 <USPiReceiveFrame>:
    a698:	e92d4070 	push	{r4, r5, r6, lr}
    a69c:	e1a04000 	mov	r4, r0
    a6a0:	e1a05001 	mov	r5, r1
    a6a4:	e59f3060 	ldr	r3, [pc, #96]	; a70c <USPiReceiveFrame+0x74>
    a6a8:	e5933000 	ldr	r3, [r3]
    a6ac:	e3530000 	cmp	r3, #0
    a6b0:	1a000003 	bne	a6c4 <USPiReceiveFrame+0x2c>
    a6b4:	e3a020dd 	mov	r2, #221	; 0xdd
    a6b8:	e59f1050 	ldr	r1, [pc, #80]	; a710 <USPiReceiveFrame+0x78>
    a6bc:	e59f0050 	ldr	r0, [pc, #80]	; a714 <USPiReceiveFrame+0x7c>
    a6c0:	eb003c71 	bl	1988c <uspi_assertion_failed>
    a6c4:	e59f3040 	ldr	r3, [pc, #64]	; a70c <USPiReceiveFrame+0x74>
    a6c8:	e5933000 	ldr	r3, [r3]
    a6cc:	e5933070 	ldr	r3, [r3, #112]	; 0x70
    a6d0:	e3530000 	cmp	r3, #0
    a6d4:	1a000003 	bne	a6e8 <USPiReceiveFrame+0x50>
    a6d8:	e3a020de 	mov	r2, #222	; 0xde
    a6dc:	e59f102c 	ldr	r1, [pc, #44]	; a710 <USPiReceiveFrame+0x78>
    a6e0:	e59f0030 	ldr	r0, [pc, #48]	; a718 <USPiReceiveFrame+0x80>
    a6e4:	eb003c68 	bl	1988c <uspi_assertion_failed>
    a6e8:	e59f301c 	ldr	r3, [pc, #28]	; a70c <USPiReceiveFrame+0x74>
    a6ec:	e5933000 	ldr	r3, [r3]
    a6f0:	e1a02005 	mov	r2, r5
    a6f4:	e1a01004 	mov	r1, r4
    a6f8:	e5930070 	ldr	r0, [r3, #112]	; 0x70
    a6fc:	eb0017bf 	bl	10600 <SMSC951xDeviceReceiveFrame>
    a700:	e2900000 	adds	r0, r0, #0
    a704:	13a00001 	movne	r0, #1
    a708:	e8bd8070 	pop	{r4, r5, r6, pc}
    a70c:	00008920 	.word	0x00008920
    a710:	0001b38c 	.word	0x0001b38c
    a714:	0001b3ac 	.word	0x0001b3ac
    a718:	0001b478 	.word	0x0001b478

0000a71c <USPiGamePadAvailable>:
    a71c:	e92d4010 	push	{r4, lr}
    a720:	e59f3070 	ldr	r3, [pc, #112]	; a798 <USPiGamePadAvailable+0x7c>
    a724:	e5933000 	ldr	r3, [r3]
    a728:	e3530000 	cmp	r3, #0
    a72c:	1a000003 	bne	a740 <USPiGamePadAvailable+0x24>
    a730:	e3a020e4 	mov	r2, #228	; 0xe4
    a734:	e59f1060 	ldr	r1, [pc, #96]	; a79c <USPiGamePadAvailable+0x80>
    a738:	e59f0060 	ldr	r0, [pc, #96]	; a7a0 <USPiGamePadAvailable+0x84>
    a73c:	eb003c52 	bl	1988c <uspi_assertion_failed>
    a740:	e59f3050 	ldr	r3, [pc, #80]	; a798 <USPiGamePadAvailable+0x7c>
    a744:	e5933000 	ldr	r3, [r3]
    a748:	e5932074 	ldr	r2, [r3, #116]	; 0x74
    a74c:	e3520000 	cmp	r2, #0
    a750:	0a00000e 	beq	a790 <USPiGamePadAvailable+0x74>
    a754:	e5932078 	ldr	r2, [r3, #120]	; 0x78
    a758:	e3520000 	cmp	r2, #0
    a75c:	0a000007 	beq	a780 <USPiGamePadAvailable+0x64>
    a760:	e593207c 	ldr	r2, [r3, #124]	; 0x7c
    a764:	e3520000 	cmp	r2, #0
    a768:	0a000006 	beq	a788 <USPiGamePadAvailable+0x6c>
    a76c:	e5930080 	ldr	r0, [r3, #128]	; 0x80
    a770:	e3500000 	cmp	r0, #0
    a774:	13a00004 	movne	r0, #4
    a778:	03a00003 	moveq	r0, #3
    a77c:	e8bd8010 	pop	{r4, pc}
    a780:	e3a00001 	mov	r0, #1
    a784:	e8bd8010 	pop	{r4, pc}
    a788:	e3a00002 	mov	r0, #2
    a78c:	e8bd8010 	pop	{r4, pc}
    a790:	e3a00000 	mov	r0, #0
    a794:	e8bd8010 	pop	{r4, pc}
    a798:	00008920 	.word	0x00008920
    a79c:	0001b38c 	.word	0x0001b38c
    a7a0:	0001b3ac 	.word	0x0001b3ac

0000a7a4 <USPiGamePadRegisterStatusHandler>:
    a7a4:	e92d4070 	push	{r4, r5, r6, lr}
    a7a8:	e1a06000 	mov	r6, r0
    a7ac:	e59f304c 	ldr	r3, [pc, #76]	; a800 <USPiGamePadRegisterStatusHandler+0x5c>
    a7b0:	e5933000 	ldr	r3, [r3]
    a7b4:	e3530000 	cmp	r3, #0
    a7b8:	1a000003 	bne	a7cc <USPiGamePadRegisterStatusHandler+0x28>
    a7bc:	e3a020f4 	mov	r2, #244	; 0xf4
    a7c0:	e59f103c 	ldr	r1, [pc, #60]	; a804 <USPiGamePadRegisterStatusHandler+0x60>
    a7c4:	e59f003c 	ldr	r0, [pc, #60]	; a808 <USPiGamePadRegisterStatusHandler+0x64>
    a7c8:	eb003c2f 	bl	1988c <uspi_assertion_failed>
    a7cc:	e3a04000 	mov	r4, #0
    a7d0:	e59f5028 	ldr	r5, [pc, #40]	; a800 <USPiGamePadRegisterStatusHandler+0x5c>
    a7d4:	e5953000 	ldr	r3, [r5]
    a7d8:	e0833104 	add	r3, r3, r4, lsl #2
    a7dc:	e5930074 	ldr	r0, [r3, #116]	; 0x74
    a7e0:	e3500000 	cmp	r0, #0
    a7e4:	0a000001 	beq	a7f0 <USPiGamePadRegisterStatusHandler+0x4c>
    a7e8:	e1a01006 	mov	r1, r6
    a7ec:	eb002a66 	bl	1518c <USBGamePadDeviceRegisterStatusHandler>
    a7f0:	e2844001 	add	r4, r4, #1
    a7f4:	e3540004 	cmp	r4, #4
    a7f8:	1afffff5 	bne	a7d4 <USPiGamePadRegisterStatusHandler+0x30>
    a7fc:	e8bd8070 	pop	{r4, r5, r6, pc}
    a800:	00008920 	.word	0x00008920
    a804:	0001b38c 	.word	0x0001b38c
    a808:	0001b3ac 	.word	0x0001b3ac

0000a80c <USPiGamePadGetStatus>:
    a80c:	e92d4010 	push	{r4, lr}
    a810:	e1a04000 	mov	r4, r0
    a814:	e59f3064 	ldr	r3, [pc, #100]	; a880 <USPiGamePadGetStatus+0x74>
    a818:	e5933000 	ldr	r3, [r3]
    a81c:	e3530000 	cmp	r3, #0
    a820:	1a000003 	bne	a834 <USPiGamePadGetStatus+0x28>
    a824:	e59f2058 	ldr	r2, [pc, #88]	; a884 <USPiGamePadGetStatus+0x78>
    a828:	e59f1058 	ldr	r1, [pc, #88]	; a888 <USPiGamePadGetStatus+0x7c>
    a82c:	e59f0058 	ldr	r0, [pc, #88]	; a88c <USPiGamePadGetStatus+0x80>
    a830:	eb003c15 	bl	1988c <uspi_assertion_failed>
    a834:	e3540003 	cmp	r4, #3
    a838:	8a00000c 	bhi	a870 <USPiGamePadGetStatus+0x64>
    a83c:	e59f303c 	ldr	r3, [pc, #60]	; a880 <USPiGamePadGetStatus+0x74>
    a840:	e5933000 	ldr	r3, [r3]
    a844:	e0833104 	add	r3, r3, r4, lsl #2
    a848:	e5930074 	ldr	r0, [r3, #116]	; 0x74
    a84c:	e3500000 	cmp	r0, #0
    a850:	0a000008 	beq	a878 <USPiGamePadGetStatus+0x6c>
    a854:	eb002a60 	bl	151dc <USBGamePadDeviceGetReport>
    a858:	e59f3020 	ldr	r3, [pc, #32]	; a880 <USPiGamePadGetStatus+0x74>
    a85c:	e5933000 	ldr	r3, [r3]
    a860:	e0834104 	add	r4, r3, r4, lsl #2
    a864:	e5940074 	ldr	r0, [r4, #116]	; 0x74
    a868:	e2800048 	add	r0, r0, #72	; 0x48
    a86c:	e8bd8010 	pop	{r4, pc}
    a870:	e3a00000 	mov	r0, #0
    a874:	e8bd8010 	pop	{r4, pc}
    a878:	e3a00000 	mov	r0, #0
    a87c:	e8bd8010 	pop	{r4, pc}
    a880:	00008920 	.word	0x00008920
    a884:	00000102 	.word	0x00000102
    a888:	0001b38c 	.word	0x0001b38c
    a88c:	0001b3ac 	.word	0x0001b3ac

0000a890 <USPiMIDIAvailable>:
    a890:	e92d4010 	push	{r4, lr}
    a894:	e59f3030 	ldr	r3, [pc, #48]	; a8cc <USPiMIDIAvailable+0x3c>
    a898:	e5933000 	ldr	r3, [r3]
    a89c:	e3530000 	cmp	r3, #0
    a8a0:	1a000003 	bne	a8b4 <USPiMIDIAvailable+0x24>
    a8a4:	e59f2024 	ldr	r2, [pc, #36]	; a8d0 <USPiMIDIAvailable+0x40>
    a8a8:	e59f1024 	ldr	r1, [pc, #36]	; a8d4 <USPiMIDIAvailable+0x44>
    a8ac:	e59f0024 	ldr	r0, [pc, #36]	; a8d8 <USPiMIDIAvailable+0x48>
    a8b0:	eb003bf5 	bl	1988c <uspi_assertion_failed>
    a8b4:	e59f3010 	ldr	r3, [pc, #16]	; a8cc <USPiMIDIAvailable+0x3c>
    a8b8:	e5933000 	ldr	r3, [r3]
    a8bc:	e5930084 	ldr	r0, [r3, #132]	; 0x84
    a8c0:	e2900000 	adds	r0, r0, #0
    a8c4:	13a00001 	movne	r0, #1
    a8c8:	e8bd8010 	pop	{r4, pc}
    a8cc:	00008920 	.word	0x00008920
    a8d0:	00000111 	.word	0x00000111
    a8d4:	0001b38c 	.word	0x0001b38c
    a8d8:	0001b3ac 	.word	0x0001b3ac

0000a8dc <USPiMIDIRegisterPacketHandler>:
    a8dc:	e92d4010 	push	{r4, lr}
    a8e0:	e1a04000 	mov	r4, r0
    a8e4:	e59f3054 	ldr	r3, [pc, #84]	; a940 <USPiMIDIRegisterPacketHandler+0x64>
    a8e8:	e5933000 	ldr	r3, [r3]
    a8ec:	e3530000 	cmp	r3, #0
    a8f0:	1a000003 	bne	a904 <USPiMIDIRegisterPacketHandler+0x28>
    a8f4:	e59f2048 	ldr	r2, [pc, #72]	; a944 <USPiMIDIRegisterPacketHandler+0x68>
    a8f8:	e59f1048 	ldr	r1, [pc, #72]	; a948 <USPiMIDIRegisterPacketHandler+0x6c>
    a8fc:	e59f0048 	ldr	r0, [pc, #72]	; a94c <USPiMIDIRegisterPacketHandler+0x70>
    a900:	eb003be1 	bl	1988c <uspi_assertion_failed>
    a904:	e59f3034 	ldr	r3, [pc, #52]	; a940 <USPiMIDIRegisterPacketHandler+0x64>
    a908:	e5933000 	ldr	r3, [r3]
    a90c:	e5933084 	ldr	r3, [r3, #132]	; 0x84
    a910:	e3530000 	cmp	r3, #0
    a914:	1a000003 	bne	a928 <USPiMIDIRegisterPacketHandler+0x4c>
    a918:	e3a02f46 	mov	r2, #280	; 0x118
    a91c:	e59f1024 	ldr	r1, [pc, #36]	; a948 <USPiMIDIRegisterPacketHandler+0x6c>
    a920:	e59f0028 	ldr	r0, [pc, #40]	; a950 <USPiMIDIRegisterPacketHandler+0x74>
    a924:	eb003bd8 	bl	1988c <uspi_assertion_failed>
    a928:	e59f3010 	ldr	r3, [pc, #16]	; a940 <USPiMIDIRegisterPacketHandler+0x64>
    a92c:	e5933000 	ldr	r3, [r3]
    a930:	e1a01004 	mov	r1, r4
    a934:	e5930084 	ldr	r0, [r3, #132]	; 0x84
    a938:	eb002da1 	bl	15fc4 <USBMIDIDeviceRegisterPacketHandler>
    a93c:	e8bd8010 	pop	{r4, pc}
    a940:	00008920 	.word	0x00008920
    a944:	00000117 	.word	0x00000117
    a948:	0001b38c 	.word	0x0001b38c
    a94c:	0001b3ac 	.word	0x0001b3ac
    a950:	0001b490 	.word	0x0001b490

0000a954 <USPiDeviceGetInformation>:
    a954:	e92d4070 	push	{r4, r5, r6, lr}
    a958:	e1a05000 	mov	r5, r0
    a95c:	e1a06001 	mov	r6, r1
    a960:	e1a04002 	mov	r4, r2
    a964:	e59f31a8 	ldr	r3, [pc, #424]	; ab14 <USPiDeviceGetInformation+0x1c0>
    a968:	e5933000 	ldr	r3, [r3]
    a96c:	e3530000 	cmp	r3, #0
    a970:	1a00005d 	bne	aaec <USPiDeviceGetInformation+0x198>
    a974:	e59f219c 	ldr	r2, [pc, #412]	; ab18 <USPiDeviceGetInformation+0x1c4>
    a978:	e59f119c 	ldr	r1, [pc, #412]	; ab1c <USPiDeviceGetInformation+0x1c8>
    a97c:	e59f019c 	ldr	r0, [pc, #412]	; ab20 <USPiDeviceGetInformation+0x1cc>
    a980:	eb003bc1 	bl	1988c <uspi_assertion_failed>
    a984:	ea000058 	b	aaec <USPiDeviceGetInformation+0x198>
    a988:	e3560000 	cmp	r6, #0
    a98c:	1a000046 	bne	aaac <USPiDeviceGetInformation+0x158>
    a990:	e59f317c 	ldr	r3, [pc, #380]	; ab14 <USPiDeviceGetInformation+0x1c0>
    a994:	e5933000 	ldr	r3, [r3]
    a998:	e5936058 	ldr	r6, [r3, #88]	; 0x58
    a99c:	ea00001e 	b	aa1c <USPiDeviceGetInformation+0xc8>
    a9a0:	e3560000 	cmp	r6, #0
    a9a4:	1a000042 	bne	aab4 <USPiDeviceGetInformation+0x160>
    a9a8:	e59f3164 	ldr	r3, [pc, #356]	; ab14 <USPiDeviceGetInformation+0x1c0>
    a9ac:	e5933000 	ldr	r3, [r3]
    a9b0:	e593605c 	ldr	r6, [r3, #92]	; 0x5c
    a9b4:	ea000018 	b	aa1c <USPiDeviceGetInformation+0xc8>
    a9b8:	e3560003 	cmp	r6, #3
    a9bc:	8a00003e 	bhi	aabc <USPiDeviceGetInformation+0x168>
    a9c0:	e59f314c 	ldr	r3, [pc, #332]	; ab14 <USPiDeviceGetInformation+0x1c0>
    a9c4:	e5933000 	ldr	r3, [r3]
    a9c8:	e2866018 	add	r6, r6, #24
    a9cc:	e7936106 	ldr	r6, [r3, r6, lsl #2]
    a9d0:	ea000011 	b	aa1c <USPiDeviceGetInformation+0xc8>
    a9d4:	e3560000 	cmp	r6, #0
    a9d8:	1a000039 	bne	aac4 <USPiDeviceGetInformation+0x170>
    a9dc:	e59f3130 	ldr	r3, [pc, #304]	; ab14 <USPiDeviceGetInformation+0x1c0>
    a9e0:	e5933000 	ldr	r3, [r3]
    a9e4:	e5936070 	ldr	r6, [r3, #112]	; 0x70
    a9e8:	ea00000b 	b	aa1c <USPiDeviceGetInformation+0xc8>
    a9ec:	e3560003 	cmp	r6, #3
    a9f0:	8a000035 	bhi	aacc <USPiDeviceGetInformation+0x178>
    a9f4:	e59f3118 	ldr	r3, [pc, #280]	; ab14 <USPiDeviceGetInformation+0x1c0>
    a9f8:	e5933000 	ldr	r3, [r3]
    a9fc:	e0836106 	add	r6, r3, r6, lsl #2
    aa00:	e5966074 	ldr	r6, [r6, #116]	; 0x74
    aa04:	ea000004 	b	aa1c <USPiDeviceGetInformation+0xc8>
    aa08:	e3560000 	cmp	r6, #0
    aa0c:	1a000030 	bne	aad4 <USPiDeviceGetInformation+0x180>
    aa10:	e59f30fc 	ldr	r3, [pc, #252]	; ab14 <USPiDeviceGetInformation+0x1c0>
    aa14:	e5933000 	ldr	r3, [r3]
    aa18:	e5936084 	ldr	r6, [r3, #132]	; 0x84
    aa1c:	e3560000 	cmp	r6, #0
    aa20:	0a00002d 	beq	aadc <USPiDeviceGetInformation+0x188>
    aa24:	e1a00006 	mov	r0, r6
    aa28:	eb0010bc 	bl	ed20 <USBDeviceGetDeviceDescriptor>
    aa2c:	e2505000 	subs	r5, r0, #0
    aa30:	1a000003 	bne	aa44 <USPiDeviceGetInformation+0xf0>
    aa34:	e3a02f56 	mov	r2, #344	; 0x158
    aa38:	e59f10dc 	ldr	r1, [pc, #220]	; ab1c <USPiDeviceGetInformation+0x1c8>
    aa3c:	e59f00e0 	ldr	r0, [pc, #224]	; ab24 <USPiDeviceGetInformation+0x1d0>
    aa40:	eb003b91 	bl	1988c <uspi_assertion_failed>
    aa44:	e3540000 	cmp	r4, #0
    aa48:	1a000003 	bne	aa5c <USPiDeviceGetInformation+0x108>
    aa4c:	e59f20d4 	ldr	r2, [pc, #212]	; ab28 <USPiDeviceGetInformation+0x1d4>
    aa50:	e59f10c4 	ldr	r1, [pc, #196]	; ab1c <USPiDeviceGetInformation+0x1c8>
    aa54:	e59f00d0 	ldr	r0, [pc, #208]	; ab2c <USPiDeviceGetInformation+0x1d8>
    aa58:	eb003b8b 	bl	1988c <uspi_assertion_failed>
    aa5c:	e5d53008 	ldrb	r3, [r5, #8]
    aa60:	e5d52009 	ldrb	r2, [r5, #9]
    aa64:	e1833402 	orr	r3, r3, r2, lsl #8
    aa68:	e1c430b0 	strh	r3, [r4]
    aa6c:	e5d5300a 	ldrb	r3, [r5, #10]
    aa70:	e5d5200b 	ldrb	r2, [r5, #11]
    aa74:	e1833402 	orr	r3, r3, r2, lsl #8
    aa78:	e1c430b2 	strh	r3, [r4, #2]
    aa7c:	e5d5300c 	ldrb	r3, [r5, #12]
    aa80:	e5d5200d 	ldrb	r2, [r5, #13]
    aa84:	e1833402 	orr	r3, r3, r2, lsl #8
    aa88:	e1c430b4 	strh	r3, [r4, #4]
    aa8c:	e2860020 	add	r0, r6, #32
    aa90:	eb002b52 	bl	157e0 <USBStringGet>
    aa94:	e5840008 	str	r0, [r4, #8]
    aa98:	e286002c 	add	r0, r6, #44	; 0x2c
    aa9c:	eb002b4f 	bl	157e0 <USBStringGet>
    aaa0:	e584000c 	str	r0, [r4, #12]
    aaa4:	e3a00001 	mov	r0, #1
    aaa8:	e8bd8070 	pop	{r4, r5, r6, pc}
    aaac:	e3a00000 	mov	r0, #0
    aab0:	e8bd8070 	pop	{r4, r5, r6, pc}
    aab4:	e3a00000 	mov	r0, #0
    aab8:	e8bd8070 	pop	{r4, r5, r6, pc}
    aabc:	e3a00000 	mov	r0, #0
    aac0:	e8bd8070 	pop	{r4, r5, r6, pc}
    aac4:	e3a00000 	mov	r0, #0
    aac8:	e8bd8070 	pop	{r4, r5, r6, pc}
    aacc:	e3a00000 	mov	r0, #0
    aad0:	e8bd8070 	pop	{r4, r5, r6, pc}
    aad4:	e3a00000 	mov	r0, #0
    aad8:	e8bd8070 	pop	{r4, r5, r6, pc}
    aadc:	e3a00000 	mov	r0, #0
    aae0:	e8bd8070 	pop	{r4, r5, r6, pc}
    aae4:	e3a00000 	mov	r0, #0
    aae8:	e8bd8070 	pop	{r4, r5, r6, pc}
    aaec:	e2450001 	sub	r0, r5, #1
    aaf0:	e3500005 	cmp	r0, #5
    aaf4:	979ff100 	ldrls	pc, [pc, r0, lsl #2]
    aaf8:	eafffff9 	b	aae4 <USPiDeviceGetInformation+0x190>
    aafc:	0000a988 	.word	0x0000a988
    ab00:	0000a9a0 	.word	0x0000a9a0
    ab04:	0000a9b8 	.word	0x0000a9b8
    ab08:	0000a9d4 	.word	0x0000a9d4
    ab0c:	0000a9ec 	.word	0x0000a9ec
    ab10:	0000aa08 	.word	0x0000aa08
    ab14:	00008920 	.word	0x00008920
    ab18:	0000011e 	.word	0x0000011e
    ab1c:	0001b38c 	.word	0x0001b38c
    ab20:	0001b3ac 	.word	0x0001b3ac
    ab24:	0001b4a8 	.word	0x0001b4a8
    ab28:	0000015a 	.word	0x0000015a
    ab2c:	0001b4b4 	.word	0x0001b4b4

0000ab30 <DWHCIDeviceCompletionRoutine>:
    ab30:	e92d4010 	push	{r4, lr}
    ab34:	e2524000 	subs	r4, r2, #0
    ab38:	1a000003 	bne	ab4c <DWHCIDeviceCompletionRoutine+0x1c>
    ab3c:	e59f2014 	ldr	r2, [pc, #20]	; ab58 <DWHCIDeviceCompletionRoutine+0x28>
    ab40:	e59f1014 	ldr	r1, [pc, #20]	; ab5c <DWHCIDeviceCompletionRoutine+0x2c>
    ab44:	e59f0014 	ldr	r0, [pc, #20]	; ab60 <DWHCIDeviceCompletionRoutine+0x30>
    ab48:	eb003b4f 	bl	1988c <uspi_assertion_failed>
    ab4c:	e3a03000 	mov	r3, #0
    ab50:	e5843048 	str	r3, [r4, #72]	; 0x48
    ab54:	e8bd8010 	pop	{r4, pc}
    ab58:	000002e1 	.word	0x000002e1
    ab5c:	0001b4c8 	.word	0x0001b4c8
    ab60:	0001b4d8 	.word	0x0001b4d8

0000ab64 <DWHCIDevice>:
    ab64:	e92d4010 	push	{r4, lr}
    ab68:	e2504000 	subs	r4, r0, #0
    ab6c:	1a000003 	bne	ab80 <DWHCIDevice+0x1c>
    ab70:	e3a0205e 	mov	r2, #94	; 0x5e
    ab74:	e59f103c 	ldr	r1, [pc, #60]	; abb8 <DWHCIDevice+0x54>
    ab78:	e59f003c 	ldr	r0, [pc, #60]	; abbc <DWHCIDevice+0x58>
    ab7c:	eb003b42 	bl	1988c <uspi_assertion_failed>
    ab80:	e3a03000 	mov	r3, #0
    ab84:	e5843000 	str	r3, [r4]
    ab88:	e5843004 	str	r3, [r4, #4]
    ab8c:	e5843048 	str	r3, [r4, #72]	; 0x48
    ab90:	e1a01004 	mov	r1, r4
    ab94:	e284004c 	add	r0, r4, #76	; 0x4c
    ab98:	eb002359 	bl	13904 <DWHCIRootPort>
    ab9c:	e2843004 	add	r3, r4, #4
    aba0:	e2842044 	add	r2, r4, #68	; 0x44
    aba4:	e3a01000 	mov	r1, #0
    aba8:	e5a31004 	str	r1, [r3, #4]!
    abac:	e1530002 	cmp	r3, r2
    abb0:	1afffffc 	bne	aba8 <DWHCIDevice+0x44>
    abb4:	e8bd8010 	pop	{r4, pc}
    abb8:	0001b4c8 	.word	0x0001b4c8
    abbc:	0001b4d8 	.word	0x0001b4d8

0000abc0 <_DWHCIDevice>:
    abc0:	e92d4010 	push	{r4, lr}
    abc4:	e280004c 	add	r0, r0, #76	; 0x4c
    abc8:	eb002362 	bl	13958 <_DWHCIRootPort>
    abcc:	e8bd8010 	pop	{r4, pc}

0000abd0 <DWHCIDeviceEnableGlobalInterrupts>:
    abd0:	e52de004 	push	{lr}		; (str lr, [sp, #-4]!)
    abd4:	e24dd014 	sub	sp, sp, #20
    abd8:	e3500000 	cmp	r0, #0
    abdc:	1a000003 	bne	abf0 <DWHCIDeviceEnableGlobalInterrupts+0x20>
    abe0:	e59f2040 	ldr	r2, [pc, #64]	; ac28 <DWHCIDeviceEnableGlobalInterrupts+0x58>
    abe4:	e59f1040 	ldr	r1, [pc, #64]	; ac2c <DWHCIDeviceEnableGlobalInterrupts+0x5c>
    abe8:	e59f0040 	ldr	r0, [pc, #64]	; ac30 <DWHCIDeviceEnableGlobalInterrupts+0x60>
    abec:	eb003b26 	bl	1988c <uspi_assertion_failed>
    abf0:	e59f103c 	ldr	r1, [pc, #60]	; ac34 <DWHCIDeviceEnableGlobalInterrupts+0x64>
    abf4:	e28d0004 	add	r0, sp, #4
    abf8:	eb0009e4 	bl	d390 <DWHCIRegister>
    abfc:	e28d0004 	add	r0, sp, #4
    ac00:	eb000a0c 	bl	d438 <DWHCIRegisterRead>
    ac04:	e3a01001 	mov	r1, #1
    ac08:	e28d0004 	add	r0, sp, #4
    ac0c:	eb000a7b 	bl	d600 <DWHCIRegisterOr>
    ac10:	e28d0004 	add	r0, sp, #4
    ac14:	eb000a16 	bl	d474 <DWHCIRegisterWrite>
    ac18:	e28d0004 	add	r0, sp, #4
    ac1c:	eb0009f9 	bl	d408 <_DWHCIRegister>
    ac20:	e28dd014 	add	sp, sp, #20
    ac24:	e49df004 	pop	{pc}		; (ldr pc, [sp], #4)
    ac28:	00000246 	.word	0x00000246
    ac2c:	0001b4c8 	.word	0x0001b4c8
    ac30:	0001b4d8 	.word	0x0001b4d8
    ac34:	20980008 	.word	0x20980008

0000ac38 <DWHCIDeviceEnableCommonInterrupts>:
    ac38:	e52de004 	push	{lr}		; (str lr, [sp, #-4]!)
    ac3c:	e24dd014 	sub	sp, sp, #20
    ac40:	e3500000 	cmp	r0, #0
    ac44:	1a000003 	bne	ac58 <DWHCIDeviceEnableCommonInterrupts+0x20>
    ac48:	e59f2034 	ldr	r2, [pc, #52]	; ac84 <DWHCIDeviceEnableCommonInterrupts+0x4c>
    ac4c:	e59f1034 	ldr	r1, [pc, #52]	; ac88 <DWHCIDeviceEnableCommonInterrupts+0x50>
    ac50:	e59f0034 	ldr	r0, [pc, #52]	; ac8c <DWHCIDeviceEnableCommonInterrupts+0x54>
    ac54:	eb003b0c 	bl	1988c <uspi_assertion_failed>
    ac58:	e59f1030 	ldr	r1, [pc, #48]	; ac90 <DWHCIDeviceEnableCommonInterrupts+0x58>
    ac5c:	e28d0004 	add	r0, sp, #4
    ac60:	eb0009ca 	bl	d390 <DWHCIRegister>
    ac64:	e28d0004 	add	r0, sp, #4
    ac68:	eb000ac4 	bl	d780 <DWHCIRegisterSetAll>
    ac6c:	e28d0004 	add	r0, sp, #4
    ac70:	eb0009ff 	bl	d474 <DWHCIRegisterWrite>
    ac74:	e28d0004 	add	r0, sp, #4
    ac78:	eb0009e2 	bl	d408 <_DWHCIRegister>
    ac7c:	e28dd014 	add	sp, sp, #20
    ac80:	e49df004 	pop	{pc}		; (ldr pc, [sp], #4)
    ac84:	00000253 	.word	0x00000253
    ac88:	0001b4c8 	.word	0x0001b4c8
    ac8c:	0001b4d8 	.word	0x0001b4d8
    ac90:	20980014 	.word	0x20980014

0000ac94 <DWHCIDeviceEnableHostInterrupts>:
    ac94:	e92d4010 	push	{r4, lr}
    ac98:	e24dd010 	sub	sp, sp, #16
    ac9c:	e2504000 	subs	r4, r0, #0
    aca0:	1a000003 	bne	acb4 <DWHCIDeviceEnableHostInterrupts+0x20>
    aca4:	e59f2054 	ldr	r2, [pc, #84]	; ad00 <DWHCIDeviceEnableHostInterrupts+0x6c>
    aca8:	e59f1054 	ldr	r1, [pc, #84]	; ad04 <DWHCIDeviceEnableHostInterrupts+0x70>
    acac:	e59f0054 	ldr	r0, [pc, #84]	; ad08 <DWHCIDeviceEnableHostInterrupts+0x74>
    acb0:	eb003af5 	bl	1988c <uspi_assertion_failed>
    acb4:	e3a02000 	mov	r2, #0
    acb8:	e59f104c 	ldr	r1, [pc, #76]	; ad0c <DWHCIDeviceEnableHostInterrupts+0x78>
    acbc:	e28d0004 	add	r0, sp, #4
    acc0:	eb0009c0 	bl	d3c8 <DWHCIRegister2>
    acc4:	e28d0004 	add	r0, sp, #4
    acc8:	eb0009e9 	bl	d474 <DWHCIRegisterWrite>
    accc:	e1a00004 	mov	r0, r4
    acd0:	ebffffd8 	bl	ac38 <DWHCIDeviceEnableCommonInterrupts>
    acd4:	e28d0004 	add	r0, sp, #4
    acd8:	eb0009d6 	bl	d438 <DWHCIRegisterRead>
    acdc:	e3a01402 	mov	r1, #33554432	; 0x2000000
    ace0:	e28d0004 	add	r0, sp, #4
    ace4:	eb000a45 	bl	d600 <DWHCIRegisterOr>
    ace8:	e28d0004 	add	r0, sp, #4
    acec:	eb0009e0 	bl	d474 <DWHCIRegisterWrite>
    acf0:	e28d0004 	add	r0, sp, #4
    acf4:	eb0009c3 	bl	d408 <_DWHCIRegister>
    acf8:	e28dd010 	add	sp, sp, #16
    acfc:	e8bd8010 	pop	{r4, pc}
    ad00:	0000026b 	.word	0x0000026b
    ad04:	0001b4c8 	.word	0x0001b4c8
    ad08:	0001b4d8 	.word	0x0001b4d8
    ad0c:	20980018 	.word	0x20980018

0000ad10 <DWHCIDeviceEnableChannelInterrupt>:
    ad10:	e92d4010 	push	{r4, lr}
    ad14:	e24dd010 	sub	sp, sp, #16
    ad18:	e1a04001 	mov	r4, r1
    ad1c:	e3500000 	cmp	r0, #0
    ad20:	1a000003 	bne	ad34 <DWHCIDeviceEnableChannelInterrupt+0x24>
    ad24:	e59f204c 	ldr	r2, [pc, #76]	; ad78 <DWHCIDeviceEnableChannelInterrupt+0x68>
    ad28:	e59f104c 	ldr	r1, [pc, #76]	; ad7c <DWHCIDeviceEnableChannelInterrupt+0x6c>
    ad2c:	e59f004c 	ldr	r0, [pc, #76]	; ad80 <DWHCIDeviceEnableChannelInterrupt+0x70>
    ad30:	eb003ad5 	bl	1988c <uspi_assertion_failed>
    ad34:	e59f1048 	ldr	r1, [pc, #72]	; ad84 <DWHCIDeviceEnableChannelInterrupt+0x74>
    ad38:	e28d0004 	add	r0, sp, #4
    ad3c:	eb000993 	bl	d390 <DWHCIRegister>
    ad40:	eb00293f 	bl	15244 <uspi_EnterCritical>
    ad44:	e28d0004 	add	r0, sp, #4
    ad48:	eb0009ba 	bl	d438 <DWHCIRegisterRead>
    ad4c:	e3a01001 	mov	r1, #1
    ad50:	e1a01411 	lsl	r1, r1, r4
    ad54:	e28d0004 	add	r0, sp, #4
    ad58:	eb000a28 	bl	d600 <DWHCIRegisterOr>
    ad5c:	e28d0004 	add	r0, sp, #4
    ad60:	eb0009c3 	bl	d474 <DWHCIRegisterWrite>
    ad64:	eb002946 	bl	15284 <uspi_LeaveCritical>
    ad68:	e28d0004 	add	r0, sp, #4
    ad6c:	eb0009a5 	bl	d408 <_DWHCIRegister>
    ad70:	e28dd010 	add	sp, sp, #16
    ad74:	e8bd8010 	pop	{r4, pc}
    ad78:	0000027f 	.word	0x0000027f
    ad7c:	0001b4c8 	.word	0x0001b4c8
    ad80:	0001b4d8 	.word	0x0001b4d8
    ad84:	20980418 	.word	0x20980418

0000ad88 <DWHCIDeviceDisableChannelInterrupt>:
    ad88:	e92d4010 	push	{r4, lr}
    ad8c:	e24dd010 	sub	sp, sp, #16
    ad90:	e1a04001 	mov	r4, r1
    ad94:	e3500000 	cmp	r0, #0
    ad98:	1a000003 	bne	adac <DWHCIDeviceDisableChannelInterrupt+0x24>
    ad9c:	e59f204c 	ldr	r2, [pc, #76]	; adf0 <DWHCIDeviceDisableChannelInterrupt+0x68>
    ada0:	e59f104c 	ldr	r1, [pc, #76]	; adf4 <DWHCIDeviceDisableChannelInterrupt+0x6c>
    ada4:	e59f004c 	ldr	r0, [pc, #76]	; adf8 <DWHCIDeviceDisableChannelInterrupt+0x70>
    ada8:	eb003ab7 	bl	1988c <uspi_assertion_failed>
    adac:	e59f1048 	ldr	r1, [pc, #72]	; adfc <DWHCIDeviceDisableChannelInterrupt+0x74>
    adb0:	e28d0004 	add	r0, sp, #4
    adb4:	eb000975 	bl	d390 <DWHCIRegister>
    adb8:	eb002921 	bl	15244 <uspi_EnterCritical>
    adbc:	e28d0004 	add	r0, sp, #4
    adc0:	eb00099c 	bl	d438 <DWHCIRegisterRead>
    adc4:	e3a01001 	mov	r1, #1
    adc8:	e1e01411 	mvn	r1, r1, lsl r4
    adcc:	e28d0004 	add	r0, sp, #4
    add0:	eb0009f4 	bl	d5a8 <DWHCIRegisterAnd>
    add4:	e28d0004 	add	r0, sp, #4
    add8:	eb0009a5 	bl	d474 <DWHCIRegisterWrite>
    addc:	eb002928 	bl	15284 <uspi_LeaveCritical>
    ade0:	e28d0004 	add	r0, sp, #4
    ade4:	eb000987 	bl	d408 <_DWHCIRegister>
    ade8:	e28dd010 	add	sp, sp, #16
    adec:	e8bd8010 	pop	{r4, pc}
    adf0:	00000291 	.word	0x00000291
    adf4:	0001b4c8 	.word	0x0001b4c8
    adf8:	0001b4d8 	.word	0x0001b4d8
    adfc:	20980418 	.word	0x20980418

0000ae00 <DWHCIDeviceStartChannel>:
    ae00:	e92d4070 	push	{r4, r5, r6, lr}
    ae04:	e24dd048 	sub	sp, sp, #72	; 0x48
    ae08:	e1a04001 	mov	r4, r1
    ae0c:	e2506000 	subs	r6, r0, #0
    ae10:	1a000003 	bne	ae24 <DWHCIDeviceStartChannel+0x24>
    ae14:	e59f238c 	ldr	r2, [pc, #908]	; b1a8 <DWHCIDeviceStartChannel+0x3a8>
    ae18:	e59f138c 	ldr	r1, [pc, #908]	; b1ac <DWHCIDeviceStartChannel+0x3ac>
    ae1c:	e59f038c 	ldr	r0, [pc, #908]	; b1b0 <DWHCIDeviceStartChannel+0x3b0>
    ae20:	eb003a99 	bl	1988c <uspi_assertion_failed>
    ae24:	e3540000 	cmp	r4, #0
    ae28:	1a000003 	bne	ae3c <DWHCIDeviceStartChannel+0x3c>
    ae2c:	e3a02fd1 	mov	r2, #836	; 0x344
    ae30:	e59f1374 	ldr	r1, [pc, #884]	; b1ac <DWHCIDeviceStartChannel+0x3ac>
    ae34:	e59f0378 	ldr	r0, [pc, #888]	; b1b4 <DWHCIDeviceStartChannel+0x3b4>
    ae38:	eb003a93 	bl	1988c <uspi_assertion_failed>
    ae3c:	e1a00004 	mov	r0, r4
    ae40:	eb000b38 	bl	db28 <DWHCITransferStageDataGetChannelNumber>
    ae44:	e1a05000 	mov	r5, r0
    ae48:	e5963000 	ldr	r3, [r6]
    ae4c:	e1500003 	cmp	r0, r3
    ae50:	3a000003 	bcc	ae64 <DWHCIDeviceStartChannel+0x64>
    ae54:	e59f235c 	ldr	r2, [pc, #860]	; b1b8 <DWHCIDeviceStartChannel+0x3b8>
    ae58:	e59f134c 	ldr	r1, [pc, #844]	; b1ac <DWHCIDeviceStartChannel+0x3ac>
    ae5c:	e59f0358 	ldr	r0, [pc, #856]	; b1bc <DWHCIDeviceStartChannel+0x3bc>
    ae60:	eb003a89 	bl	1988c <uspi_assertion_failed>
    ae64:	e3a01001 	mov	r1, #1
    ae68:	e1a00004 	mov	r0, r4
    ae6c:	eb000b14 	bl	dac4 <DWHCITransferStageDataSetSubState>
    ae70:	e1a05285 	lsl	r5, r5, #5
    ae74:	e59f1344 	ldr	r1, [pc, #836]	; b1c0 <DWHCIDeviceStartChannel+0x3c0>
    ae78:	e0851001 	add	r1, r5, r1
    ae7c:	e28d003c 	add	r0, sp, #60	; 0x3c
    ae80:	eb000942 	bl	d390 <DWHCIRegister>
    ae84:	e28d003c 	add	r0, sp, #60	; 0x3c
    ae88:	eb000a3c 	bl	d780 <DWHCIRegisterSetAll>
    ae8c:	e28d003c 	add	r0, sp, #60	; 0x3c
    ae90:	eb000977 	bl	d474 <DWHCIRegisterWrite>
    ae94:	e3a02000 	mov	r2, #0
    ae98:	e59f1324 	ldr	r1, [pc, #804]	; b1c4 <DWHCIDeviceStartChannel+0x3c4>
    ae9c:	e0851001 	add	r1, r5, r1
    aea0:	e28d0030 	add	r0, sp, #48	; 0x30
    aea4:	eb000947 	bl	d3c8 <DWHCIRegister2>
    aea8:	e1a00004 	mov	r0, r4
    aeac:	eb000cc7 	bl	e1d0 <DWHCITransferStageDataGetBytesToTransfer>
    aeb0:	e3c014ff 	bic	r1, r0, #-16777216	; 0xff000000
    aeb4:	e3c1173e 	bic	r1, r1, #16252928	; 0xf80000
    aeb8:	e28d0030 	add	r0, sp, #48	; 0x30
    aebc:	eb0009cf 	bl	d600 <DWHCIRegisterOr>
    aec0:	e1a00004 	mov	r0, r4
    aec4:	eb000ccd 	bl	e200 <DWHCITransferStageDataGetPacketsToTransfer>
    aec8:	e59f12f8 	ldr	r1, [pc, #760]	; b1c8 <DWHCIDeviceStartChannel+0x3c8>
    aecc:	e0011980 	and	r1, r1, r0, lsl #19
    aed0:	e28d0030 	add	r0, sp, #48	; 0x30
    aed4:	eb0009c9 	bl	d600 <DWHCIRegisterOr>
    aed8:	e1a00004 	mov	r0, r4
    aedc:	eb000c65 	bl	e078 <DWHCITransferStageDataGetPID>
    aee0:	e1a01e80 	lsl	r1, r0, #29
    aee4:	e28d0030 	add	r0, sp, #48	; 0x30
    aee8:	eb0009c4 	bl	d600 <DWHCIRegisterOr>
    aeec:	e28d0030 	add	r0, sp, #48	; 0x30
    aef0:	eb00095f 	bl	d474 <DWHCIRegisterWrite>
    aef4:	e1a00004 	mov	r0, r4
    aef8:	eb000ca0 	bl	e180 <DWHCITransferStageDataGetDMAAddress>
    aefc:	e2802101 	add	r2, r0, #1073741824	; 0x40000000
    af00:	e59f12c4 	ldr	r1, [pc, #708]	; b1cc <DWHCIDeviceStartChannel+0x3cc>
    af04:	e0851001 	add	r1, r5, r1
    af08:	e28d0024 	add	r0, sp, #36	; 0x24
    af0c:	eb00092d 	bl	d3c8 <DWHCIRegister2>
    af10:	e28d0024 	add	r0, sp, #36	; 0x24
    af14:	eb000956 	bl	d474 <DWHCIRegisterWrite>
    af18:	e1a00004 	mov	r0, r4
    af1c:	eb000c97 	bl	e180 <DWHCITransferStageDataGetDMAAddress>
    af20:	e1a06000 	mov	r6, r0
    af24:	e1a00004 	mov	r0, r4
    af28:	eb000ca8 	bl	e1d0 <DWHCITransferStageDataGetBytesToTransfer>
    af2c:	e1a01000 	mov	r1, r0
    af30:	e1a00006 	mov	r0, r6
    af34:	eb0028eb 	bl	152e8 <uspi_CleanAndInvalidateDataCacheRange>
    af38:	e3a02000 	mov	r2, #0
    af3c:	ee072fba 	mcr	15, 0, r2, cr7, cr10, {5}
    af40:	e59f1288 	ldr	r1, [pc, #648]	; b1d0 <DWHCIDeviceStartChannel+0x3d0>
    af44:	e0851001 	add	r1, r5, r1
    af48:	e28d0018 	add	r0, sp, #24
    af4c:	eb00091d 	bl	d3c8 <DWHCIRegister2>
    af50:	e1a00004 	mov	r0, r4
    af54:	eb000cb5 	bl	e230 <DWHCITransferStageDataIsSplit>
    af58:	e3500000 	cmp	r0, #0
    af5c:	0a000018 	beq	afc4 <DWHCIDeviceStartChannel+0x1c4>
    af60:	e1a00004 	mov	r0, r4
    af64:	eb000cf0 	bl	e32c <DWHCITransferStageDataGetHubPortAddress>
    af68:	e1a01000 	mov	r1, r0
    af6c:	e28d0018 	add	r0, sp, #24
    af70:	eb0009a2 	bl	d600 <DWHCIRegisterOr>
    af74:	e1a00004 	mov	r0, r4
    af78:	eb000ccd 	bl	e2b4 <DWHCITransferStageDataGetHubAddress>
    af7c:	e1a01380 	lsl	r1, r0, #7
    af80:	e28d0018 	add	r0, sp, #24
    af84:	eb00099d 	bl	d600 <DWHCIRegisterOr>
    af88:	e1a00004 	mov	r0, r4
    af8c:	eb000d05 	bl	e3a8 <DWHCITransferStageDataGetSplitPosition>
    af90:	e1a01700 	lsl	r1, r0, #14
    af94:	e28d0018 	add	r0, sp, #24
    af98:	eb000998 	bl	d600 <DWHCIRegisterOr>
    af9c:	e1a00004 	mov	r0, r4
    afa0:	eb000cae 	bl	e260 <DWHCITransferStageDataIsSplitComplete>
    afa4:	e3500000 	cmp	r0, #0
    afa8:	0a000002 	beq	afb8 <DWHCIDeviceStartChannel+0x1b8>
    afac:	e3a01801 	mov	r1, #65536	; 0x10000
    afb0:	e28d0018 	add	r0, sp, #24
    afb4:	eb000991 	bl	d600 <DWHCIRegisterOr>
    afb8:	e3a01102 	mov	r1, #-2147483648	; 0x80000000
    afbc:	e28d0018 	add	r0, sp, #24
    afc0:	eb00098e 	bl	d600 <DWHCIRegisterOr>
    afc4:	e28d0018 	add	r0, sp, #24
    afc8:	eb000929 	bl	d474 <DWHCIRegisterWrite>
    afcc:	e59f1200 	ldr	r1, [pc, #512]	; b1d4 <DWHCIDeviceStartChannel+0x3d4>
    afd0:	e0851001 	add	r1, r5, r1
    afd4:	e28d000c 	add	r0, sp, #12
    afd8:	eb0008ec 	bl	d390 <DWHCIRegister>
    afdc:	e28d000c 	add	r0, sp, #12
    afe0:	eb000914 	bl	d438 <DWHCIRegisterRead>
    afe4:	e59f11ec 	ldr	r1, [pc, #492]	; b1d8 <DWHCIDeviceStartChannel+0x3d8>
    afe8:	e28d000c 	add	r0, sp, #12
    afec:	eb00096d 	bl	d5a8 <DWHCIRegisterAnd>
    aff0:	e1a00004 	mov	r0, r4
    aff4:	eb000c08 	bl	e01c <DWHCITransferStageDataGetMaxPacketSize>
    aff8:	e1a01a80 	lsl	r1, r0, #21
    affc:	e1a01aa1 	lsr	r1, r1, #21
    b000:	e28d000c 	add	r0, sp, #12
    b004:	eb00097d 	bl	d600 <DWHCIRegisterOr>
    b008:	e3e01603 	mvn	r1, #3145728	; 0x300000
    b00c:	e28d000c 	add	r0, sp, #12
    b010:	eb000964 	bl	d5a8 <DWHCIRegisterAnd>
    b014:	e3a01601 	mov	r1, #1048576	; 0x100000
    b018:	e28d000c 	add	r0, sp, #12
    b01c:	eb000977 	bl	d600 <DWHCIRegisterOr>
    b020:	e1a00004 	mov	r0, r4
    b024:	eb000c3d 	bl	e120 <DWHCITransferStageDataIsDirectionIn>
    b028:	e3500000 	cmp	r0, #0
    b02c:	0a000003 	beq	b040 <DWHCIDeviceStartChannel+0x240>
    b030:	e3a01902 	mov	r1, #32768	; 0x8000
    b034:	e28d000c 	add	r0, sp, #12
    b038:	eb000970 	bl	d600 <DWHCIRegisterOr>
    b03c:	ea000002 	b	b04c <DWHCIDeviceStartChannel+0x24c>
    b040:	e3e01902 	mvn	r1, #32768	; 0x8000
    b044:	e28d000c 	add	r0, sp, #12
    b048:	eb000956 	bl	d5a8 <DWHCIRegisterAnd>
    b04c:	e1a00004 	mov	r0, r4
    b050:	eb000bfd 	bl	e04c <DWHCITransferStageDataGetSpeed>
    b054:	e3500000 	cmp	r0, #0
    b058:	1a000003 	bne	b06c <DWHCIDeviceStartChannel+0x26c>
    b05c:	e3a01802 	mov	r1, #131072	; 0x20000
    b060:	e28d000c 	add	r0, sp, #12
    b064:	eb000965 	bl	d600 <DWHCIRegisterOr>
    b068:	ea000002 	b	b078 <DWHCIDeviceStartChannel+0x278>
    b06c:	e3e01802 	mvn	r1, #131072	; 0x20000
    b070:	e28d000c 	add	r0, sp, #12
    b074:	eb00094b 	bl	d5a8 <DWHCIRegisterAnd>
    b078:	e3e0157f 	mvn	r1, #532676608	; 0x1fc00000
    b07c:	e28d000c 	add	r0, sp, #12
    b080:	eb000948 	bl	d5a8 <DWHCIRegisterAnd>
    b084:	e1a00004 	mov	r0, r4
    b088:	eb000b90 	bl	ded0 <DWHCITransferStageDataGetDeviceAddress>
    b08c:	e1a01b00 	lsl	r1, r0, #22
    b090:	e28d000c 	add	r0, sp, #12
    b094:	eb000959 	bl	d600 <DWHCIRegisterOr>
    b098:	e3e01703 	mvn	r1, #786432	; 0xc0000
    b09c:	e28d000c 	add	r0, sp, #12
    b0a0:	eb000940 	bl	d5a8 <DWHCIRegisterAnd>
    b0a4:	e1a00004 	mov	r0, r4
    b0a8:	eb000b9d 	bl	df24 <DWHCITransferStageDataGetEndpointType>
    b0ac:	e1a01900 	lsl	r1, r0, #18
    b0b0:	e28d000c 	add	r0, sp, #12
    b0b4:	eb000951 	bl	d600 <DWHCIRegisterOr>
    b0b8:	e3e01b1e 	mvn	r1, #30720	; 0x7800
    b0bc:	e28d000c 	add	r0, sp, #12
    b0c0:	eb000938 	bl	d5a8 <DWHCIRegisterAnd>
    b0c4:	e1a00004 	mov	r0, r4
    b0c8:	eb000bbe 	bl	dfc8 <DWHCITransferStageDataGetEndpointNumber>
    b0cc:	e1a01580 	lsl	r1, r0, #11
    b0d0:	e28d000c 	add	r0, sp, #12
    b0d4:	eb000949 	bl	d600 <DWHCIRegisterOr>
    b0d8:	e1a00004 	mov	r0, r4
    b0dc:	eb000d23 	bl	e570 <DWHCITransferStageDataGetFrameScheduler>
    b0e0:	e2506000 	subs	r6, r0, #0
    b0e4:	0a00000e 	beq	b124 <DWHCIDeviceStartChannel+0x324>
    b0e8:	e5963010 	ldr	r3, [r6, #16]
    b0ec:	e1a00006 	mov	r0, r6
    b0f0:	e12fff33 	blx	r3
    b0f4:	e5963014 	ldr	r3, [r6, #20]
    b0f8:	e1a00006 	mov	r0, r6
    b0fc:	e12fff33 	blx	r3
    b100:	e3500000 	cmp	r0, #0
    b104:	0a000003 	beq	b118 <DWHCIDeviceStartChannel+0x318>
    b108:	e3a01202 	mov	r1, #536870912	; 0x20000000
    b10c:	e28d000c 	add	r0, sp, #12
    b110:	eb00093a 	bl	d600 <DWHCIRegisterOr>
    b114:	ea000002 	b	b124 <DWHCIDeviceStartChannel+0x324>
    b118:	e3e01202 	mvn	r1, #536870912	; 0x20000000
    b11c:	e28d000c 	add	r0, sp, #12
    b120:	eb000920 	bl	d5a8 <DWHCIRegisterAnd>
    b124:	e59f10b0 	ldr	r1, [pc, #176]	; b1dc <DWHCIDeviceStartChannel+0x3dc>
    b128:	e0851001 	add	r1, r5, r1
    b12c:	e1a0000d 	mov	r0, sp
    b130:	eb000896 	bl	d390 <DWHCIRegister>
    b134:	e1a00004 	mov	r0, r4
    b138:	eb000cae 	bl	e3f8 <DWHCITransferStageDataGetStatusMask>
    b13c:	e1a01000 	mov	r1, r0
    b140:	e1a0000d 	mov	r0, sp
    b144:	eb0008f2 	bl	d514 <DWHCIRegisterSet>
    b148:	e1a0000d 	mov	r0, sp
    b14c:	eb0008c8 	bl	d474 <DWHCIRegisterWrite>
    b150:	e3a01102 	mov	r1, #-2147483648	; 0x80000000
    b154:	e28d000c 	add	r0, sp, #12
    b158:	eb000928 	bl	d600 <DWHCIRegisterOr>
    b15c:	e3e01101 	mvn	r1, #1073741824	; 0x40000000
    b160:	e28d000c 	add	r0, sp, #12
    b164:	eb00090f 	bl	d5a8 <DWHCIRegisterAnd>
    b168:	e28d000c 	add	r0, sp, #12
    b16c:	eb0008c0 	bl	d474 <DWHCIRegisterWrite>
    b170:	e1a0000d 	mov	r0, sp
    b174:	eb0008a3 	bl	d408 <_DWHCIRegister>
    b178:	e28d000c 	add	r0, sp, #12
    b17c:	eb0008a1 	bl	d408 <_DWHCIRegister>
    b180:	e28d0018 	add	r0, sp, #24
    b184:	eb00089f 	bl	d408 <_DWHCIRegister>
    b188:	e28d0024 	add	r0, sp, #36	; 0x24
    b18c:	eb00089d 	bl	d408 <_DWHCIRegister>
    b190:	e28d0030 	add	r0, sp, #48	; 0x30
    b194:	eb00089b 	bl	d408 <_DWHCIRegister>
    b198:	e28d003c 	add	r0, sp, #60	; 0x3c
    b19c:	eb000899 	bl	d408 <_DWHCIRegister>
    b1a0:	e28dd048 	add	sp, sp, #72	; 0x48
    b1a4:	e8bd8070 	pop	{r4, r5, r6, pc}
    b1a8:	00000342 	.word	0x00000342
    b1ac:	0001b4c8 	.word	0x0001b4c8
    b1b0:	0001b4d8 	.word	0x0001b4d8
    b1b4:	0001b4e4 	.word	0x0001b4e4
    b1b8:	00000346 	.word	0x00000346
    b1bc:	0001b4f4 	.word	0x0001b4f4
    b1c0:	20980508 	.word	0x20980508
    b1c4:	20980510 	.word	0x20980510
    b1c8:	1ff80000 	.word	0x1ff80000
    b1cc:	20980514 	.word	0x20980514
    b1d0:	20980504 	.word	0x20980504
    b1d4:	20980500 	.word	0x20980500
    b1d8:	fffff800 	.word	0xfffff800
    b1dc:	2098050c 	.word	0x2098050c

0000b1e0 <DWHCIDeviceStartTransaction>:
    b1e0:	e92d4070 	push	{r4, r5, r6, lr}
    b1e4:	e24dd018 	sub	sp, sp, #24
    b1e8:	e1a05001 	mov	r5, r1
    b1ec:	e2506000 	subs	r6, r0, #0
    b1f0:	1a000003 	bne	b204 <DWHCIDeviceStartTransaction+0x24>
    b1f4:	e59f20f0 	ldr	r2, [pc, #240]	; b2ec <DWHCIDeviceStartTransaction+0x10c>
    b1f8:	e59f10f0 	ldr	r1, [pc, #240]	; b2f0 <DWHCIDeviceStartTransaction+0x110>
    b1fc:	e59f00f0 	ldr	r0, [pc, #240]	; b2f4 <DWHCIDeviceStartTransaction+0x114>
    b200:	eb0039a1 	bl	1988c <uspi_assertion_failed>
    b204:	e3550000 	cmp	r5, #0
    b208:	1a000003 	bne	b21c <DWHCIDeviceStartTransaction+0x3c>
    b20c:	e59f20e4 	ldr	r2, [pc, #228]	; b2f8 <DWHCIDeviceStartTransaction+0x118>
    b210:	e59f10d8 	ldr	r1, [pc, #216]	; b2f0 <DWHCIDeviceStartTransaction+0x110>
    b214:	e59f00e0 	ldr	r0, [pc, #224]	; b2fc <DWHCIDeviceStartTransaction+0x11c>
    b218:	eb00399b 	bl	1988c <uspi_assertion_failed>
    b21c:	e1a00005 	mov	r0, r5
    b220:	eb000a40 	bl	db28 <DWHCITransferStageDataGetChannelNumber>
    b224:	e1a04000 	mov	r4, r0
    b228:	e5963000 	ldr	r3, [r6]
    b22c:	e1500003 	cmp	r0, r3
    b230:	3a000003 	bcc	b244 <DWHCIDeviceStartTransaction+0x64>
    b234:	e59f20c4 	ldr	r2, [pc, #196]	; b300 <DWHCIDeviceStartTransaction+0x120>
    b238:	e59f10b0 	ldr	r1, [pc, #176]	; b2f0 <DWHCIDeviceStartTransaction+0x110>
    b23c:	e59f00c0 	ldr	r0, [pc, #192]	; b304 <DWHCIDeviceStartTransaction+0x124>
    b240:	eb003991 	bl	1988c <uspi_assertion_failed>
    b244:	e59f10bc 	ldr	r1, [pc, #188]	; b308 <DWHCIDeviceStartTransaction+0x128>
    b248:	e0841001 	add	r1, r4, r1
    b24c:	e1a04281 	lsl	r4, r1, #5
    b250:	e1a01004 	mov	r1, r4
    b254:	e28d000c 	add	r0, sp, #12
    b258:	eb00084c 	bl	d390 <DWHCIRegister>
    b25c:	e28d000c 	add	r0, sp, #12
    b260:	eb000874 	bl	d438 <DWHCIRegisterRead>
    b264:	e3a01102 	mov	r1, #-2147483648	; 0x80000000
    b268:	e28d000c 	add	r0, sp, #12
    b26c:	eb0008b6 	bl	d54c <DWHCIRegisterIsSet>
    b270:	e3500000 	cmp	r0, #0
    b274:	0a000015 	beq	b2d0 <DWHCIDeviceStartTransaction+0xf0>
    b278:	e3a01000 	mov	r1, #0
    b27c:	e1a00005 	mov	r0, r5
    b280:	eb000a0f 	bl	dac4 <DWHCITransferStageDataSetSubState>
    b284:	e3e01102 	mvn	r1, #-2147483648	; 0x80000000
    b288:	e28d000c 	add	r0, sp, #12
    b28c:	eb0008c5 	bl	d5a8 <DWHCIRegisterAnd>
    b290:	e3a01101 	mov	r1, #1073741824	; 0x40000000
    b294:	e28d000c 	add	r0, sp, #12
    b298:	eb0008d8 	bl	d600 <DWHCIRegisterOr>
    b29c:	e28d000c 	add	r0, sp, #12
    b2a0:	eb000873 	bl	d474 <DWHCIRegisterWrite>
    b2a4:	e284100c 	add	r1, r4, #12
    b2a8:	e1a0000d 	mov	r0, sp
    b2ac:	eb000837 	bl	d390 <DWHCIRegister>
    b2b0:	e3a01002 	mov	r1, #2
    b2b4:	e1a0000d 	mov	r0, sp
    b2b8:	eb000895 	bl	d514 <DWHCIRegisterSet>
    b2bc:	e1a0000d 	mov	r0, sp
    b2c0:	eb00086b 	bl	d474 <DWHCIRegisterWrite>
    b2c4:	e1a0000d 	mov	r0, sp
    b2c8:	eb00084e 	bl	d408 <_DWHCIRegister>
    b2cc:	ea000002 	b	b2dc <DWHCIDeviceStartTransaction+0xfc>
    b2d0:	e1a01005 	mov	r1, r5
    b2d4:	e1a00006 	mov	r0, r6
    b2d8:	ebfffec8 	bl	ae00 <DWHCIDeviceStartChannel>
    b2dc:	e28d000c 	add	r0, sp, #12
    b2e0:	eb000848 	bl	d408 <_DWHCIRegister>
    b2e4:	e28dd018 	add	sp, sp, #24
    b2e8:	e8bd8070 	pop	{r4, r5, r6, pc}
    b2ec:	0000031f 	.word	0x0000031f
    b2f0:	0001b4c8 	.word	0x0001b4c8
    b2f4:	0001b4d8 	.word	0x0001b4d8
    b2f8:	00000321 	.word	0x00000321
    b2fc:	0001b4e4 	.word	0x0001b4e4
    b300:	00000323 	.word	0x00000323
    b304:	0001b4f4 	.word	0x0001b4f4
    b308:	0104c028 	.word	0x0104c028

0000b30c <DWHCIDeviceTimerHandler>:
    b30c:	e92d4070 	push	{r4, r5, r6, lr}
    b310:	e1a04001 	mov	r4, r1
    b314:	e2525000 	subs	r5, r2, #0
    b318:	1a000003 	bne	b32c <DWHCIDeviceTimerHandler+0x20>
    b31c:	e59f20dc 	ldr	r2, [pc, #220]	; b400 <DWHCIDeviceTimerHandler+0xf4>
    b320:	e59f10dc 	ldr	r1, [pc, #220]	; b404 <DWHCIDeviceTimerHandler+0xf8>
    b324:	e59f00dc 	ldr	r0, [pc, #220]	; b408 <DWHCIDeviceTimerHandler+0xfc>
    b328:	eb003957 	bl	1988c <uspi_assertion_failed>
    b32c:	e3540000 	cmp	r4, #0
    b330:	1a000003 	bne	b344 <DWHCIDeviceTimerHandler+0x38>
    b334:	e59f20d0 	ldr	r2, [pc, #208]	; b40c <DWHCIDeviceTimerHandler+0x100>
    b338:	e59f10c4 	ldr	r1, [pc, #196]	; b404 <DWHCIDeviceTimerHandler+0xf8>
    b33c:	e59f00cc 	ldr	r0, [pc, #204]	; b410 <DWHCIDeviceTimerHandler+0x104>
    b340:	eb003951 	bl	1988c <uspi_assertion_failed>
    b344:	e3a03000 	mov	r3, #0
    b348:	ee073fba 	mcr	15, 0, r3, cr7, cr10, {5}
    b34c:	e1540003 	cmp	r4, r3
    b350:	1a000003 	bne	b364 <DWHCIDeviceTimerHandler+0x58>
    b354:	e59f20b8 	ldr	r2, [pc, #184]	; b414 <DWHCIDeviceTimerHandler+0x108>
    b358:	e59f10a4 	ldr	r1, [pc, #164]	; b404 <DWHCIDeviceTimerHandler+0xf8>
    b35c:	e59f00ac 	ldr	r0, [pc, #172]	; b410 <DWHCIDeviceTimerHandler+0x104>
    b360:	eb003949 	bl	1988c <uspi_assertion_failed>
    b364:	e1a00004 	mov	r0, r4
    b368:	eb0009ca 	bl	da98 <DWHCITransferStageDataGetState>
    b36c:	e3500003 	cmp	r0, #3
    b370:	0a000003 	beq	b384 <DWHCIDeviceTimerHandler+0x78>
    b374:	e59f209c 	ldr	r2, [pc, #156]	; b418 <DWHCIDeviceTimerHandler+0x10c>
    b378:	e59f1084 	ldr	r1, [pc, #132]	; b404 <DWHCIDeviceTimerHandler+0xf8>
    b37c:	e59f0098 	ldr	r0, [pc, #152]	; b41c <DWHCIDeviceTimerHandler+0x110>
    b380:	eb003941 	bl	1988c <uspi_assertion_failed>
    b384:	e1a00004 	mov	r0, r4
    b388:	eb000ba8 	bl	e230 <DWHCITransferStageDataIsSplit>
    b38c:	e3500000 	cmp	r0, #0
    b390:	0a000011 	beq	b3dc <DWHCIDeviceTimerHandler+0xd0>
    b394:	e3a01001 	mov	r1, #1
    b398:	e1a00004 	mov	r0, r4
    b39c:	eb0009b1 	bl	da68 <DWHCITransferStageDataSetState>
    b3a0:	e3a01000 	mov	r1, #0
    b3a4:	e1a00004 	mov	r0, r4
    b3a8:	eb00099a 	bl	da18 <DWHCITransferStageDataSetSplitComplete>
    b3ac:	e1a00004 	mov	r0, r4
    b3b0:	eb000c6e 	bl	e570 <DWHCITransferStageDataGetFrameScheduler>
    b3b4:	e2506000 	subs	r6, r0, #0
    b3b8:	1a000003 	bne	b3cc <DWHCIDeviceTimerHandler+0xc0>
    b3bc:	e59f205c 	ldr	r2, [pc, #92]	; b420 <DWHCIDeviceTimerHandler+0x114>
    b3c0:	e59f103c 	ldr	r1, [pc, #60]	; b404 <DWHCIDeviceTimerHandler+0xf8>
    b3c4:	e59f0058 	ldr	r0, [pc, #88]	; b424 <DWHCIDeviceTimerHandler+0x118>
    b3c8:	eb00392f 	bl	1988c <uspi_assertion_failed>
    b3cc:	e5963004 	ldr	r3, [r6, #4]
    b3d0:	e1a00006 	mov	r0, r6
    b3d4:	e12fff33 	blx	r3
    b3d8:	ea000002 	b	b3e8 <DWHCIDeviceTimerHandler+0xdc>
    b3dc:	e3a01000 	mov	r1, #0
    b3e0:	e1a00004 	mov	r0, r4
    b3e4:	eb00099f 	bl	da68 <DWHCITransferStageDataSetState>
    b3e8:	e1a01004 	mov	r1, r4
    b3ec:	e1a00005 	mov	r0, r5
    b3f0:	ebffff7a 	bl	b1e0 <DWHCIDeviceStartTransaction>
    b3f4:	e3a03000 	mov	r3, #0
    b3f8:	ee073fba 	mcr	15, 0, r3, cr7, cr10, {5}
    b3fc:	e8bd8070 	pop	{r4, r5, r6, pc}
    b400:	000004d7 	.word	0x000004d7
    b404:	0001b4c8 	.word	0x0001b4c8
    b408:	0001b4d8 	.word	0x0001b4d8
    b40c:	000004da 	.word	0x000004da
    b410:	0001b4e4 	.word	0x0001b4e4
    b414:	000004de 	.word	0x000004de
    b418:	000004df 	.word	0x000004df
    b41c:	0001b514 	.word	0x0001b514
    b420:	000004e8 	.word	0x000004e8
    b424:	0001b55c 	.word	0x0001b55c

0000b428 <DWHCIDeviceAllocateChannel>:
    b428:	e92d4070 	push	{r4, r5, r6, lr}
    b42c:	e2505000 	subs	r5, r0, #0
    b430:	1a000003 	bne	b444 <DWHCIDeviceAllocateChannel+0x1c>
    b434:	e59f207c 	ldr	r2, [pc, #124]	; b4b8 <DWHCIDeviceAllocateChannel+0x90>
    b438:	e59f107c 	ldr	r1, [pc, #124]	; b4bc <DWHCIDeviceAllocateChannel+0x94>
    b43c:	e59f007c 	ldr	r0, [pc, #124]	; b4c0 <DWHCIDeviceAllocateChannel+0x98>
    b440:	eb003911 	bl	1988c <uspi_assertion_failed>
    b444:	eb00277e 	bl	15244 <uspi_EnterCritical>
    b448:	e5951000 	ldr	r1, [r5]
    b44c:	e3510000 	cmp	r1, #0
    b450:	0a000015 	beq	b4ac <DWHCIDeviceAllocateChannel+0x84>
    b454:	e5953004 	ldr	r3, [r5, #4]
    b458:	e3130001 	tst	r3, #1
    b45c:	0a000006 	beq	b47c <DWHCIDeviceAllocateChannel+0x54>
    b460:	e3a04000 	mov	r4, #0
    b464:	e3a03001 	mov	r3, #1
    b468:	ea00000b 	b	b49c <DWHCIDeviceAllocateChannel+0x74>
    b46c:	e5952004 	ldr	r2, [r5, #4]
    b470:	e1120003 	tst	r2, r3
    b474:	1a000008 	bne	b49c <DWHCIDeviceAllocateChannel+0x74>
    b478:	ea000001 	b	b484 <DWHCIDeviceAllocateChannel+0x5c>
    b47c:	e3a04000 	mov	r4, #0
    b480:	e3a03001 	mov	r3, #1
    b484:	e5952004 	ldr	r2, [r5, #4]
    b488:	e1823003 	orr	r3, r2, r3
    b48c:	e5853004 	str	r3, [r5, #4]
    b490:	eb00277b 	bl	15284 <uspi_LeaveCritical>
    b494:	e1a00004 	mov	r0, r4
    b498:	e8bd8070 	pop	{r4, r5, r6, pc}
    b49c:	e1a03083 	lsl	r3, r3, #1
    b4a0:	e2844001 	add	r4, r4, #1
    b4a4:	e1540001 	cmp	r4, r1
    b4a8:	1affffef 	bne	b46c <DWHCIDeviceAllocateChannel+0x44>
    b4ac:	eb002774 	bl	15284 <uspi_LeaveCritical>
    b4b0:	e3a00010 	mov	r0, #16
    b4b4:	e8bd8070 	pop	{r4, r5, r6, pc}
    b4b8:	000004f7 	.word	0x000004f7
    b4bc:	0001b4c8 	.word	0x0001b4c8
    b4c0:	0001b4d8 	.word	0x0001b4d8

0000b4c4 <DWHCIDeviceFreeChannel>:
    b4c4:	e92d4070 	push	{r4, r5, r6, lr}
    b4c8:	e1a05001 	mov	r5, r1
    b4cc:	e2504000 	subs	r4, r0, #0
    b4d0:	1a000003 	bne	b4e4 <DWHCIDeviceFreeChannel+0x20>
    b4d4:	e59f2060 	ldr	r2, [pc, #96]	; b53c <DWHCIDeviceFreeChannel+0x78>
    b4d8:	e59f1060 	ldr	r1, [pc, #96]	; b540 <DWHCIDeviceFreeChannel+0x7c>
    b4dc:	e59f0060 	ldr	r0, [pc, #96]	; b544 <DWHCIDeviceFreeChannel+0x80>
    b4e0:	eb0038e9 	bl	1988c <uspi_assertion_failed>
    b4e4:	e5943000 	ldr	r3, [r4]
    b4e8:	e1530005 	cmp	r3, r5
    b4ec:	8a000003 	bhi	b500 <DWHCIDeviceFreeChannel+0x3c>
    b4f0:	e59f2050 	ldr	r2, [pc, #80]	; b548 <DWHCIDeviceFreeChannel+0x84>
    b4f4:	e59f1044 	ldr	r1, [pc, #68]	; b540 <DWHCIDeviceFreeChannel+0x7c>
    b4f8:	e59f004c 	ldr	r0, [pc, #76]	; b54c <DWHCIDeviceFreeChannel+0x88>
    b4fc:	eb0038e2 	bl	1988c <uspi_assertion_failed>
    b500:	e3a03001 	mov	r3, #1
    b504:	e1a05513 	lsl	r5, r3, r5
    b508:	eb00274d 	bl	15244 <uspi_EnterCritical>
    b50c:	e5943004 	ldr	r3, [r4, #4]
    b510:	e1150003 	tst	r5, r3
    b514:	1a000003 	bne	b528 <DWHCIDeviceFreeChannel+0x64>
    b518:	e59f2030 	ldr	r2, [pc, #48]	; b550 <DWHCIDeviceFreeChannel+0x8c>
    b51c:	e59f101c 	ldr	r1, [pc, #28]	; b540 <DWHCIDeviceFreeChannel+0x7c>
    b520:	e59f002c 	ldr	r0, [pc, #44]	; b554 <DWHCIDeviceFreeChannel+0x90>
    b524:	eb0038d8 	bl	1988c <uspi_assertion_failed>
    b528:	e5943004 	ldr	r3, [r4, #4]
    b52c:	e1c35005 	bic	r5, r3, r5
    b530:	e5845004 	str	r5, [r4, #4]
    b534:	eb002752 	bl	15284 <uspi_LeaveCritical>
    b538:	e8bd8070 	pop	{r4, r5, r6, pc}
    b53c:	00000511 	.word	0x00000511
    b540:	0001b4c8 	.word	0x0001b4c8
    b544:	0001b4d8 	.word	0x0001b4d8
    b548:	00000513 	.word	0x00000513
    b54c:	0001b4f4 	.word	0x0001b4f4
    b550:	00000518 	.word	0x00000518
    b554:	0001b574 	.word	0x0001b574

0000b558 <DWHCIDeviceTransferStageAsync>:
    b558:	e92d43f0 	push	{r4, r5, r6, r7, r8, r9, lr}
    b55c:	e24dd00c 	sub	sp, sp, #12
    b560:	e1a07001 	mov	r7, r1
    b564:	e1a08002 	mov	r8, r2
    b568:	e1a09003 	mov	r9, r3
    b56c:	e2504000 	subs	r4, r0, #0
    b570:	1a000003 	bne	b584 <DWHCIDeviceTransferStageAsync+0x2c>
    b574:	e3a02fba 	mov	r2, #744	; 0x2e8
    b578:	e59f1168 	ldr	r1, [pc, #360]	; b6e8 <DWHCIDeviceTransferStageAsync+0x190>
    b57c:	e59f0168 	ldr	r0, [pc, #360]	; b6ec <DWHCIDeviceTransferStageAsync+0x194>
    b580:	eb0038c1 	bl	1988c <uspi_assertion_failed>
    b584:	e3570000 	cmp	r7, #0
    b588:	1a000003 	bne	b59c <DWHCIDeviceTransferStageAsync+0x44>
    b58c:	e59f215c 	ldr	r2, [pc, #348]	; b6f0 <DWHCIDeviceTransferStageAsync+0x198>
    b590:	e59f1150 	ldr	r1, [pc, #336]	; b6e8 <DWHCIDeviceTransferStageAsync+0x190>
    b594:	e59f0158 	ldr	r0, [pc, #344]	; b6f4 <DWHCIDeviceTransferStageAsync+0x19c>
    b598:	eb0038bb 	bl	1988c <uspi_assertion_failed>
    b59c:	e1a00004 	mov	r0, r4
    b5a0:	ebffffa0 	bl	b428 <DWHCIDeviceAllocateChannel>
    b5a4:	e1a05000 	mov	r5, r0
    b5a8:	e5943000 	ldr	r3, [r4]
    b5ac:	e1500003 	cmp	r0, r3
    b5b0:	23a07000 	movcs	r7, #0
    b5b4:	2a000048 	bcs	b6dc <DWHCIDeviceTransferStageAsync+0x184>
    b5b8:	e3a00054 	mov	r0, #84	; 0x54
    b5bc:	eb00308b 	bl	177f0 <malloc>
    b5c0:	e2506000 	subs	r6, r0, #0
    b5c4:	1a000003 	bne	b5d8 <DWHCIDeviceTransferStageAsync+0x80>
    b5c8:	e59f2128 	ldr	r2, [pc, #296]	; b6f8 <DWHCIDeviceTransferStageAsync+0x1a0>
    b5cc:	e59f1114 	ldr	r1, [pc, #276]	; b6e8 <DWHCIDeviceTransferStageAsync+0x190>
    b5d0:	e59f0124 	ldr	r0, [pc, #292]	; b6fc <DWHCIDeviceTransferStageAsync+0x1a4>
    b5d4:	eb0038ac 	bl	1988c <uspi_assertion_failed>
    b5d8:	e58d9000 	str	r9, [sp]
    b5dc:	e1a03008 	mov	r3, r8
    b5e0:	e1a02007 	mov	r2, r7
    b5e4:	e1a01005 	mov	r1, r5
    b5e8:	e1a00006 	mov	r0, r6
    b5ec:	eb000973 	bl	dbc0 <DWHCITransferStageData>
    b5f0:	e0848105 	add	r8, r4, r5, lsl #2
    b5f4:	e5983008 	ldr	r3, [r8, #8]
    b5f8:	e3530000 	cmp	r3, #0
    b5fc:	0a000003 	beq	b610 <DWHCIDeviceTransferStageAsync+0xb8>
    b600:	e59f20f8 	ldr	r2, [pc, #248]	; b700 <DWHCIDeviceTransferStageAsync+0x1a8>
    b604:	e59f10dc 	ldr	r1, [pc, #220]	; b6e8 <DWHCIDeviceTransferStageAsync+0x190>
    b608:	e59f00f4 	ldr	r0, [pc, #244]	; b704 <DWHCIDeviceTransferStageAsync+0x1ac>
    b60c:	eb00389e 	bl	1988c <uspi_assertion_failed>
    b610:	e5886008 	str	r6, [r8, #8]
    b614:	e1a01005 	mov	r1, r5
    b618:	e1a00004 	mov	r0, r4
    b61c:	ebfffdbb 	bl	ad10 <DWHCIDeviceEnableChannelInterrupt>
    b620:	e1a00006 	mov	r0, r6
    b624:	eb000b01 	bl	e230 <DWHCITransferStageDataIsSplit>
    b628:	e3500000 	cmp	r0, #0
    b62c:	1a000003 	bne	b640 <DWHCIDeviceTransferStageAsync+0xe8>
    b630:	e3a01000 	mov	r1, #0
    b634:	e1a00006 	mov	r0, r6
    b638:	eb00090a 	bl	da68 <DWHCITransferStageDataSetState>
    b63c:	ea000021 	b	b6c8 <DWHCIDeviceTransferStageAsync+0x170>
    b640:	e1a00006 	mov	r0, r6
    b644:	eb000935 	bl	db20 <DWHCITransferStageDataBeginSplitCycle>
    b648:	e2507000 	subs	r7, r0, #0
    b64c:	1a00000c 	bne	b684 <DWHCIDeviceTransferStageAsync+0x12c>
    b650:	e1a01005 	mov	r1, r5
    b654:	e1a00004 	mov	r0, r4
    b658:	ebfffdca 	bl	ad88 <DWHCIDeviceDisableChannelInterrupt>
    b65c:	e1a00006 	mov	r0, r6
    b660:	eb000877 	bl	d844 <_DWHCITransferStageData>
    b664:	e1a00006 	mov	r0, r6
    b668:	eb0030c9 	bl	17994 <free>
    b66c:	e3a03000 	mov	r3, #0
    b670:	e5883008 	str	r3, [r8, #8]
    b674:	e1a01005 	mov	r1, r5
    b678:	e1a00004 	mov	r0, r4
    b67c:	ebffff90 	bl	b4c4 <DWHCIDeviceFreeChannel>
    b680:	ea000015 	b	b6dc <DWHCIDeviceTransferStageAsync+0x184>
    b684:	e3a01001 	mov	r1, #1
    b688:	e1a00006 	mov	r0, r6
    b68c:	eb0008f5 	bl	da68 <DWHCITransferStageDataSetState>
    b690:	e3a01000 	mov	r1, #0
    b694:	e1a00006 	mov	r0, r6
    b698:	eb0008de 	bl	da18 <DWHCITransferStageDataSetSplitComplete>
    b69c:	e1a00006 	mov	r0, r6
    b6a0:	eb000bb2 	bl	e570 <DWHCITransferStageDataGetFrameScheduler>
    b6a4:	e2505000 	subs	r5, r0, #0
    b6a8:	1a000003 	bne	b6bc <DWHCIDeviceTransferStageAsync+0x164>
    b6ac:	e3a02fc5 	mov	r2, #788	; 0x314
    b6b0:	e59f1030 	ldr	r1, [pc, #48]	; b6e8 <DWHCIDeviceTransferStageAsync+0x190>
    b6b4:	e59f004c 	ldr	r0, [pc, #76]	; b708 <DWHCIDeviceTransferStageAsync+0x1b0>
    b6b8:	eb003873 	bl	1988c <uspi_assertion_failed>
    b6bc:	e5953004 	ldr	r3, [r5, #4]
    b6c0:	e1a00005 	mov	r0, r5
    b6c4:	e12fff33 	blx	r3
    b6c8:	e1a01006 	mov	r1, r6
    b6cc:	e1a00004 	mov	r0, r4
    b6d0:	ebfffec2 	bl	b1e0 <DWHCIDeviceStartTransaction>
    b6d4:	e3a07001 	mov	r7, #1
    b6d8:	eaffffff 	b	b6dc <DWHCIDeviceTransferStageAsync+0x184>
    b6dc:	e1a00007 	mov	r0, r7
    b6e0:	e28dd00c 	add	sp, sp, #12
    b6e4:	e8bd83f0 	pop	{r4, r5, r6, r7, r8, r9, pc}
    b6e8:	0001b4c8 	.word	0x0001b4c8
    b6ec:	0001b4d8 	.word	0x0001b4d8
    b6f0:	000002e9 	.word	0x000002e9
    b6f4:	0001b5a0 	.word	0x0001b5a0
    b6f8:	000002f3 	.word	0x000002f3
    b6fc:	0001b4e4 	.word	0x0001b4e4
    b700:	000002f6 	.word	0x000002f6
    b704:	0001b5ac 	.word	0x0001b5ac
    b708:	0001b55c 	.word	0x0001b55c

0000b70c <DWHCIDeviceSubmitAsyncRequest>:
    b70c:	e92d4070 	push	{r4, r5, r6, lr}
    b710:	e1a04001 	mov	r4, r1
    b714:	e2505000 	subs	r5, r0, #0
    b718:	1a000003 	bne	b72c <DWHCIDeviceSubmitAsyncRequest+0x20>
    b71c:	e59f20b8 	ldr	r2, [pc, #184]	; b7dc <DWHCIDeviceSubmitAsyncRequest+0xd0>
    b720:	e59f10b8 	ldr	r1, [pc, #184]	; b7e0 <DWHCIDeviceSubmitAsyncRequest+0xd4>
    b724:	e59f00b8 	ldr	r0, [pc, #184]	; b7e4 <DWHCIDeviceSubmitAsyncRequest+0xd8>
    b728:	eb003857 	bl	1988c <uspi_assertion_failed>
    b72c:	e3a03000 	mov	r3, #0
    b730:	ee073fba 	mcr	15, 0, r3, cr7, cr10, {5}
    b734:	e1540003 	cmp	r4, r3
    b738:	1a000003 	bne	b74c <DWHCIDeviceSubmitAsyncRequest+0x40>
    b73c:	e59f20a4 	ldr	r2, [pc, #164]	; b7e8 <DWHCIDeviceSubmitAsyncRequest+0xdc>
    b740:	e59f1098 	ldr	r1, [pc, #152]	; b7e0 <DWHCIDeviceSubmitAsyncRequest+0xd4>
    b744:	e59f00a0 	ldr	r0, [pc, #160]	; b7ec <DWHCIDeviceSubmitAsyncRequest+0xe0>
    b748:	eb00384f 	bl	1988c <uspi_assertion_failed>
    b74c:	e1a00004 	mov	r0, r4
    b750:	eb0010bf 	bl	fa54 <USBRequestGetEndpoint>
    b754:	eb000fdf 	bl	f6d8 <USBEndpointGetType>
    b758:	e3500001 	cmp	r0, #1
    b75c:	0a000008 	beq	b784 <DWHCIDeviceSubmitAsyncRequest+0x78>
    b760:	e1a00004 	mov	r0, r4
    b764:	eb0010ba 	bl	fa54 <USBRequestGetEndpoint>
    b768:	eb000fda 	bl	f6d8 <USBEndpointGetType>
    b76c:	e3500002 	cmp	r0, #2
    b770:	0a000003 	beq	b784 <DWHCIDeviceSubmitAsyncRequest+0x78>
    b774:	e59f2074 	ldr	r2, [pc, #116]	; b7f0 <DWHCIDeviceSubmitAsyncRequest+0xe4>
    b778:	e59f1060 	ldr	r1, [pc, #96]	; b7e0 <DWHCIDeviceSubmitAsyncRequest+0xd4>
    b77c:	e59f0070 	ldr	r0, [pc, #112]	; b7f4 <DWHCIDeviceSubmitAsyncRequest+0xe8>
    b780:	eb003841 	bl	1988c <uspi_assertion_failed>
    b784:	e1a00004 	mov	r0, r4
    b788:	eb00112c 	bl	fc40 <USBRequestGetBufLen>
    b78c:	e3500000 	cmp	r0, #0
    b790:	1a000003 	bne	b7a4 <DWHCIDeviceSubmitAsyncRequest+0x98>
    b794:	e3a02e16 	mov	r2, #352	; 0x160
    b798:	e59f1040 	ldr	r1, [pc, #64]	; b7e0 <DWHCIDeviceSubmitAsyncRequest+0xd4>
    b79c:	e59f0054 	ldr	r0, [pc, #84]	; b7f8 <DWHCIDeviceSubmitAsyncRequest+0xec>
    b7a0:	eb003839 	bl	1988c <uspi_assertion_failed>
    b7a4:	e3a01000 	mov	r1, #0
    b7a8:	e1a00004 	mov	r0, r4
    b7ac:	eb0010bb 	bl	faa0 <USBRequestSetStatus>
    b7b0:	e1a00004 	mov	r0, r4
    b7b4:	eb0010a6 	bl	fa54 <USBRequestGetEndpoint>
    b7b8:	eb000fd1 	bl	f704 <USBEndpointIsDirectionIn>
    b7bc:	e3a03000 	mov	r3, #0
    b7c0:	e1a02000 	mov	r2, r0
    b7c4:	e1a01004 	mov	r1, r4
    b7c8:	e1a00005 	mov	r0, r5
    b7cc:	ebffff61 	bl	b558 <DWHCIDeviceTransferStageAsync>
    b7d0:	e3a03000 	mov	r3, #0
    b7d4:	ee073fba 	mcr	15, 0, r3, cr7, cr10, {5}
    b7d8:	e8bd8070 	pop	{r4, r5, r6, pc}
    b7dc:	00000159 	.word	0x00000159
    b7e0:	0001b4c8 	.word	0x0001b4c8
    b7e4:	0001b4d8 	.word	0x0001b4d8
    b7e8:	0000015d 	.word	0x0000015d
    b7ec:	0001b5a0 	.word	0x0001b5a0
    b7f0:	0000015f 	.word	0x0000015f
    b7f4:	0001b5d0 	.word	0x0001b5d0
    b7f8:	0001b664 	.word	0x0001b664

0000b7fc <DWHCIDeviceTransferStage>:
    b7fc:	e92d41f0 	push	{r4, r5, r6, r7, r8, lr}
    b800:	e1a05001 	mov	r5, r1
    b804:	e1a06002 	mov	r6, r2
    b808:	e1a07003 	mov	r7, r3
    b80c:	e2504000 	subs	r4, r0, #0
    b810:	1a000003 	bne	b824 <DWHCIDeviceTransferStage+0x28>
    b814:	e59f2098 	ldr	r2, [pc, #152]	; b8b4 <DWHCIDeviceTransferStage+0xb8>
    b818:	e59f1098 	ldr	r1, [pc, #152]	; b8b8 <DWHCIDeviceTransferStage+0xbc>
    b81c:	e59f0098 	ldr	r0, [pc, #152]	; b8bc <DWHCIDeviceTransferStage+0xc0>
    b820:	eb003819 	bl	1988c <uspi_assertion_failed>
    b824:	e3550000 	cmp	r5, #0
    b828:	1a000003 	bne	b83c <DWHCIDeviceTransferStage+0x40>
    b82c:	e59f208c 	ldr	r2, [pc, #140]	; b8c0 <DWHCIDeviceTransferStage+0xc4>
    b830:	e59f1080 	ldr	r1, [pc, #128]	; b8b8 <DWHCIDeviceTransferStage+0xbc>
    b834:	e59f0088 	ldr	r0, [pc, #136]	; b8c4 <DWHCIDeviceTransferStage+0xc8>
    b838:	eb003813 	bl	1988c <uspi_assertion_failed>
    b83c:	e1a03004 	mov	r3, r4
    b840:	e3a02000 	mov	r2, #0
    b844:	e59f107c 	ldr	r1, [pc, #124]	; b8c8 <DWHCIDeviceTransferStage+0xcc>
    b848:	e1a00005 	mov	r0, r5
    b84c:	eb001106 	bl	fc6c <USBRequestSetCompletionRoutine>
    b850:	e5943048 	ldr	r3, [r4, #72]	; 0x48
    b854:	e3530000 	cmp	r3, #0
    b858:	0a000003 	beq	b86c <DWHCIDeviceTransferStage+0x70>
    b85c:	e3a02fb3 	mov	r2, #716	; 0x2cc
    b860:	e59f1050 	ldr	r1, [pc, #80]	; b8b8 <DWHCIDeviceTransferStage+0xbc>
    b864:	e59f0060 	ldr	r0, [pc, #96]	; b8cc <DWHCIDeviceTransferStage+0xd0>
    b868:	eb003807 	bl	1988c <uspi_assertion_failed>
    b86c:	e3a03001 	mov	r3, #1
    b870:	e5843048 	str	r3, [r4, #72]	; 0x48
    b874:	e1a03007 	mov	r3, r7
    b878:	e1a02006 	mov	r2, r6
    b87c:	e1a01005 	mov	r1, r5
    b880:	e1a00004 	mov	r0, r4
    b884:	ebffff33 	bl	b558 <DWHCIDeviceTransferStageAsync>
    b888:	e3500000 	cmp	r0, #0
    b88c:	1a000002 	bne	b89c <DWHCIDeviceTransferStage+0xa0>
    b890:	e3a03000 	mov	r3, #0
    b894:	e5843048 	str	r3, [r4, #72]	; 0x48
    b898:	e8bd81f0 	pop	{r4, r5, r6, r7, r8, pc}
    b89c:	e5943048 	ldr	r3, [r4, #72]	; 0x48
    b8a0:	e3530000 	cmp	r3, #0
    b8a4:	1afffffc 	bne	b89c <DWHCIDeviceTransferStage+0xa0>
    b8a8:	e1a00005 	mov	r0, r5
    b8ac:	eb001093 	bl	fb00 <USBRequestGetStatus>
    b8b0:	e8bd81f0 	pop	{r4, r5, r6, r7, r8, pc}
    b8b4:	000002c7 	.word	0x000002c7
    b8b8:	0001b4c8 	.word	0x0001b4c8
    b8bc:	0001b4d8 	.word	0x0001b4d8
    b8c0:	000002c9 	.word	0x000002c9
    b8c4:	0001b5a0 	.word	0x0001b5a0
    b8c8:	0000ab30 	.word	0x0000ab30
    b8cc:	0001b684 	.word	0x0001b684

0000b8d0 <DWHCIDeviceSubmitBlockingRequest>:
    b8d0:	e92d4070 	push	{r4, r5, r6, lr}
    b8d4:	e1a04001 	mov	r4, r1
    b8d8:	e2505000 	subs	r5, r0, #0
    b8dc:	1a000003 	bne	b8f0 <DWHCIDeviceSubmitBlockingRequest+0x20>
    b8e0:	e59f2220 	ldr	r2, [pc, #544]	; bb08 <DWHCIDeviceSubmitBlockingRequest+0x238>
    b8e4:	e59f1220 	ldr	r1, [pc, #544]	; bb0c <DWHCIDeviceSubmitBlockingRequest+0x23c>
    b8e8:	e59f0220 	ldr	r0, [pc, #544]	; bb10 <DWHCIDeviceSubmitBlockingRequest+0x240>
    b8ec:	eb0037e6 	bl	1988c <uspi_assertion_failed>
    b8f0:	e3a03000 	mov	r3, #0
    b8f4:	ee073fba 	mcr	15, 0, r3, cr7, cr10, {5}
    b8f8:	e1540003 	cmp	r4, r3
    b8fc:	1a000003 	bne	b910 <DWHCIDeviceSubmitBlockingRequest+0x40>
    b900:	e59f220c 	ldr	r2, [pc, #524]	; bb14 <DWHCIDeviceSubmitBlockingRequest+0x244>
    b904:	e59f1200 	ldr	r1, [pc, #512]	; bb0c <DWHCIDeviceSubmitBlockingRequest+0x23c>
    b908:	e59f0208 	ldr	r0, [pc, #520]	; bb18 <DWHCIDeviceSubmitBlockingRequest+0x248>
    b90c:	eb0037de 	bl	1988c <uspi_assertion_failed>
    b910:	e3a01000 	mov	r1, #0
    b914:	e1a00004 	mov	r0, r4
    b918:	eb001060 	bl	faa0 <USBRequestSetStatus>
    b91c:	e1a00004 	mov	r0, r4
    b920:	eb00104b 	bl	fa54 <USBRequestGetEndpoint>
    b924:	eb000f6b 	bl	f6d8 <USBEndpointGetType>
    b928:	e3500000 	cmp	r0, #0
    b92c:	1a000051 	bne	ba78 <DWHCIDeviceSubmitBlockingRequest+0x1a8>
    b930:	e1a00004 	mov	r0, r4
    b934:	eb00108f 	bl	fb78 <USBRequestGetSetupData>
    b938:	e2506000 	subs	r6, r0, #0
    b93c:	1a000003 	bne	b950 <DWHCIDeviceSubmitBlockingRequest+0x80>
    b940:	e3a02f49 	mov	r2, #292	; 0x124
    b944:	e59f11c0 	ldr	r1, [pc, #448]	; bb0c <DWHCIDeviceSubmitBlockingRequest+0x23c>
    b948:	e59f01cc 	ldr	r0, [pc, #460]	; bb1c <DWHCIDeviceSubmitBlockingRequest+0x24c>
    b94c:	eb0037ce 	bl	1988c <uspi_assertion_failed>
    b950:	e1d630d0 	ldrsb	r3, [r6]
    b954:	e3530000 	cmp	r3, #0
    b958:	aa00001d 	bge	b9d4 <DWHCIDeviceSubmitBlockingRequest+0x104>
    b95c:	e1a00004 	mov	r0, r4
    b960:	eb0010b6 	bl	fc40 <USBRequestGetBufLen>
    b964:	e3500000 	cmp	r0, #0
    b968:	1a000003 	bne	b97c <DWHCIDeviceSubmitBlockingRequest+0xac>
    b96c:	e3a02f4a 	mov	r2, #296	; 0x128
    b970:	e59f1194 	ldr	r1, [pc, #404]	; bb0c <DWHCIDeviceSubmitBlockingRequest+0x23c>
    b974:	e59f01a4 	ldr	r0, [pc, #420]	; bb20 <DWHCIDeviceSubmitBlockingRequest+0x250>
    b978:	eb0037c3 	bl	1988c <uspi_assertion_failed>
    b97c:	e3a03000 	mov	r3, #0
    b980:	e1a02003 	mov	r2, r3
    b984:	e1a01004 	mov	r1, r4
    b988:	e1a00005 	mov	r0, r5
    b98c:	ebffff9a 	bl	b7fc <DWHCIDeviceTransferStage>
    b990:	e3500000 	cmp	r0, #0
    b994:	08bd8070 	popeq	{r4, r5, r6, pc}
    b998:	e3a03000 	mov	r3, #0
    b99c:	e3a02001 	mov	r2, #1
    b9a0:	e1a01004 	mov	r1, r4
    b9a4:	e1a00005 	mov	r0, r5
    b9a8:	ebffff93 	bl	b7fc <DWHCIDeviceTransferStage>
    b9ac:	e3500000 	cmp	r0, #0
    b9b0:	08bd8070 	popeq	{r4, r5, r6, pc}
    b9b4:	e3a03001 	mov	r3, #1
    b9b8:	e3a02000 	mov	r2, #0
    b9bc:	e1a01004 	mov	r1, r4
    b9c0:	e1a00005 	mov	r0, r5
    b9c4:	ebffff8c 	bl	b7fc <DWHCIDeviceTransferStage>
    b9c8:	e3500000 	cmp	r0, #0
    b9cc:	1a000049 	bne	baf8 <DWHCIDeviceSubmitBlockingRequest+0x228>
    b9d0:	e8bd8070 	pop	{r4, r5, r6, pc}
    b9d4:	e1a00004 	mov	r0, r4
    b9d8:	eb001098 	bl	fc40 <USBRequestGetBufLen>
    b9dc:	e3500000 	cmp	r0, #0
    b9e0:	1a00000e 	bne	ba20 <DWHCIDeviceSubmitBlockingRequest+0x150>
    b9e4:	e3a03000 	mov	r3, #0
    b9e8:	e1a02003 	mov	r2, r3
    b9ec:	e1a01004 	mov	r1, r4
    b9f0:	e1a00005 	mov	r0, r5
    b9f4:	ebffff80 	bl	b7fc <DWHCIDeviceTransferStage>
    b9f8:	e3500000 	cmp	r0, #0
    b9fc:	08bd8070 	popeq	{r4, r5, r6, pc}
    ba00:	e3a03001 	mov	r3, #1
    ba04:	e1a02003 	mov	r2, r3
    ba08:	e1a01004 	mov	r1, r4
    ba0c:	e1a00005 	mov	r0, r5
    ba10:	ebffff79 	bl	b7fc <DWHCIDeviceTransferStage>
    ba14:	e3500000 	cmp	r0, #0
    ba18:	1a000036 	bne	baf8 <DWHCIDeviceSubmitBlockingRequest+0x228>
    ba1c:	e8bd8070 	pop	{r4, r5, r6, pc}
    ba20:	e3a03000 	mov	r3, #0
    ba24:	e1a02003 	mov	r2, r3
    ba28:	e1a01004 	mov	r1, r4
    ba2c:	e1a00005 	mov	r0, r5
    ba30:	ebffff71 	bl	b7fc <DWHCIDeviceTransferStage>
    ba34:	e3500000 	cmp	r0, #0
    ba38:	08bd8070 	popeq	{r4, r5, r6, pc}
    ba3c:	e3a03000 	mov	r3, #0
    ba40:	e1a02003 	mov	r2, r3
    ba44:	e1a01004 	mov	r1, r4
    ba48:	e1a00005 	mov	r0, r5
    ba4c:	ebffff6a 	bl	b7fc <DWHCIDeviceTransferStage>
    ba50:	e3500000 	cmp	r0, #0
    ba54:	08bd8070 	popeq	{r4, r5, r6, pc}
    ba58:	e3a03001 	mov	r3, #1
    ba5c:	e1a02003 	mov	r2, r3
    ba60:	e1a01004 	mov	r1, r4
    ba64:	e1a00005 	mov	r0, r5
    ba68:	ebffff63 	bl	b7fc <DWHCIDeviceTransferStage>
    ba6c:	e3500000 	cmp	r0, #0
    ba70:	1a000020 	bne	baf8 <DWHCIDeviceSubmitBlockingRequest+0x228>
    ba74:	e8bd8070 	pop	{r4, r5, r6, pc}
    ba78:	e1a00004 	mov	r0, r4
    ba7c:	eb000ff4 	bl	fa54 <USBRequestGetEndpoint>
    ba80:	eb000f14 	bl	f6d8 <USBEndpointGetType>
    ba84:	e3500001 	cmp	r0, #1
    ba88:	0a000008 	beq	bab0 <DWHCIDeviceSubmitBlockingRequest+0x1e0>
    ba8c:	e1a00004 	mov	r0, r4
    ba90:	eb000fef 	bl	fa54 <USBRequestGetEndpoint>
    ba94:	eb000f0f 	bl	f6d8 <USBEndpointGetType>
    ba98:	e3500002 	cmp	r0, #2
    ba9c:	0a000003 	beq	bab0 <DWHCIDeviceSubmitBlockingRequest+0x1e0>
    baa0:	e59f207c 	ldr	r2, [pc, #124]	; bb24 <DWHCIDeviceSubmitBlockingRequest+0x254>
    baa4:	e59f1060 	ldr	r1, [pc, #96]	; bb0c <DWHCIDeviceSubmitBlockingRequest+0x23c>
    baa8:	e59f0078 	ldr	r0, [pc, #120]	; bb28 <DWHCIDeviceSubmitBlockingRequest+0x258>
    baac:	eb003776 	bl	1988c <uspi_assertion_failed>
    bab0:	e1a00004 	mov	r0, r4
    bab4:	eb001061 	bl	fc40 <USBRequestGetBufLen>
    bab8:	e3500000 	cmp	r0, #0
    babc:	1a000003 	bne	bad0 <DWHCIDeviceSubmitBlockingRequest+0x200>
    bac0:	e59f2064 	ldr	r2, [pc, #100]	; bb2c <DWHCIDeviceSubmitBlockingRequest+0x25c>
    bac4:	e59f1040 	ldr	r1, [pc, #64]	; bb0c <DWHCIDeviceSubmitBlockingRequest+0x23c>
    bac8:	e59f0050 	ldr	r0, [pc, #80]	; bb20 <DWHCIDeviceSubmitBlockingRequest+0x250>
    bacc:	eb00376e 	bl	1988c <uspi_assertion_failed>
    bad0:	e1a00004 	mov	r0, r4
    bad4:	eb000fde 	bl	fa54 <USBRequestGetEndpoint>
    bad8:	eb000f09 	bl	f704 <USBEndpointIsDirectionIn>
    badc:	e3a03000 	mov	r3, #0
    bae0:	e1a02000 	mov	r2, r0
    bae4:	e1a01004 	mov	r1, r4
    bae8:	e1a00005 	mov	r0, r5
    baec:	ebffff42 	bl	b7fc <DWHCIDeviceTransferStage>
    baf0:	e3500000 	cmp	r0, #0
    baf4:	08bd8070 	popeq	{r4, r5, r6, pc}
    baf8:	e3a03000 	mov	r3, #0
    bafc:	ee073fba 	mcr	15, 0, r3, cr7, cr10, {5}
    bb00:	e3a00001 	mov	r0, #1
    bb04:	e8bd8070 	pop	{r4, r5, r6, pc}
    bb08:	0000011a 	.word	0x0000011a
    bb0c:	0001b4c8 	.word	0x0001b4c8
    bb10:	0001b4d8 	.word	0x0001b4d8
    bb14:	0000011e 	.word	0x0000011e
    bb18:	0001b5a0 	.word	0x0001b5a0
    bb1c:	0001b698 	.word	0x0001b698
    bb20:	0001b664 	.word	0x0001b664
    bb24:	00000149 	.word	0x00000149
    bb28:	0001b5d0 	.word	0x0001b5d0
    bb2c:	0000014a 	.word	0x0000014a

0000bb30 <DWHCIDeviceControlMessage>:
    bb30:	e92d4ff0 	push	{r4, r5, r6, r7, r8, r9, sl, fp, lr}
    bb34:	e24dd034 	sub	sp, sp, #52	; 0x34
    bb38:	e1a09001 	mov	r9, r1
    bb3c:	e1a0b002 	mov	fp, r2
    bb40:	e1a0a003 	mov	sl, r3
    bb44:	e1dd65b8 	ldrh	r6, [sp, #88]	; 0x58
    bb48:	e1dd55bc 	ldrh	r5, [sp, #92]	; 0x5c
    bb4c:	e1dd76b4 	ldrh	r7, [sp, #100]	; 0x64
    bb50:	e2508000 	subs	r8, r0, #0
    bb54:	1a000003 	bne	bb68 <DWHCIDeviceControlMessage+0x38>
    bb58:	e3a020e9 	mov	r2, #233	; 0xe9
    bb5c:	e59f10ac 	ldr	r1, [pc, #172]	; bc10 <DWHCIDeviceControlMessage+0xe0>
    bb60:	e59f00ac 	ldr	r0, [pc, #172]	; bc14 <DWHCIDeviceControlMessage+0xe4>
    bb64:	eb003748 	bl	1988c <uspi_assertion_failed>
    bb68:	e3a00008 	mov	r0, #8
    bb6c:	eb002f1f 	bl	177f0 <malloc>
    bb70:	e2504000 	subs	r4, r0, #0
    bb74:	1a000003 	bne	bb88 <DWHCIDeviceControlMessage+0x58>
    bb78:	e3a020ec 	mov	r2, #236	; 0xec
    bb7c:	e59f108c 	ldr	r1, [pc, #140]	; bc10 <DWHCIDeviceControlMessage+0xe0>
    bb80:	e59f0090 	ldr	r0, [pc, #144]	; bc18 <DWHCIDeviceControlMessage+0xe8>
    bb84:	eb003740 	bl	1988c <uspi_assertion_failed>
    bb88:	e5c4b000 	strb	fp, [r4]
    bb8c:	e5c4a001 	strb	sl, [r4, #1]
    bb90:	e5c46002 	strb	r6, [r4, #2]
    bb94:	e1a06426 	lsr	r6, r6, #8
    bb98:	e5c46003 	strb	r6, [r4, #3]
    bb9c:	e5c45004 	strb	r5, [r4, #4]
    bba0:	e1a05425 	lsr	r5, r5, #8
    bba4:	e5c45005 	strb	r5, [r4, #5]
    bba8:	e5c47006 	strb	r7, [r4, #6]
    bbac:	e1a03427 	lsr	r3, r7, #8
    bbb0:	e5c43007 	strb	r3, [r4, #7]
    bbb4:	e58d4000 	str	r4, [sp]
    bbb8:	e1a03007 	mov	r3, r7
    bbbc:	e59d2060 	ldr	r2, [sp, #96]	; 0x60
    bbc0:	e1a01009 	mov	r1, r9
    bbc4:	e28d000c 	add	r0, sp, #12
    bbc8:	eb000f68 	bl	f970 <USBRequest>
    bbcc:	e28d100c 	add	r1, sp, #12
    bbd0:	e1a00008 	mov	r0, r8
    bbd4:	ebffff3d 	bl	b8d0 <DWHCIDeviceSubmitBlockingRequest>
    bbd8:	e3500000 	cmp	r0, #0
    bbdc:	0a000003 	beq	bbf0 <DWHCIDeviceControlMessage+0xc0>
    bbe0:	e28d000c 	add	r0, sp, #12
    bbe4:	eb000fd0 	bl	fb2c <USBRequestGetResultLength>
    bbe8:	e1a05000 	mov	r5, r0
    bbec:	ea000000 	b	bbf4 <DWHCIDeviceControlMessage+0xc4>
    bbf0:	e3e05000 	mvn	r5, #0
    bbf4:	e1a00004 	mov	r0, r4
    bbf8:	eb002f65 	bl	17994 <free>
    bbfc:	e28d000c 	add	r0, sp, #12
    bc00:	eb000f84 	bl	fa18 <_USBRequest>
    bc04:	e1a00005 	mov	r0, r5
    bc08:	e28dd034 	add	sp, sp, #52	; 0x34
    bc0c:	e8bd8ff0 	pop	{r4, r5, r6, r7, r8, r9, sl, fp, pc}
    bc10:	0001b4c8 	.word	0x0001b4c8
    bc14:	0001b4d8 	.word	0x0001b4d8
    bc18:	0001b698 	.word	0x0001b698

0000bc1c <DWHCIDeviceGetDescriptor>:
    bc1c:	e92d40f0 	push	{r4, r5, r6, r7, lr}
    bc20:	e24dd014 	sub	sp, sp, #20
    bc24:	e1a06001 	mov	r6, r1
    bc28:	e1a07002 	mov	r7, r2
    bc2c:	e1a04003 	mov	r4, r3
    bc30:	e2505000 	subs	r5, r0, #0
    bc34:	1a000003 	bne	bc48 <DWHCIDeviceGetDescriptor+0x2c>
    bc38:	e3a020c1 	mov	r2, #193	; 0xc1
    bc3c:	e59f1040 	ldr	r1, [pc, #64]	; bc84 <DWHCIDeviceGetDescriptor+0x68>
    bc40:	e59f0040 	ldr	r0, [pc, #64]	; bc88 <DWHCIDeviceGetDescriptor+0x6c>
    bc44:	eb003710 	bl	1988c <uspi_assertion_failed>
    bc48:	e1dd32bc 	ldrh	r3, [sp, #44]	; 0x2c
    bc4c:	e58d300c 	str	r3, [sp, #12]
    bc50:	e59d3028 	ldr	r3, [sp, #40]	; 0x28
    bc54:	e58d3008 	str	r3, [sp, #8]
    bc58:	e3a03000 	mov	r3, #0
    bc5c:	e58d3004 	str	r3, [sp, #4]
    bc60:	e1844407 	orr	r4, r4, r7, lsl #8
    bc64:	e58d4000 	str	r4, [sp]
    bc68:	e3a03006 	mov	r3, #6
    bc6c:	e5dd2030 	ldrb	r2, [sp, #48]	; 0x30
    bc70:	e1a01006 	mov	r1, r6
    bc74:	e1a00005 	mov	r0, r5
    bc78:	ebffffac 	bl	bb30 <DWHCIDeviceControlMessage>
    bc7c:	e28dd014 	add	sp, sp, #20
    bc80:	e8bd80f0 	pop	{r4, r5, r6, r7, pc}
    bc84:	0001b4c8 	.word	0x0001b4c8
    bc88:	0001b4d8 	.word	0x0001b4d8

0000bc8c <DWHCIDeviceSetAddress>:
    bc8c:	e92d4070 	push	{r4, r5, r6, lr}
    bc90:	e24dd010 	sub	sp, sp, #16
    bc94:	e1a05001 	mov	r5, r1
    bc98:	e1a06002 	mov	r6, r2
    bc9c:	e2504000 	subs	r4, r0, #0
    bca0:	1a000003 	bne	bcb4 <DWHCIDeviceSetAddress+0x28>
    bca4:	e3a020cb 	mov	r2, #203	; 0xcb
    bca8:	e59f104c 	ldr	r1, [pc, #76]	; bcfc <DWHCIDeviceSetAddress+0x70>
    bcac:	e59f004c 	ldr	r0, [pc, #76]	; bd00 <DWHCIDeviceSetAddress+0x74>
    bcb0:	eb0036f5 	bl	1988c <uspi_assertion_failed>
    bcb4:	e3a02000 	mov	r2, #0
    bcb8:	e58d200c 	str	r2, [sp, #12]
    bcbc:	e58d2008 	str	r2, [sp, #8]
    bcc0:	e58d2004 	str	r2, [sp, #4]
    bcc4:	e58d6000 	str	r6, [sp]
    bcc8:	e3a03005 	mov	r3, #5
    bccc:	e1a01005 	mov	r1, r5
    bcd0:	e1a00004 	mov	r0, r4
    bcd4:	ebffff95 	bl	bb30 <DWHCIDeviceControlMessage>
    bcd8:	e3500000 	cmp	r0, #0
    bcdc:	b3a00000 	movlt	r0, #0
    bce0:	ba000003 	blt	bcf4 <DWHCIDeviceSetAddress+0x68>
    bce4:	e3a00032 	mov	r0, #50	; 0x32
    bce8:	eb003670 	bl	196b0 <MsDelay>
    bcec:	e3a00001 	mov	r0, #1
    bcf0:	eaffffff 	b	bcf4 <DWHCIDeviceSetAddress+0x68>
    bcf4:	e28dd010 	add	sp, sp, #16
    bcf8:	e8bd8070 	pop	{r4, r5, r6, pc}
    bcfc:	0001b4c8 	.word	0x0001b4c8
    bd00:	0001b4d8 	.word	0x0001b4d8

0000bd04 <DWHCIDeviceSetConfiguration>:
    bd04:	e92d4070 	push	{r4, r5, r6, lr}
    bd08:	e24dd010 	sub	sp, sp, #16
    bd0c:	e1a05001 	mov	r5, r1
    bd10:	e1a06002 	mov	r6, r2
    bd14:	e2504000 	subs	r4, r0, #0
    bd18:	1a000003 	bne	bd2c <DWHCIDeviceSetConfiguration+0x28>
    bd1c:	e3a020d9 	mov	r2, #217	; 0xd9
    bd20:	e59f104c 	ldr	r1, [pc, #76]	; bd74 <DWHCIDeviceSetConfiguration+0x70>
    bd24:	e59f004c 	ldr	r0, [pc, #76]	; bd78 <DWHCIDeviceSetConfiguration+0x74>
    bd28:	eb0036d7 	bl	1988c <uspi_assertion_failed>
    bd2c:	e3a02000 	mov	r2, #0
    bd30:	e58d200c 	str	r2, [sp, #12]
    bd34:	e58d2008 	str	r2, [sp, #8]
    bd38:	e58d2004 	str	r2, [sp, #4]
    bd3c:	e58d6000 	str	r6, [sp]
    bd40:	e3a03009 	mov	r3, #9
    bd44:	e1a01005 	mov	r1, r5
    bd48:	e1a00004 	mov	r0, r4
    bd4c:	ebffff77 	bl	bb30 <DWHCIDeviceControlMessage>
    bd50:	e3500000 	cmp	r0, #0
    bd54:	b3a00000 	movlt	r0, #0
    bd58:	ba000003 	blt	bd6c <DWHCIDeviceSetConfiguration+0x68>
    bd5c:	e3a00032 	mov	r0, #50	; 0x32
    bd60:	eb003652 	bl	196b0 <MsDelay>
    bd64:	e3a00001 	mov	r0, #1
    bd68:	eaffffff 	b	bd6c <DWHCIDeviceSetConfiguration+0x68>
    bd6c:	e28dd010 	add	sp, sp, #16
    bd70:	e8bd8070 	pop	{r4, r5, r6, pc}
    bd74:	0001b4c8 	.word	0x0001b4c8
    bd78:	0001b4d8 	.word	0x0001b4d8

0000bd7c <DWHCIDeviceTransfer>:
    bd7c:	e92d40f0 	push	{r4, r5, r6, r7, lr}
    bd80:	e24dd034 	sub	sp, sp, #52	; 0x34
    bd84:	e1a05001 	mov	r5, r1
    bd88:	e1a06002 	mov	r6, r2
    bd8c:	e1a07003 	mov	r7, r3
    bd90:	e2504000 	subs	r4, r0, #0
    bd94:	1a000003 	bne	bda8 <DWHCIDeviceTransfer+0x2c>
    bd98:	e59f2060 	ldr	r2, [pc, #96]	; be00 <DWHCIDeviceTransfer+0x84>
    bd9c:	e59f1060 	ldr	r1, [pc, #96]	; be04 <DWHCIDeviceTransfer+0x88>
    bda0:	e59f0060 	ldr	r0, [pc, #96]	; be08 <DWHCIDeviceTransfer+0x8c>
    bda4:	eb0036b8 	bl	1988c <uspi_assertion_failed>
    bda8:	e3a03000 	mov	r3, #0
    bdac:	e58d3000 	str	r3, [sp]
    bdb0:	e1a03007 	mov	r3, r7
    bdb4:	e1a02006 	mov	r2, r6
    bdb8:	e1a01005 	mov	r1, r5
    bdbc:	e28d000c 	add	r0, sp, #12
    bdc0:	eb000eea 	bl	f970 <USBRequest>
    bdc4:	e28d100c 	add	r1, sp, #12
    bdc8:	e1a00004 	mov	r0, r4
    bdcc:	ebfffebf 	bl	b8d0 <DWHCIDeviceSubmitBlockingRequest>
    bdd0:	e3500000 	cmp	r0, #0
    bdd4:	0a000003 	beq	bde8 <DWHCIDeviceTransfer+0x6c>
    bdd8:	e28d000c 	add	r0, sp, #12
    bddc:	eb000f52 	bl	fb2c <USBRequestGetResultLength>
    bde0:	e1a04000 	mov	r4, r0
    bde4:	ea000000 	b	bdec <DWHCIDeviceTransfer+0x70>
    bde8:	e3e04000 	mvn	r4, #0
    bdec:	e28d000c 	add	r0, sp, #12
    bdf0:	eb000f08 	bl	fa18 <_USBRequest>
    bdf4:	e1a00004 	mov	r0, r4
    bdf8:	e28dd034 	add	sp, sp, #52	; 0x34
    bdfc:	e8bd80f0 	pop	{r4, r5, r6, r7, pc}
    be00:	00000107 	.word	0x00000107
    be04:	0001b4c8 	.word	0x0001b4c8
    be08:	0001b4d8 	.word	0x0001b4d8

0000be0c <DWHCIDeviceChannelInterruptHandler>:
    be0c:	e92d4ff0 	push	{r4, r5, r6, r7, r8, r9, sl, fp, lr}
    be10:	e24dd01c 	sub	sp, sp, #28
    be14:	e1a06001 	mov	r6, r1
    be18:	e2505000 	subs	r5, r0, #0
    be1c:	1a000003 	bne	be30 <DWHCIDeviceChannelInterruptHandler+0x24>
    be20:	e3a02fef 	mov	r2, #956	; 0x3bc
    be24:	e59f157c 	ldr	r1, [pc, #1404]	; c3a8 <DWHCIDeviceChannelInterruptHandler+0x59c>
    be28:	e59f057c 	ldr	r0, [pc, #1404]	; c3ac <DWHCIDeviceChannelInterruptHandler+0x5a0>
    be2c:	eb003696 	bl	1988c <uspi_assertion_failed>
    be30:	e0857106 	add	r7, r5, r6, lsl #2
    be34:	e5974008 	ldr	r4, [r7, #8]
    be38:	e3540000 	cmp	r4, #0
    be3c:	1a000003 	bne	be50 <DWHCIDeviceChannelInterruptHandler+0x44>
    be40:	e59f2568 	ldr	r2, [pc, #1384]	; c3b0 <DWHCIDeviceChannelInterruptHandler+0x5a4>
    be44:	e59f155c 	ldr	r1, [pc, #1372]	; c3a8 <DWHCIDeviceChannelInterruptHandler+0x59c>
    be48:	e59f0564 	ldr	r0, [pc, #1380]	; c3b4 <DWHCIDeviceChannelInterruptHandler+0x5a8>
    be4c:	eb00368e 	bl	1988c <uspi_assertion_failed>
    be50:	e1a00004 	mov	r0, r4
    be54:	eb0009c5 	bl	e570 <DWHCITransferStageDataGetFrameScheduler>
    be58:	e1a09000 	mov	r9, r0
    be5c:	e1a00004 	mov	r0, r4
    be60:	eb0009ae 	bl	e520 <DWHCITransferStageDataGetURB>
    be64:	e2508000 	subs	r8, r0, #0
    be68:	1a000003 	bne	be7c <DWHCIDeviceChannelInterruptHandler+0x70>
    be6c:	e59f2544 	ldr	r2, [pc, #1348]	; c3b8 <DWHCIDeviceChannelInterruptHandler+0x5ac>
    be70:	e59f1530 	ldr	r1, [pc, #1328]	; c3a8 <DWHCIDeviceChannelInterruptHandler+0x59c>
    be74:	e59f0540 	ldr	r0, [pc, #1344]	; c3bc <DWHCIDeviceChannelInterruptHandler+0x5b0>
    be78:	eb003683 	bl	1988c <uspi_assertion_failed>
    be7c:	e1a00004 	mov	r0, r4
    be80:	eb00071b 	bl	daf4 <DWHCITransferStageDataGetSubState>
    be84:	e3500000 	cmp	r0, #0
    be88:	0a000002 	beq	be98 <DWHCIDeviceChannelInterruptHandler+0x8c>
    be8c:	e3500001 	cmp	r0, #1
    be90:	0a000004 	beq	bea8 <DWHCIDeviceChannelInterruptHandler+0x9c>
    be94:	ea000041 	b	bfa0 <DWHCIDeviceChannelInterruptHandler+0x194>
    be98:	e1a01004 	mov	r1, r4
    be9c:	e1a00005 	mov	r0, r5
    bea0:	ebfffbd6 	bl	ae00 <DWHCIDeviceStartChannel>
    bea4:	ea00013d 	b	c3a0 <DWHCIDeviceChannelInterruptHandler+0x594>
    bea8:	e1a00004 	mov	r0, r4
    beac:	eb0008b3 	bl	e180 <DWHCITransferStageDataGetDMAAddress>
    beb0:	e1a0a000 	mov	sl, r0
    beb4:	e1a00004 	mov	r0, r4
    beb8:	eb0008c4 	bl	e1d0 <DWHCITransferStageDataGetBytesToTransfer>
    bebc:	e1a01000 	mov	r1, r0
    bec0:	e1a0000a 	mov	r0, sl
    bec4:	eb002507 	bl	152e8 <uspi_CleanAndInvalidateDataCacheRange>
    bec8:	e3a03000 	mov	r3, #0
    becc:	ee073fba 	mcr	15, 0, r3, cr7, cr10, {5}
    bed0:	e1a0a286 	lsl	sl, r6, #5
    bed4:	e59f14e4 	ldr	r1, [pc, #1252]	; c3c0 <DWHCIDeviceChannelInterruptHandler+0x5b4>
    bed8:	e08a1001 	add	r1, sl, r1
    bedc:	e1a0000d 	mov	r0, sp
    bee0:	eb00052a 	bl	d390 <DWHCIRegister>
    bee4:	e1a0000d 	mov	r0, sp
    bee8:	eb000552 	bl	d438 <DWHCIRegisterRead>
    beec:	e59f14d0 	ldr	r1, [pc, #1232]	; c3c4 <DWHCIDeviceChannelInterruptHandler+0x5b8>
    bef0:	e08a1001 	add	r1, sl, r1
    bef4:	e28d000c 	add	r0, sp, #12
    bef8:	eb000524 	bl	d390 <DWHCIRegister>
    befc:	e28d000c 	add	r0, sp, #12
    bf00:	eb00054c 	bl	d438 <DWHCIRegisterRead>
    bf04:	e3500002 	cmp	r0, #2
    bf08:	1a000003 	bne	bf1c <DWHCIDeviceChannelInterruptHandler+0x110>
    bf0c:	e1a01004 	mov	r1, r4
    bf10:	e1a00005 	mov	r0, r5
    bf14:	ebfffcb1 	bl	b1e0 <DWHCIDeviceStartTransaction>
    bf18:	ea000120 	b	c3a0 <DWHCIDeviceChannelInterruptHandler+0x594>
    bf1c:	e1a00004 	mov	r0, r4
    bf20:	eb00070b 	bl	db54 <DWHCITransferStageDataIsPeriodic>
    bf24:	e3500000 	cmp	r0, #0
    bf28:	0a000008 	beq	bf50 <DWHCIDeviceChannelInterruptHandler+0x144>
    bf2c:	e1a0000d 	mov	r0, sp
    bf30:	eb000564 	bl	d4c8 <DWHCIRegisterGet>
    bf34:	e2200206 	eor	r0, r0, #1610612736	; 0x60000000
    bf38:	e3100206 	tst	r0, #1610612736	; 0x60000000
    bf3c:	1a000003 	bne	bf50 <DWHCIDeviceChannelInterruptHandler+0x144>
    bf40:	e59f2480 	ldr	r2, [pc, #1152]	; c3c8 <DWHCIDeviceChannelInterruptHandler+0x5bc>
    bf44:	e59f145c 	ldr	r1, [pc, #1116]	; c3a8 <DWHCIDeviceChannelInterruptHandler+0x59c>
    bf48:	e59f047c 	ldr	r0, [pc, #1148]	; c3cc <DWHCIDeviceChannelInterruptHandler+0x5c0>
    bf4c:	eb00364e 	bl	1988c <uspi_assertion_failed>
    bf50:	e28d000c 	add	r0, sp, #12
    bf54:	eb000537 	bl	d438 <DWHCIRegisterRead>
    bf58:	e1a0b000 	mov	fp, r0
    bf5c:	e1a0000d 	mov	r0, sp
    bf60:	eb000558 	bl	d4c8 <DWHCIRegisterGet>
    bf64:	e1a0a000 	mov	sl, r0
    bf68:	e1a0000d 	mov	r0, sp
    bf6c:	eb000555 	bl	d4c8 <DWHCIRegisterGet>
    bf70:	e1a0218a 	lsl	r2, sl, #3
    bf74:	e3c034ff 	bic	r3, r0, #-16777216	; 0xff000000
    bf78:	e3c3373e 	bic	r3, r3, #16252928	; 0xf80000
    bf7c:	e1a02b22 	lsr	r2, r2, #22
    bf80:	e1a0100b 	mov	r1, fp
    bf84:	e1a00004 	mov	r0, r4
    bf88:	eb00064c 	bl	d8c0 <DWHCITransferStageDataTransactionComplete>
    bf8c:	e28d000c 	add	r0, sp, #12
    bf90:	eb00051c 	bl	d408 <_DWHCIRegister>
    bf94:	e1a0000d 	mov	r0, sp
    bf98:	eb00051a 	bl	d408 <_DWHCIRegister>
    bf9c:	ea000003 	b	bfb0 <DWHCIDeviceChannelInterruptHandler+0x1a4>
    bfa0:	e59f2428 	ldr	r2, [pc, #1064]	; c3d0 <DWHCIDeviceChannelInterruptHandler+0x5c4>
    bfa4:	e59f13fc 	ldr	r1, [pc, #1020]	; c3a8 <DWHCIDeviceChannelInterruptHandler+0x59c>
    bfa8:	e59f0424 	ldr	r0, [pc, #1060]	; c3d4 <DWHCIDeviceChannelInterruptHandler+0x5c8>
    bfac:	eb003636 	bl	1988c <uspi_assertion_failed>
    bfb0:	e1a00004 	mov	r0, r4
    bfb4:	eb0006b7 	bl	da98 <DWHCITransferStageDataGetState>
    bfb8:	e3500001 	cmp	r0, #1
    bfbc:	0a000043 	beq	c0d0 <DWHCIDeviceChannelInterruptHandler+0x2c4>
    bfc0:	3a000002 	bcc	bfd0 <DWHCIDeviceChannelInterruptHandler+0x1c4>
    bfc4:	e3500002 	cmp	r0, #2
    bfc8:	0a000070 	beq	c190 <DWHCIDeviceChannelInterruptHandler+0x384>
    bfcc:	ea0000ef 	b	c390 <DWHCIDeviceChannelInterruptHandler+0x584>
    bfd0:	e1a00004 	mov	r0, r4
    bfd4:	eb000920 	bl	e45c <DWHCITransferStageDataGetTransactionStatus>
    bfd8:	e59f23f8 	ldr	r2, [pc, #1016]	; c3d8 <DWHCIDeviceChannelInterruptHandler+0x5cc>
    bfdc:	e0022000 	and	r2, r2, r0
    bfe0:	e3520000 	cmp	r2, #0
    bfe4:	0a000008 	beq	c00c <DWHCIDeviceChannelInterruptHandler+0x200>
    bfe8:	e1a03000 	mov	r3, r0
    bfec:	e59f23e8 	ldr	r2, [pc, #1000]	; c3dc <DWHCIDeviceChannelInterruptHandler+0x5d0>
    bff0:	e3a01001 	mov	r1, #1
    bff4:	e59f03e4 	ldr	r0, [pc, #996]	; c3e0 <DWHCIDeviceChannelInterruptHandler+0x5d4>
    bff8:	eb003611 	bl	19844 <LogWrite>
    bffc:	e3a01000 	mov	r1, #0
    c000:	e1a00008 	mov	r0, r8
    c004:	eb000ea5 	bl	faa0 <USBRequestSetStatus>
    c008:	ea000021 	b	c094 <DWHCIDeviceChannelInterruptHandler+0x288>
    c00c:	e3100050 	tst	r0, #80	; 0x50
    c010:	0a000013 	beq	c064 <DWHCIDeviceChannelInterruptHandler+0x258>
    c014:	e1a00004 	mov	r0, r4
    c018:	eb0006cd 	bl	db54 <DWHCITransferStageDataIsPeriodic>
    c01c:	e3500000 	cmp	r0, #0
    c020:	0a00000f 	beq	c064 <DWHCIDeviceChannelInterruptHandler+0x258>
    c024:	e3a01003 	mov	r1, #3
    c028:	e1a00004 	mov	r0, r4
    c02c:	eb00068d 	bl	da68 <DWHCITransferStageDataSetState>
    c030:	e1a00008 	mov	r0, r8
    c034:	eb000e86 	bl	fa54 <USBRequestGetEndpoint>
    c038:	eb000dd3 	bl	f78c <USBEndpointGetInterval>
    c03c:	e3a03064 	mov	r3, #100	; 0x64
    c040:	e0030093 	mul	r3, r3, r0
    c044:	e59f0398 	ldr	r0, [pc, #920]	; c3e4 <DWHCIDeviceChannelInterruptHandler+0x5d8>
    c048:	e0803390 	umull	r3, r0, r0, r3
    c04c:	e1a03005 	mov	r3, r5
    c050:	e1a02004 	mov	r2, r4
    c054:	e59f138c 	ldr	r1, [pc, #908]	; c3e8 <DWHCIDeviceChannelInterruptHandler+0x5dc>
    c058:	e1a00320 	lsr	r0, r0, #6
    c05c:	eb00359f 	bl	196e0 <StartKernelTimer>
    c060:	ea0000ce 	b	c3a0 <DWHCIDeviceChannelInterruptHandler+0x594>
    c064:	e1a00004 	mov	r0, r4
    c068:	eb000838 	bl	e150 <DWHCITransferStageDataIsStatusStage>
    c06c:	e3500000 	cmp	r0, #0
    c070:	1a000004 	bne	c088 <DWHCIDeviceChannelInterruptHandler+0x27c>
    c074:	e1a00004 	mov	r0, r4
    c078:	eb000919 	bl	e4e4 <DWHCITransferStageDataGetResultLen>
    c07c:	e1a01000 	mov	r1, r0
    c080:	e1a00008 	mov	r0, r8
    c084:	eb000e91 	bl	fad0 <USBRequestSetResultLen>
    c088:	e3a01001 	mov	r1, #1
    c08c:	e1a00008 	mov	r0, r8
    c090:	eb000e82 	bl	faa0 <USBRequestSetStatus>
    c094:	e1a01006 	mov	r1, r6
    c098:	e1a00005 	mov	r0, r5
    c09c:	ebfffb39 	bl	ad88 <DWHCIDeviceDisableChannelInterrupt>
    c0a0:	e1a00004 	mov	r0, r4
    c0a4:	eb0005e6 	bl	d844 <_DWHCITransferStageData>
    c0a8:	e1a00004 	mov	r0, r4
    c0ac:	eb002e38 	bl	17994 <free>
    c0b0:	e3a03000 	mov	r3, #0
    c0b4:	e5873008 	str	r3, [r7, #8]
    c0b8:	e1a01006 	mov	r1, r6
    c0bc:	e1a00005 	mov	r0, r5
    c0c0:	ebfffcff 	bl	b4c4 <DWHCIDeviceFreeChannel>
    c0c4:	e1a00008 	mov	r0, r8
    c0c8:	eb000efe 	bl	fcc8 <USBRequestCallCompletionRoutine>
    c0cc:	ea0000b3 	b	c3a0 <DWHCIDeviceChannelInterruptHandler+0x594>
    c0d0:	e1a00004 	mov	r0, r4
    c0d4:	eb0008e0 	bl	e45c <DWHCITransferStageDataGetTransactionStatus>
    c0d8:	e59f230c 	ldr	r2, [pc, #780]	; c3ec <DWHCIDeviceChannelInterruptHandler+0x5e0>
    c0dc:	e0022000 	and	r2, r2, r0
    c0e0:	e3520000 	cmp	r2, #0
    c0e4:	0a000016 	beq	c144 <DWHCIDeviceChannelInterruptHandler+0x338>
    c0e8:	e1a03000 	mov	r3, r0
    c0ec:	e59f22e8 	ldr	r2, [pc, #744]	; c3dc <DWHCIDeviceChannelInterruptHandler+0x5d0>
    c0f0:	e3a01001 	mov	r1, #1
    c0f4:	e59f02e4 	ldr	r0, [pc, #740]	; c3e0 <DWHCIDeviceChannelInterruptHandler+0x5d4>
    c0f8:	eb0035d1 	bl	19844 <LogWrite>
    c0fc:	e3a01000 	mov	r1, #0
    c100:	e1a00008 	mov	r0, r8
    c104:	eb000e65 	bl	faa0 <USBRequestSetStatus>
    c108:	e1a01006 	mov	r1, r6
    c10c:	e1a00005 	mov	r0, r5
    c110:	ebfffb1c 	bl	ad88 <DWHCIDeviceDisableChannelInterrupt>
    c114:	e1a00004 	mov	r0, r4
    c118:	eb0005c9 	bl	d844 <_DWHCITransferStageData>
    c11c:	e1a00004 	mov	r0, r4
    c120:	eb002e1b 	bl	17994 <free>
    c124:	e3a03000 	mov	r3, #0
    c128:	e5873008 	str	r3, [r7, #8]
    c12c:	e1a01006 	mov	r1, r6
    c130:	e1a00005 	mov	r0, r5
    c134:	ebfffce2 	bl	b4c4 <DWHCIDeviceFreeChannel>
    c138:	e1a00008 	mov	r0, r8
    c13c:	eb000ee1 	bl	fcc8 <USBRequestCallCompletionRoutine>
    c140:	ea000096 	b	c3a0 <DWHCIDeviceChannelInterruptHandler+0x594>
    c144:	e599300c 	ldr	r3, [r9, #12]
    c148:	e1a01000 	mov	r1, r0
    c14c:	e1a00009 	mov	r0, r9
    c150:	e12fff33 	blx	r3
    c154:	e3a01002 	mov	r1, #2
    c158:	e1a00004 	mov	r0, r4
    c15c:	eb000641 	bl	da68 <DWHCITransferStageDataSetState>
    c160:	e3a01001 	mov	r1, #1
    c164:	e1a00004 	mov	r0, r4
    c168:	eb00062a 	bl	da18 <DWHCITransferStageDataSetSplitComplete>
    c16c:	e5993008 	ldr	r3, [r9, #8]
    c170:	e1a00009 	mov	r0, r9
    c174:	e12fff33 	blx	r3
    c178:	e3500000 	cmp	r0, #0
    c17c:	0a00002d 	beq	c238 <DWHCIDeviceChannelInterruptHandler+0x42c>
    c180:	e1a01004 	mov	r1, r4
    c184:	e1a00005 	mov	r0, r5
    c188:	ebfffc14 	bl	b1e0 <DWHCIDeviceStartTransaction>
    c18c:	ea000083 	b	c3a0 <DWHCIDeviceChannelInterruptHandler+0x594>
    c190:	e1a00004 	mov	r0, r4
    c194:	eb0008b0 	bl	e45c <DWHCITransferStageDataGetTransactionStatus>
    c198:	e59f2238 	ldr	r2, [pc, #568]	; c3d8 <DWHCIDeviceChannelInterruptHandler+0x5cc>
    c19c:	e0022000 	and	r2, r2, r0
    c1a0:	e3520000 	cmp	r2, #0
    c1a4:	0a000016 	beq	c204 <DWHCIDeviceChannelInterruptHandler+0x3f8>
    c1a8:	e1a03000 	mov	r3, r0
    c1ac:	e59f2228 	ldr	r2, [pc, #552]	; c3dc <DWHCIDeviceChannelInterruptHandler+0x5d0>
    c1b0:	e3a01001 	mov	r1, #1
    c1b4:	e59f0224 	ldr	r0, [pc, #548]	; c3e0 <DWHCIDeviceChannelInterruptHandler+0x5d4>
    c1b8:	eb0035a1 	bl	19844 <LogWrite>
    c1bc:	e3a01000 	mov	r1, #0
    c1c0:	e1a00008 	mov	r0, r8
    c1c4:	eb000e35 	bl	faa0 <USBRequestSetStatus>
    c1c8:	e1a01006 	mov	r1, r6
    c1cc:	e1a00005 	mov	r0, r5
    c1d0:	ebfffaec 	bl	ad88 <DWHCIDeviceDisableChannelInterrupt>
    c1d4:	e1a00004 	mov	r0, r4
    c1d8:	eb000599 	bl	d844 <_DWHCITransferStageData>
    c1dc:	e1a00004 	mov	r0, r4
    c1e0:	eb002deb 	bl	17994 <free>
    c1e4:	e3a03000 	mov	r3, #0
    c1e8:	e5873008 	str	r3, [r7, #8]
    c1ec:	e1a01006 	mov	r1, r6
    c1f0:	e1a00005 	mov	r0, r5
    c1f4:	ebfffcb2 	bl	b4c4 <DWHCIDeviceFreeChannel>
    c1f8:	e1a00008 	mov	r0, r8
    c1fc:	eb000eb1 	bl	fcc8 <USBRequestCallCompletionRoutine>
    c200:	ea000066 	b	c3a0 <DWHCIDeviceChannelInterruptHandler+0x594>
    c204:	e599300c 	ldr	r3, [r9, #12]
    c208:	e1a01000 	mov	r1, r0
    c20c:	e1a00009 	mov	r0, r9
    c210:	e12fff33 	blx	r3
    c214:	e5993008 	ldr	r3, [r9, #8]
    c218:	e1a00009 	mov	r0, r9
    c21c:	e12fff33 	blx	r3
    c220:	e3500000 	cmp	r0, #0
    c224:	0a000003 	beq	c238 <DWHCIDeviceChannelInterruptHandler+0x42c>
    c228:	e1a01004 	mov	r1, r4
    c22c:	e1a00005 	mov	r0, r5
    c230:	ebfffbea 	bl	b1e0 <DWHCIDeviceStartTransaction>
    c234:	ea000059 	b	c3a0 <DWHCIDeviceChannelInterruptHandler+0x594>
    c238:	e1a00004 	mov	r0, r4
    c23c:	eb00089a 	bl	e4ac <DWHCITransferStageDataIsStageComplete>
    c240:	e3500000 	cmp	r0, #0
    c244:	1a000036 	bne	c324 <DWHCIDeviceChannelInterruptHandler+0x518>
    c248:	e1a00004 	mov	r0, r4
    c24c:	eb000633 	bl	db20 <DWHCITransferStageDataBeginSplitCycle>
    c250:	e3500000 	cmp	r0, #0
    c254:	1a000011 	bne	c2a0 <DWHCIDeviceChannelInterruptHandler+0x494>
    c258:	e3a01000 	mov	r1, #0
    c25c:	e1a00008 	mov	r0, r8
    c260:	eb000e0e 	bl	faa0 <USBRequestSetStatus>
    c264:	e1a01006 	mov	r1, r6
    c268:	e1a00005 	mov	r0, r5
    c26c:	ebfffac5 	bl	ad88 <DWHCIDeviceDisableChannelInterrupt>
    c270:	e1a00004 	mov	r0, r4
    c274:	eb000572 	bl	d844 <_DWHCITransferStageData>
    c278:	e1a00004 	mov	r0, r4
    c27c:	eb002dc4 	bl	17994 <free>
    c280:	e3a03000 	mov	r3, #0
    c284:	e5873008 	str	r3, [r7, #8]
    c288:	e1a01006 	mov	r1, r6
    c28c:	e1a00005 	mov	r0, r5
    c290:	ebfffc8b 	bl	b4c4 <DWHCIDeviceFreeChannel>
    c294:	e1a00008 	mov	r0, r8
    c298:	eb000e8a 	bl	fcc8 <USBRequestCallCompletionRoutine>
    c29c:	ea00003f 	b	c3a0 <DWHCIDeviceChannelInterruptHandler+0x594>
    c2a0:	e1a00004 	mov	r0, r4
    c2a4:	eb00062a 	bl	db54 <DWHCITransferStageDataIsPeriodic>
    c2a8:	e3500000 	cmp	r0, #0
    c2ac:	1a00000c 	bne	c2e4 <DWHCIDeviceChannelInterruptHandler+0x4d8>
    c2b0:	e3a01001 	mov	r1, #1
    c2b4:	e1a00004 	mov	r0, r4
    c2b8:	eb0005ea 	bl	da68 <DWHCITransferStageDataSetState>
    c2bc:	e3a01000 	mov	r1, #0
    c2c0:	e1a00004 	mov	r0, r4
    c2c4:	eb0005d3 	bl	da18 <DWHCITransferStageDataSetSplitComplete>
    c2c8:	e5993004 	ldr	r3, [r9, #4]
    c2cc:	e1a00009 	mov	r0, r9
    c2d0:	e12fff33 	blx	r3
    c2d4:	e1a01004 	mov	r1, r4
    c2d8:	e1a00005 	mov	r0, r5
    c2dc:	ebfffbbf 	bl	b1e0 <DWHCIDeviceStartTransaction>
    c2e0:	ea00002e 	b	c3a0 <DWHCIDeviceChannelInterruptHandler+0x594>
    c2e4:	e3a01003 	mov	r1, #3
    c2e8:	e1a00004 	mov	r0, r4
    c2ec:	eb0005dd 	bl	da68 <DWHCITransferStageDataSetState>
    c2f0:	e1a00008 	mov	r0, r8
    c2f4:	eb000dd6 	bl	fa54 <USBRequestGetEndpoint>
    c2f8:	eb000d23 	bl	f78c <USBEndpointGetInterval>
    c2fc:	e3a03064 	mov	r3, #100	; 0x64
    c300:	e0000093 	mul	r0, r3, r0
    c304:	e59f30d8 	ldr	r3, [pc, #216]	; c3e4 <DWHCIDeviceChannelInterruptHandler+0x5d8>
    c308:	e0803093 	umull	r3, r0, r3, r0
    c30c:	e1a03005 	mov	r3, r5
    c310:	e1a02004 	mov	r2, r4
    c314:	e59f10cc 	ldr	r1, [pc, #204]	; c3e8 <DWHCIDeviceChannelInterruptHandler+0x5dc>
    c318:	e1a00320 	lsr	r0, r0, #6
    c31c:	eb0034ef 	bl	196e0 <StartKernelTimer>
    c320:	ea00001e 	b	c3a0 <DWHCIDeviceChannelInterruptHandler+0x594>
    c324:	e1a01006 	mov	r1, r6
    c328:	e1a00005 	mov	r0, r5
    c32c:	ebfffa95 	bl	ad88 <DWHCIDeviceDisableChannelInterrupt>
    c330:	e1a00004 	mov	r0, r4
    c334:	eb000785 	bl	e150 <DWHCITransferStageDataIsStatusStage>
    c338:	e3500000 	cmp	r0, #0
    c33c:	1a000004 	bne	c354 <DWHCIDeviceChannelInterruptHandler+0x548>
    c340:	e1a00004 	mov	r0, r4
    c344:	eb000866 	bl	e4e4 <DWHCITransferStageDataGetResultLen>
    c348:	e1a01000 	mov	r1, r0
    c34c:	e1a00008 	mov	r0, r8
    c350:	eb000dde 	bl	fad0 <USBRequestSetResultLen>
    c354:	e3a01001 	mov	r1, #1
    c358:	e1a00008 	mov	r0, r8
    c35c:	eb000dcf 	bl	faa0 <USBRequestSetStatus>
    c360:	e1a00004 	mov	r0, r4
    c364:	eb000536 	bl	d844 <_DWHCITransferStageData>
    c368:	e1a00004 	mov	r0, r4
    c36c:	eb002d88 	bl	17994 <free>
    c370:	e3a03000 	mov	r3, #0
    c374:	e5873008 	str	r3, [r7, #8]
    c378:	e1a01006 	mov	r1, r6
    c37c:	e1a00005 	mov	r0, r5
    c380:	ebfffc4f 	bl	b4c4 <DWHCIDeviceFreeChannel>
    c384:	e1a00008 	mov	r0, r8
    c388:	eb000e4e 	bl	fcc8 <USBRequestCallCompletionRoutine>
    c38c:	ea000003 	b	c3a0 <DWHCIDeviceChannelInterruptHandler+0x594>
    c390:	e59f2058 	ldr	r2, [pc, #88]	; c3f0 <DWHCIDeviceChannelInterruptHandler+0x5e4>
    c394:	e59f100c 	ldr	r1, [pc, #12]	; c3a8 <DWHCIDeviceChannelInterruptHandler+0x59c>
    c398:	e59f0034 	ldr	r0, [pc, #52]	; c3d4 <DWHCIDeviceChannelInterruptHandler+0x5c8>
    c39c:	eb00353a 	bl	1988c <uspi_assertion_failed>
    c3a0:	e28dd01c 	add	sp, sp, #28
    c3a4:	e8bd8ff0 	pop	{r4, r5, r6, r7, r8, r9, sl, fp, pc}
    c3a8:	0001b4c8 	.word	0x0001b4c8
    c3ac:	0001b4d8 	.word	0x0001b4d8
    c3b0:	000003bf 	.word	0x000003bf
    c3b4:	0001b4e4 	.word	0x0001b4e4
    c3b8:	000003c2 	.word	0x000003c2
    c3bc:	0001b5a0 	.word	0x0001b5a0
    c3c0:	20980510 	.word	0x20980510
    c3c4:	20980508 	.word	0x20980508
    c3c8:	000003df 	.word	0x000003df
    c3cc:	0001b6a4 	.word	0x0001b6a4
    c3d0:	000003ea 	.word	0x000003ea
    c3d4:	0001d8fc 	.word	0x0001d8fc
    c3d8:	0000078c 	.word	0x0000078c
    c3dc:	0001b73c 	.word	0x0001b73c
    c3e0:	0001b4c0 	.word	0x0001b4c0
    c3e4:	10624dd3 	.word	0x10624dd3
    c3e8:	0000b30c 	.word	0x0000b30c
    c3ec:	000007dc 	.word	0x000007dc
    c3f0:	00000492 	.word	0x00000492

0000c3f4 <DWHCIDeviceInterruptHandler>:
    c3f4:	e92d41f0 	push	{r4, r5, r6, r7, r8, lr}
    c3f8:	e24dd028 	sub	sp, sp, #40	; 0x28
    c3fc:	e2507000 	subs	r7, r0, #0
    c400:	1a000003 	bne	c414 <DWHCIDeviceInterruptHandler+0x20>
    c404:	e59f20e8 	ldr	r2, [pc, #232]	; c4f4 <DWHCIDeviceInterruptHandler+0x100>
    c408:	e59f10e8 	ldr	r1, [pc, #232]	; c4f8 <DWHCIDeviceInterruptHandler+0x104>
    c40c:	e59f00e8 	ldr	r0, [pc, #232]	; c4fc <DWHCIDeviceInterruptHandler+0x108>
    c410:	eb00351d 	bl	1988c <uspi_assertion_failed>
    c414:	e3a03000 	mov	r3, #0
    c418:	ee073fba 	mcr	15, 0, r3, cr7, cr10, {5}
    c41c:	e59f10dc 	ldr	r1, [pc, #220]	; c500 <DWHCIDeviceInterruptHandler+0x10c>
    c420:	e28d001c 	add	r0, sp, #28
    c424:	eb0003d9 	bl	d390 <DWHCIRegister>
    c428:	e28d001c 	add	r0, sp, #28
    c42c:	eb000401 	bl	d438 <DWHCIRegisterRead>
    c430:	e28d001c 	add	r0, sp, #28
    c434:	eb000423 	bl	d4c8 <DWHCIRegisterGet>
    c438:	e3100402 	tst	r0, #33554432	; 0x2000000
    c43c:	0a000024 	beq	c4d4 <DWHCIDeviceInterruptHandler+0xe0>
    c440:	e59f10bc 	ldr	r1, [pc, #188]	; c504 <DWHCIDeviceInterruptHandler+0x110>
    c444:	e28d0004 	add	r0, sp, #4
    c448:	eb0003d0 	bl	d390 <DWHCIRegister>
    c44c:	e28d0004 	add	r0, sp, #4
    c450:	eb0003f8 	bl	d438 <DWHCIRegisterRead>
    c454:	e28d0004 	add	r0, sp, #4
    c458:	eb000405 	bl	d474 <DWHCIRegisterWrite>
    c45c:	e5973000 	ldr	r3, [r7]
    c460:	e3530000 	cmp	r3, #0
    c464:	0a000018 	beq	c4cc <DWHCIDeviceInterruptHandler+0xd8>
    c468:	e59f6098 	ldr	r6, [pc, #152]	; c508 <DWHCIDeviceInterruptHandler+0x114>
    c46c:	e3a04000 	mov	r4, #0
    c470:	e3a05001 	mov	r5, #1
    c474:	e1a08004 	mov	r8, r4
    c478:	e28d0004 	add	r0, sp, #4
    c47c:	eb000411 	bl	d4c8 <DWHCIRegisterGet>
    c480:	e1100005 	tst	r0, r5
    c484:	0a00000a 	beq	c4b4 <DWHCIDeviceInterruptHandler+0xc0>
    c488:	e1a02008 	mov	r2, r8
    c48c:	e1a01006 	mov	r1, r6
    c490:	e28d0010 	add	r0, sp, #16
    c494:	eb0003cb 	bl	d3c8 <DWHCIRegister2>
    c498:	e28d0010 	add	r0, sp, #16
    c49c:	eb0003f4 	bl	d474 <DWHCIRegisterWrite>
    c4a0:	e1a01004 	mov	r1, r4
    c4a4:	e1a00007 	mov	r0, r7
    c4a8:	ebfffe57 	bl	be0c <DWHCIDeviceChannelInterruptHandler>
    c4ac:	e28d0010 	add	r0, sp, #16
    c4b0:	eb0003d4 	bl	d408 <_DWHCIRegister>
    c4b4:	e1a05085 	lsl	r5, r5, #1
    c4b8:	e2844001 	add	r4, r4, #1
    c4bc:	e2866020 	add	r6, r6, #32
    c4c0:	e5973000 	ldr	r3, [r7]
    c4c4:	e1530004 	cmp	r3, r4
    c4c8:	8affffea 	bhi	c478 <DWHCIDeviceInterruptHandler+0x84>
    c4cc:	e28d0004 	add	r0, sp, #4
    c4d0:	eb0003cc 	bl	d408 <_DWHCIRegister>
    c4d4:	e28d001c 	add	r0, sp, #28
    c4d8:	eb0003e5 	bl	d474 <DWHCIRegisterWrite>
    c4dc:	e3a03000 	mov	r3, #0
    c4e0:	ee073fba 	mcr	15, 0, r3, cr7, cr10, {5}
    c4e4:	e28d001c 	add	r0, sp, #28
    c4e8:	eb0003c6 	bl	d408 <_DWHCIRegister>
    c4ec:	e28dd028 	add	sp, sp, #40	; 0x28
    c4f0:	e8bd81f0 	pop	{r4, r5, r6, r7, r8, pc}
    c4f4:	0000049a 	.word	0x0000049a
    c4f8:	0001b4c8 	.word	0x0001b4c8
    c4fc:	0001b4d8 	.word	0x0001b4d8
    c500:	20980014 	.word	0x20980014
    c504:	20980414 	.word	0x20980414
    c508:	2098050c 	.word	0x2098050c

0000c50c <DWHCIDeviceWaitForBit>:
    c50c:	e92d41f0 	push	{r4, r5, r6, r7, r8, lr}
    c510:	e1a05001 	mov	r5, r1
    c514:	e1a06002 	mov	r6, r2
    c518:	e1a07003 	mov	r7, r3
    c51c:	e59d4018 	ldr	r4, [sp, #24]
    c520:	e3500000 	cmp	r0, #0
    c524:	1a000003 	bne	c538 <DWHCIDeviceWaitForBit+0x2c>
    c528:	e3a02e52 	mov	r2, #1312	; 0x520
    c52c:	e59f10a0 	ldr	r1, [pc, #160]	; c5d4 <DWHCIDeviceWaitForBit+0xc8>
    c530:	e59f00a0 	ldr	r0, [pc, #160]	; c5d8 <DWHCIDeviceWaitForBit+0xcc>
    c534:	eb0034d4 	bl	1988c <uspi_assertion_failed>
    c538:	e3550000 	cmp	r5, #0
    c53c:	1a000003 	bne	c550 <DWHCIDeviceWaitForBit+0x44>
    c540:	e59f2094 	ldr	r2, [pc, #148]	; c5dc <DWHCIDeviceWaitForBit+0xd0>
    c544:	e59f1088 	ldr	r1, [pc, #136]	; c5d4 <DWHCIDeviceWaitForBit+0xc8>
    c548:	e59f0090 	ldr	r0, [pc, #144]	; c5e0 <DWHCIDeviceWaitForBit+0xd4>
    c54c:	eb0034ce 	bl	1988c <uspi_assertion_failed>
    c550:	e3560000 	cmp	r6, #0
    c554:	1a000003 	bne	c568 <DWHCIDeviceWaitForBit+0x5c>
    c558:	e59f2084 	ldr	r2, [pc, #132]	; c5e4 <DWHCIDeviceWaitForBit+0xd8>
    c55c:	e59f1070 	ldr	r1, [pc, #112]	; c5d4 <DWHCIDeviceWaitForBit+0xc8>
    c560:	e59f0080 	ldr	r0, [pc, #128]	; c5e8 <DWHCIDeviceWaitForBit+0xdc>
    c564:	eb0034c8 	bl	1988c <uspi_assertion_failed>
    c568:	e3540000 	cmp	r4, #0
    c56c:	1a000009 	bne	c598 <DWHCIDeviceWaitForBit+0x8c>
    c570:	e59f2074 	ldr	r2, [pc, #116]	; c5ec <DWHCIDeviceWaitForBit+0xe0>
    c574:	e59f1058 	ldr	r1, [pc, #88]	; c5d4 <DWHCIDeviceWaitForBit+0xc8>
    c578:	e59f0070 	ldr	r0, [pc, #112]	; c5f0 <DWHCIDeviceWaitForBit+0xe4>
    c57c:	eb0034c2 	bl	1988c <uspi_assertion_failed>
    c580:	ea000004 	b	c598 <DWHCIDeviceWaitForBit+0x8c>
    c584:	e1a00008 	mov	r0, r8
    c588:	eb003448 	bl	196b0 <MsDelay>
    c58c:	e2544001 	subs	r4, r4, #1
    c590:	1a000001 	bne	c59c <DWHCIDeviceWaitForBit+0x90>
    c594:	ea00000c 	b	c5cc <DWHCIDeviceWaitForBit+0xc0>
    c598:	e3a08001 	mov	r8, #1
    c59c:	e1a00005 	mov	r0, r5
    c5a0:	eb0003a4 	bl	d438 <DWHCIRegisterRead>
    c5a4:	e1160000 	tst	r6, r0
    c5a8:	116f3f17 	clzne	r3, r7
    c5ac:	11a032a3 	lsrne	r3, r3, #5
    c5b0:	1a000001 	bne	c5bc <DWHCIDeviceWaitForBit+0xb0>
    c5b4:	e2973000 	adds	r3, r7, #0
    c5b8:	13a03001 	movne	r3, #1
    c5bc:	e3530000 	cmp	r3, #0
    c5c0:	1affffef 	bne	c584 <DWHCIDeviceWaitForBit+0x78>
    c5c4:	e3a00001 	mov	r0, #1
    c5c8:	e8bd81f0 	pop	{r4, r5, r6, r7, r8, pc}
    c5cc:	e3a00000 	mov	r0, #0
    c5d0:	e8bd81f0 	pop	{r4, r5, r6, r7, r8, pc}
    c5d4:	0001b4c8 	.word	0x0001b4c8
    c5d8:	0001b4d8 	.word	0x0001b4d8
    c5dc:	00000522 	.word	0x00000522
    c5e0:	0001b760 	.word	0x0001b760
    c5e4:	00000523 	.word	0x00000523
    c5e8:	0001b770 	.word	0x0001b770
    c5ec:	00000524 	.word	0x00000524
    c5f0:	0001b77c 	.word	0x0001b77c

0000c5f4 <DWHCIDeviceEnableRootPort>:
    c5f4:	e92d4010 	push	{r4, lr}
    c5f8:	e24dd018 	sub	sp, sp, #24
    c5fc:	e2504000 	subs	r4, r0, #0
    c600:	1a000003 	bne	c614 <DWHCIDeviceEnableRootPort+0x20>
    c604:	e59f20c4 	ldr	r2, [pc, #196]	; c6d0 <DWHCIDeviceEnableRootPort+0xdc>
    c608:	e59f10c4 	ldr	r1, [pc, #196]	; c6d4 <DWHCIDeviceEnableRootPort+0xe0>
    c60c:	e59f00c4 	ldr	r0, [pc, #196]	; c6d8 <DWHCIDeviceEnableRootPort+0xe4>
    c610:	eb00349d 	bl	1988c <uspi_assertion_failed>
    c614:	e59f10c0 	ldr	r1, [pc, #192]	; c6dc <DWHCIDeviceEnableRootPort+0xe8>
    c618:	e28d000c 	add	r0, sp, #12
    c61c:	eb00035b 	bl	d390 <DWHCIRegister>
    c620:	e3a03014 	mov	r3, #20
    c624:	e58d3000 	str	r3, [sp]
    c628:	e3a03001 	mov	r3, #1
    c62c:	e1a02003 	mov	r2, r3
    c630:	e28d100c 	add	r1, sp, #12
    c634:	e1a00004 	mov	r0, r4
    c638:	ebffffb3 	bl	c50c <DWHCIDeviceWaitForBit>
    c63c:	e2504000 	subs	r4, r0, #0
    c640:	1a000002 	bne	c650 <DWHCIDeviceEnableRootPort+0x5c>
    c644:	e28d000c 	add	r0, sp, #12
    c648:	eb00036e 	bl	d408 <_DWHCIRegister>
    c64c:	ea00001c 	b	c6c4 <DWHCIDeviceEnableRootPort+0xd0>
    c650:	e3a00064 	mov	r0, #100	; 0x64
    c654:	eb003415 	bl	196b0 <MsDelay>
    c658:	e28d000c 	add	r0, sp, #12
    c65c:	eb000375 	bl	d438 <DWHCIRegisterRead>
    c660:	e3e0102e 	mvn	r1, #46	; 0x2e
    c664:	e28d000c 	add	r0, sp, #12
    c668:	eb0003ce 	bl	d5a8 <DWHCIRegisterAnd>
    c66c:	e3a01c01 	mov	r1, #256	; 0x100
    c670:	e28d000c 	add	r0, sp, #12
    c674:	eb0003e1 	bl	d600 <DWHCIRegisterOr>
    c678:	e28d000c 	add	r0, sp, #12
    c67c:	eb00037c 	bl	d474 <DWHCIRegisterWrite>
    c680:	e3a00032 	mov	r0, #50	; 0x32
    c684:	eb003409 	bl	196b0 <MsDelay>
    c688:	e28d000c 	add	r0, sp, #12
    c68c:	eb000369 	bl	d438 <DWHCIRegisterRead>
    c690:	e3e0102e 	mvn	r1, #46	; 0x2e
    c694:	e28d000c 	add	r0, sp, #12
    c698:	eb0003c2 	bl	d5a8 <DWHCIRegisterAnd>
    c69c:	e3e01c01 	mvn	r1, #256	; 0x100
    c6a0:	e28d000c 	add	r0, sp, #12
    c6a4:	eb0003bf 	bl	d5a8 <DWHCIRegisterAnd>
    c6a8:	e28d000c 	add	r0, sp, #12
    c6ac:	eb000370 	bl	d474 <DWHCIRegisterWrite>
    c6b0:	e3a00014 	mov	r0, #20
    c6b4:	eb0033fd 	bl	196b0 <MsDelay>
    c6b8:	e28d000c 	add	r0, sp, #12
    c6bc:	eb000351 	bl	d408 <_DWHCIRegister>
    c6c0:	e3a04001 	mov	r4, #1
    c6c4:	e1a00004 	mov	r0, r4
    c6c8:	e28dd018 	add	sp, sp, #24
    c6cc:	e8bd8010 	pop	{r4, pc}
    c6d0:	00000202 	.word	0x00000202
    c6d4:	0001b4c8 	.word	0x0001b4c8
    c6d8:	0001b4d8 	.word	0x0001b4d8
    c6dc:	20980440 	.word	0x20980440

0000c6e0 <DWHCIDeviceReset>:
    c6e0:	e92d4030 	push	{r4, r5, lr}
    c6e4:	e24dd01c 	sub	sp, sp, #28
    c6e8:	e2505000 	subs	r5, r0, #0
    c6ec:	1a000003 	bne	c700 <DWHCIDeviceReset+0x20>
    c6f0:	e59f20ac 	ldr	r2, [pc, #172]	; c7a4 <DWHCIDeviceReset+0xc4>
    c6f4:	e59f10ac 	ldr	r1, [pc, #172]	; c7a8 <DWHCIDeviceReset+0xc8>
    c6f8:	e59f00ac 	ldr	r0, [pc, #172]	; c7ac <DWHCIDeviceReset+0xcc>
    c6fc:	eb003462 	bl	1988c <uspi_assertion_failed>
    c700:	e3a02000 	mov	r2, #0
    c704:	e59f10a4 	ldr	r1, [pc, #164]	; c7b0 <DWHCIDeviceReset+0xd0>
    c708:	e28d000c 	add	r0, sp, #12
    c70c:	eb00032d 	bl	d3c8 <DWHCIRegister2>
    c710:	e3a03064 	mov	r3, #100	; 0x64
    c714:	e58d3000 	str	r3, [sp]
    c718:	e3a03001 	mov	r3, #1
    c71c:	e3a02102 	mov	r2, #-2147483648	; 0x80000000
    c720:	e28d100c 	add	r1, sp, #12
    c724:	e1a00005 	mov	r0, r5
    c728:	ebffff77 	bl	c50c <DWHCIDeviceWaitForBit>
    c72c:	e2504000 	subs	r4, r0, #0
    c730:	1a000002 	bne	c740 <DWHCIDeviceReset+0x60>
    c734:	e28d000c 	add	r0, sp, #12
    c738:	eb000332 	bl	d408 <_DWHCIRegister>
    c73c:	ea000015 	b	c798 <DWHCIDeviceReset+0xb8>
    c740:	e3a01001 	mov	r1, #1
    c744:	e28d000c 	add	r0, sp, #12
    c748:	eb0003ac 	bl	d600 <DWHCIRegisterOr>
    c74c:	e28d000c 	add	r0, sp, #12
    c750:	eb000347 	bl	d474 <DWHCIRegisterWrite>
    c754:	e3a0300a 	mov	r3, #10
    c758:	e58d3000 	str	r3, [sp]
    c75c:	e3a03000 	mov	r3, #0
    c760:	e3a02001 	mov	r2, #1
    c764:	e28d100c 	add	r1, sp, #12
    c768:	e1a00005 	mov	r0, r5
    c76c:	ebffff66 	bl	c50c <DWHCIDeviceWaitForBit>
    c770:	e2504000 	subs	r4, r0, #0
    c774:	1a000002 	bne	c784 <DWHCIDeviceReset+0xa4>
    c778:	e28d000c 	add	r0, sp, #12
    c77c:	eb000321 	bl	d408 <_DWHCIRegister>
    c780:	ea000004 	b	c798 <DWHCIDeviceReset+0xb8>
    c784:	e3a00064 	mov	r0, #100	; 0x64
    c788:	eb0033c8 	bl	196b0 <MsDelay>
    c78c:	e28d000c 	add	r0, sp, #12
    c790:	eb00031c 	bl	d408 <_DWHCIRegister>
    c794:	e3a04001 	mov	r4, #1
    c798:	e1a00004 	mov	r0, r4
    c79c:	e28dd01c 	add	sp, sp, #28
    c7a0:	e8bd8030 	pop	{r4, r5, pc}
    c7a4:	00000225 	.word	0x00000225
    c7a8:	0001b4c8 	.word	0x0001b4c8
    c7ac:	0001b4d8 	.word	0x0001b4d8
    c7b0:	20980010 	.word	0x20980010

0000c7b4 <DWHCIDeviceInitCore>:
    c7b4:	e92d4030 	push	{r4, r5, lr}
    c7b8:	e24dd02c 	sub	sp, sp, #44	; 0x2c
    c7bc:	e2504000 	subs	r4, r0, #0
    c7c0:	1a000003 	bne	c7d4 <DWHCIDeviceInitCore+0x20>
    c7c4:	e59f2220 	ldr	r2, [pc, #544]	; c9ec <DWHCIDeviceInitCore+0x238>
    c7c8:	e59f1220 	ldr	r1, [pc, #544]	; c9f0 <DWHCIDeviceInitCore+0x23c>
    c7cc:	e59f0220 	ldr	r0, [pc, #544]	; c9f4 <DWHCIDeviceInitCore+0x240>
    c7d0:	eb00342d 	bl	1988c <uspi_assertion_failed>
    c7d4:	e59f121c 	ldr	r1, [pc, #540]	; c9f8 <DWHCIDeviceInitCore+0x244>
    c7d8:	e28d001c 	add	r0, sp, #28
    c7dc:	eb0002eb 	bl	d390 <DWHCIRegister>
    c7e0:	e28d001c 	add	r0, sp, #28
    c7e4:	eb000313 	bl	d438 <DWHCIRegisterRead>
    c7e8:	e3e01601 	mvn	r1, #1048576	; 0x100000
    c7ec:	e28d001c 	add	r0, sp, #28
    c7f0:	eb00036c 	bl	d5a8 <DWHCIRegisterAnd>
    c7f4:	e3e01501 	mvn	r1, #4194304	; 0x400000
    c7f8:	e28d001c 	add	r0, sp, #28
    c7fc:	eb000369 	bl	d5a8 <DWHCIRegisterAnd>
    c800:	e28d001c 	add	r0, sp, #28
    c804:	eb00031a 	bl	d474 <DWHCIRegisterWrite>
    c808:	e1a00004 	mov	r0, r4
    c80c:	ebffffb3 	bl	c6e0 <DWHCIDeviceReset>
    c810:	e2505000 	subs	r5, r0, #0
    c814:	1a000004 	bne	c82c <DWHCIDeviceInitCore+0x78>
    c818:	e59f21dc 	ldr	r2, [pc, #476]	; c9fc <DWHCIDeviceInitCore+0x248>
    c81c:	e3a01001 	mov	r1, #1
    c820:	e59f01d8 	ldr	r0, [pc, #472]	; ca00 <DWHCIDeviceInitCore+0x24c>
    c824:	eb003406 	bl	19844 <LogWrite>
    c828:	ea00006c 	b	c9e0 <DWHCIDeviceInitCore+0x22c>
    c82c:	e28d001c 	add	r0, sp, #28
    c830:	eb000300 	bl	d438 <DWHCIRegisterRead>
    c834:	e3e01010 	mvn	r1, #16
    c838:	e28d001c 	add	r0, sp, #28
    c83c:	eb000359 	bl	d5a8 <DWHCIRegisterAnd>
    c840:	e3e01008 	mvn	r1, #8
    c844:	e28d001c 	add	r0, sp, #28
    c848:	eb000356 	bl	d5a8 <DWHCIRegisterAnd>
    c84c:	e28d001c 	add	r0, sp, #28
    c850:	eb000307 	bl	d474 <DWHCIRegisterWrite>
    c854:	e59f11a8 	ldr	r1, [pc, #424]	; ca04 <DWHCIDeviceInitCore+0x250>
    c858:	e28d0010 	add	r0, sp, #16
    c85c:	eb0002cb 	bl	d390 <DWHCIRegister>
    c860:	e28d0010 	add	r0, sp, #16
    c864:	eb0002f3 	bl	d438 <DWHCIRegisterRead>
    c868:	e28d0010 	add	r0, sp, #16
    c86c:	eb000315 	bl	d4c8 <DWHCIRegisterGet>
    c870:	e1a001a0 	lsr	r0, r0, #3
    c874:	e2000003 	and	r0, r0, #3
    c878:	e3500002 	cmp	r0, #2
    c87c:	0a000003 	beq	c890 <DWHCIDeviceInitCore+0xdc>
    c880:	e59f2180 	ldr	r2, [pc, #384]	; ca08 <DWHCIDeviceInitCore+0x254>
    c884:	e59f1164 	ldr	r1, [pc, #356]	; c9f0 <DWHCIDeviceInitCore+0x23c>
    c888:	e59f017c 	ldr	r0, [pc, #380]	; ca0c <DWHCIDeviceInitCore+0x258>
    c88c:	eb0033fe 	bl	1988c <uspi_assertion_failed>
    c890:	e28d001c 	add	r0, sp, #28
    c894:	eb0002e7 	bl	d438 <DWHCIRegisterRead>
    c898:	e28d0010 	add	r0, sp, #16
    c89c:	eb000309 	bl	d4c8 <DWHCIRegisterGet>
    c8a0:	e1a00320 	lsr	r0, r0, #6
    c8a4:	e2000003 	and	r0, r0, #3
    c8a8:	e3500002 	cmp	r0, #2
    c8ac:	1a00000c 	bne	c8e4 <DWHCIDeviceInitCore+0x130>
    c8b0:	e28d0010 	add	r0, sp, #16
    c8b4:	eb000303 	bl	d4c8 <DWHCIRegisterGet>
    c8b8:	e1a00420 	lsr	r0, r0, #8
    c8bc:	e2000003 	and	r0, r0, #3
    c8c0:	e3500001 	cmp	r0, #1
    c8c4:	1a000006 	bne	c8e4 <DWHCIDeviceInitCore+0x130>
    c8c8:	e3a01802 	mov	r1, #131072	; 0x20000
    c8cc:	e28d001c 	add	r0, sp, #28
    c8d0:	eb00034a 	bl	d600 <DWHCIRegisterOr>
    c8d4:	e3a01702 	mov	r1, #524288	; 0x80000
    c8d8:	e28d001c 	add	r0, sp, #28
    c8dc:	eb000347 	bl	d600 <DWHCIRegisterOr>
    c8e0:	ea000005 	b	c8fc <DWHCIDeviceInitCore+0x148>
    c8e4:	e3e01802 	mvn	r1, #131072	; 0x20000
    c8e8:	e28d001c 	add	r0, sp, #28
    c8ec:	eb00032d 	bl	d5a8 <DWHCIRegisterAnd>
    c8f0:	e3e01702 	mvn	r1, #524288	; 0x80000
    c8f4:	e28d001c 	add	r0, sp, #28
    c8f8:	eb00032a 	bl	d5a8 <DWHCIRegisterAnd>
    c8fc:	e28d001c 	add	r0, sp, #28
    c900:	eb0002db 	bl	d474 <DWHCIRegisterWrite>
    c904:	e5943000 	ldr	r3, [r4]
    c908:	e3530000 	cmp	r3, #0
    c90c:	0a000003 	beq	c920 <DWHCIDeviceInitCore+0x16c>
    c910:	e59f20f8 	ldr	r2, [pc, #248]	; ca10 <DWHCIDeviceInitCore+0x25c>
    c914:	e59f10d4 	ldr	r1, [pc, #212]	; c9f0 <DWHCIDeviceInitCore+0x23c>
    c918:	e59f00f4 	ldr	r0, [pc, #244]	; ca14 <DWHCIDeviceInitCore+0x260>
    c91c:	eb0033da 	bl	1988c <uspi_assertion_failed>
    c920:	e28d0010 	add	r0, sp, #16
    c924:	eb0002e7 	bl	d4c8 <DWHCIRegisterGet>
    c928:	e1a00720 	lsr	r0, r0, #14
    c92c:	e200000f 	and	r0, r0, #15
    c930:	e2803001 	add	r3, r0, #1
    c934:	e5843000 	str	r3, [r4]
    c938:	e2400003 	sub	r0, r0, #3
    c93c:	e350000c 	cmp	r0, #12
    c940:	9a000003 	bls	c954 <DWHCIDeviceInitCore+0x1a0>
    c944:	e59f20cc 	ldr	r2, [pc, #204]	; ca18 <DWHCIDeviceInitCore+0x264>
    c948:	e59f10a0 	ldr	r1, [pc, #160]	; c9f0 <DWHCIDeviceInitCore+0x23c>
    c94c:	e59f00c8 	ldr	r0, [pc, #200]	; ca1c <DWHCIDeviceInitCore+0x268>
    c950:	eb0033cd 	bl	1988c <uspi_assertion_failed>
    c954:	e59f10c4 	ldr	r1, [pc, #196]	; ca20 <DWHCIDeviceInitCore+0x26c>
    c958:	e28d0004 	add	r0, sp, #4
    c95c:	eb00028b 	bl	d390 <DWHCIRegister>
    c960:	e28d0004 	add	r0, sp, #4
    c964:	eb0002b3 	bl	d438 <DWHCIRegisterRead>
    c968:	e3a01020 	mov	r1, #32
    c96c:	e28d0004 	add	r0, sp, #4
    c970:	eb000322 	bl	d600 <DWHCIRegisterOr>
    c974:	e3a01010 	mov	r1, #16
    c978:	e28d0004 	add	r0, sp, #4
    c97c:	eb00031f 	bl	d600 <DWHCIRegisterOr>
    c980:	e3e01006 	mvn	r1, #6
    c984:	e28d0004 	add	r0, sp, #4
    c988:	eb000306 	bl	d5a8 <DWHCIRegisterAnd>
    c98c:	e28d0004 	add	r0, sp, #4
    c990:	eb0002b7 	bl	d474 <DWHCIRegisterWrite>
    c994:	e28d001c 	add	r0, sp, #28
    c998:	eb0002a6 	bl	d438 <DWHCIRegisterRead>
    c99c:	e3e01c02 	mvn	r1, #512	; 0x200
    c9a0:	e28d001c 	add	r0, sp, #28
    c9a4:	eb0002ff 	bl	d5a8 <DWHCIRegisterAnd>
    c9a8:	e3e01c01 	mvn	r1, #256	; 0x100
    c9ac:	e28d001c 	add	r0, sp, #28
    c9b0:	eb0002fc 	bl	d5a8 <DWHCIRegisterAnd>
    c9b4:	e28d001c 	add	r0, sp, #28
    c9b8:	eb0002ad 	bl	d474 <DWHCIRegisterWrite>
    c9bc:	e1a00004 	mov	r0, r4
    c9c0:	ebfff89c 	bl	ac38 <DWHCIDeviceEnableCommonInterrupts>
    c9c4:	e28d0004 	add	r0, sp, #4
    c9c8:	eb00028e 	bl	d408 <_DWHCIRegister>
    c9cc:	e28d0010 	add	r0, sp, #16
    c9d0:	eb00028c 	bl	d408 <_DWHCIRegister>
    c9d4:	e28d001c 	add	r0, sp, #28
    c9d8:	eb00028a 	bl	d408 <_DWHCIRegister>
    c9dc:	e3a05001 	mov	r5, #1
    c9e0:	e1a00005 	mov	r0, r5
    c9e4:	e28dd02c 	add	sp, sp, #44	; 0x2c
    c9e8:	e8bd8030 	pop	{r4, r5, pc}
    c9ec:	0000016d 	.word	0x0000016d
    c9f0:	0001b4c8 	.word	0x0001b4c8
    c9f4:	0001b4d8 	.word	0x0001b4d8
    c9f8:	2098000c 	.word	0x2098000c
    c9fc:	0001b78c 	.word	0x0001b78c
    ca00:	0001b4c0 	.word	0x0001b4c0
    ca04:	20980048 	.word	0x20980048
    ca08:	00000185 	.word	0x00000185
    ca0c:	0001b79c 	.word	0x0001b79c
    ca10:	00000195 	.word	0x00000195
    ca14:	0001b7e4 	.word	0x0001b7e4
    ca18:	00000197 	.word	0x00000197
    ca1c:	0001b7fc 	.word	0x0001b7fc
    ca20:	20980008 	.word	0x20980008

0000ca24 <DWHCIDeviceFlushTxFIFO>:
    ca24:	e92d4030 	push	{r4, r5, lr}
    ca28:	e24dd01c 	sub	sp, sp, #28
    ca2c:	e1a05001 	mov	r5, r1
    ca30:	e2504000 	subs	r4, r0, #0
    ca34:	1a000003 	bne	ca48 <DWHCIDeviceFlushTxFIFO+0x24>
    ca38:	e59f2080 	ldr	r2, [pc, #128]	; cac0 <DWHCIDeviceFlushTxFIFO+0x9c>
    ca3c:	e59f1080 	ldr	r1, [pc, #128]	; cac4 <DWHCIDeviceFlushTxFIFO+0xa0>
    ca40:	e59f0080 	ldr	r0, [pc, #128]	; cac8 <DWHCIDeviceFlushTxFIFO+0xa4>
    ca44:	eb003390 	bl	1988c <uspi_assertion_failed>
    ca48:	e3a02000 	mov	r2, #0
    ca4c:	e59f1078 	ldr	r1, [pc, #120]	; cacc <DWHCIDeviceFlushTxFIFO+0xa8>
    ca50:	e28d000c 	add	r0, sp, #12
    ca54:	eb00025b 	bl	d3c8 <DWHCIRegister2>
    ca58:	e3a01020 	mov	r1, #32
    ca5c:	e28d000c 	add	r0, sp, #12
    ca60:	eb0002e6 	bl	d600 <DWHCIRegisterOr>
    ca64:	e3e01d1f 	mvn	r1, #1984	; 0x7c0
    ca68:	e28d000c 	add	r0, sp, #12
    ca6c:	eb0002cd 	bl	d5a8 <DWHCIRegisterAnd>
    ca70:	e1a01305 	lsl	r1, r5, #6
    ca74:	e28d000c 	add	r0, sp, #12
    ca78:	eb0002e0 	bl	d600 <DWHCIRegisterOr>
    ca7c:	e28d000c 	add	r0, sp, #12
    ca80:	eb00027b 	bl	d474 <DWHCIRegisterWrite>
    ca84:	e3a0300a 	mov	r3, #10
    ca88:	e58d3000 	str	r3, [sp]
    ca8c:	e3a03000 	mov	r3, #0
    ca90:	e3a02020 	mov	r2, #32
    ca94:	e28d100c 	add	r1, sp, #12
    ca98:	e1a00004 	mov	r0, r4
    ca9c:	ebfffe9a 	bl	c50c <DWHCIDeviceWaitForBit>
    caa0:	e3500000 	cmp	r0, #0
    caa4:	0a000001 	beq	cab0 <DWHCIDeviceFlushTxFIFO+0x8c>
    caa8:	e3a00001 	mov	r0, #1
    caac:	eb003305 	bl	196c8 <usDelay>
    cab0:	e28d000c 	add	r0, sp, #12
    cab4:	eb000253 	bl	d408 <_DWHCIRegister>
    cab8:	e28dd01c 	add	sp, sp, #28
    cabc:	e8bd8030 	pop	{r4, r5, pc}
    cac0:	000002a3 	.word	0x000002a3
    cac4:	0001b4c8 	.word	0x0001b4c8
    cac8:	0001b4d8 	.word	0x0001b4d8
    cacc:	20980010 	.word	0x20980010

0000cad0 <DWHCIDeviceFlushRxFIFO>:
    cad0:	e92d4010 	push	{r4, lr}
    cad4:	e24dd018 	sub	sp, sp, #24
    cad8:	e2504000 	subs	r4, r0, #0
    cadc:	1a000003 	bne	caf0 <DWHCIDeviceFlushRxFIFO+0x20>
    cae0:	e59f2068 	ldr	r2, [pc, #104]	; cb50 <DWHCIDeviceFlushRxFIFO+0x80>
    cae4:	e59f1068 	ldr	r1, [pc, #104]	; cb54 <DWHCIDeviceFlushRxFIFO+0x84>
    cae8:	e59f0068 	ldr	r0, [pc, #104]	; cb58 <DWHCIDeviceFlushRxFIFO+0x88>
    caec:	eb003366 	bl	1988c <uspi_assertion_failed>
    caf0:	e3a02000 	mov	r2, #0
    caf4:	e59f1060 	ldr	r1, [pc, #96]	; cb5c <DWHCIDeviceFlushRxFIFO+0x8c>
    caf8:	e28d000c 	add	r0, sp, #12
    cafc:	eb000231 	bl	d3c8 <DWHCIRegister2>
    cb00:	e3a01010 	mov	r1, #16
    cb04:	e28d000c 	add	r0, sp, #12
    cb08:	eb0002bc 	bl	d600 <DWHCIRegisterOr>
    cb0c:	e28d000c 	add	r0, sp, #12
    cb10:	eb000257 	bl	d474 <DWHCIRegisterWrite>
    cb14:	e3a0300a 	mov	r3, #10
    cb18:	e58d3000 	str	r3, [sp]
    cb1c:	e3a03000 	mov	r3, #0
    cb20:	e3a02010 	mov	r2, #16
    cb24:	e28d100c 	add	r1, sp, #12
    cb28:	e1a00004 	mov	r0, r4
    cb2c:	ebfffe76 	bl	c50c <DWHCIDeviceWaitForBit>
    cb30:	e3500000 	cmp	r0, #0
    cb34:	0a000001 	beq	cb40 <DWHCIDeviceFlushRxFIFO+0x70>
    cb38:	e3a00001 	mov	r0, #1
    cb3c:	eb0032e1 	bl	196c8 <usDelay>
    cb40:	e28d000c 	add	r0, sp, #12
    cb44:	eb00022f 	bl	d408 <_DWHCIRegister>
    cb48:	e28dd018 	add	sp, sp, #24
    cb4c:	e8bd8010 	pop	{r4, pc}
    cb50:	000002b6 	.word	0x000002b6
    cb54:	0001b4c8 	.word	0x0001b4c8
    cb58:	0001b4d8 	.word	0x0001b4d8
    cb5c:	20980010 	.word	0x20980010

0000cb60 <DWHCIDeviceInitHost>:
    cb60:	e92d4010 	push	{r4, lr}
    cb64:	e24dd060 	sub	sp, sp, #96	; 0x60
    cb68:	e2504000 	subs	r4, r0, #0
    cb6c:	1a000003 	bne	cb80 <DWHCIDeviceInitHost+0x20>
    cb70:	e3a02f6d 	mov	r2, #436	; 0x1b4
    cb74:	e59f11dc 	ldr	r1, [pc, #476]	; cd58 <DWHCIDeviceInitHost+0x1f8>
    cb78:	e59f01dc 	ldr	r0, [pc, #476]	; cd5c <DWHCIDeviceInitHost+0x1fc>
    cb7c:	eb003342 	bl	1988c <uspi_assertion_failed>
    cb80:	e3a02000 	mov	r2, #0
    cb84:	e59f11d4 	ldr	r1, [pc, #468]	; cd60 <DWHCIDeviceInitHost+0x200>
    cb88:	e28d0054 	add	r0, sp, #84	; 0x54
    cb8c:	eb00020d 	bl	d3c8 <DWHCIRegister2>
    cb90:	e28d0054 	add	r0, sp, #84	; 0x54
    cb94:	eb000236 	bl	d474 <DWHCIRegisterWrite>
    cb98:	e59f11c4 	ldr	r1, [pc, #452]	; cd64 <DWHCIDeviceInitHost+0x204>
    cb9c:	e28d0048 	add	r0, sp, #72	; 0x48
    cba0:	eb0001fa 	bl	d390 <DWHCIRegister>
    cba4:	e28d0048 	add	r0, sp, #72	; 0x48
    cba8:	eb000222 	bl	d438 <DWHCIRegisterRead>
    cbac:	e3e01003 	mvn	r1, #3
    cbb0:	e28d0048 	add	r0, sp, #72	; 0x48
    cbb4:	eb00027b 	bl	d5a8 <DWHCIRegisterAnd>
    cbb8:	e59f11a8 	ldr	r1, [pc, #424]	; cd68 <DWHCIDeviceInitHost+0x208>
    cbbc:	e28d003c 	add	r0, sp, #60	; 0x3c
    cbc0:	eb0001f2 	bl	d390 <DWHCIRegister>
    cbc4:	e59f11a0 	ldr	r1, [pc, #416]	; cd6c <DWHCIDeviceInitHost+0x20c>
    cbc8:	e28d0030 	add	r0, sp, #48	; 0x30
    cbcc:	eb0001ef 	bl	d390 <DWHCIRegister>
    cbd0:	e28d003c 	add	r0, sp, #60	; 0x3c
    cbd4:	eb000217 	bl	d438 <DWHCIRegisterRead>
    cbd8:	e1a00320 	lsr	r0, r0, #6
    cbdc:	e2000003 	and	r0, r0, #3
    cbe0:	e3500002 	cmp	r0, #2
    cbe4:	1a00000d 	bne	cc20 <DWHCIDeviceInitHost+0xc0>
    cbe8:	e28d003c 	add	r0, sp, #60	; 0x3c
    cbec:	eb000235 	bl	d4c8 <DWHCIRegisterGet>
    cbf0:	e1a00420 	lsr	r0, r0, #8
    cbf4:	e2000003 	and	r0, r0, #3
    cbf8:	e3500001 	cmp	r0, #1
    cbfc:	1a000007 	bne	cc20 <DWHCIDeviceInitHost+0xc0>
    cc00:	e28d0030 	add	r0, sp, #48	; 0x30
    cc04:	eb00020b 	bl	d438 <DWHCIRegisterRead>
    cc08:	e3100802 	tst	r0, #131072	; 0x20000
    cc0c:	0a000003 	beq	cc20 <DWHCIDeviceInitHost+0xc0>
    cc10:	e3a01001 	mov	r1, #1
    cc14:	e28d0048 	add	r0, sp, #72	; 0x48
    cc18:	eb000278 	bl	d600 <DWHCIRegisterOr>
    cc1c:	ea000002 	b	cc2c <DWHCIDeviceInitHost+0xcc>
    cc20:	e3a01000 	mov	r1, #0
    cc24:	e28d0048 	add	r0, sp, #72	; 0x48
    cc28:	eb000274 	bl	d600 <DWHCIRegisterOr>
    cc2c:	e28d0048 	add	r0, sp, #72	; 0x48
    cc30:	eb00020f 	bl	d474 <DWHCIRegisterWrite>
    cc34:	e3a02b01 	mov	r2, #1024	; 0x400
    cc38:	e59f1130 	ldr	r1, [pc, #304]	; cd70 <DWHCIDeviceInitHost+0x210>
    cc3c:	e28d0024 	add	r0, sp, #36	; 0x24
    cc40:	eb0001e0 	bl	d3c8 <DWHCIRegister2>
    cc44:	e28d0024 	add	r0, sp, #36	; 0x24
    cc48:	eb000209 	bl	d474 <DWHCIRegisterWrite>
    cc4c:	e3a02000 	mov	r2, #0
    cc50:	e59f111c 	ldr	r1, [pc, #284]	; cd74 <DWHCIDeviceInitHost+0x214>
    cc54:	e28d0018 	add	r0, sp, #24
    cc58:	eb0001da 	bl	d3c8 <DWHCIRegister2>
    cc5c:	e3a01b01 	mov	r1, #1024	; 0x400
    cc60:	e28d0018 	add	r0, sp, #24
    cc64:	eb000265 	bl	d600 <DWHCIRegisterOr>
    cc68:	e3a01301 	mov	r1, #67108864	; 0x4000000
    cc6c:	e28d0018 	add	r0, sp, #24
    cc70:	eb000262 	bl	d600 <DWHCIRegisterOr>
    cc74:	e28d0018 	add	r0, sp, #24
    cc78:	eb0001fd 	bl	d474 <DWHCIRegisterWrite>
    cc7c:	e3a02000 	mov	r2, #0
    cc80:	e59f10f0 	ldr	r1, [pc, #240]	; cd78 <DWHCIDeviceInitHost+0x218>
    cc84:	e28d000c 	add	r0, sp, #12
    cc88:	eb0001ce 	bl	d3c8 <DWHCIRegister2>
    cc8c:	e3a01b02 	mov	r1, #2048	; 0x800
    cc90:	e28d000c 	add	r0, sp, #12
    cc94:	eb000259 	bl	d600 <DWHCIRegisterOr>
    cc98:	e3a01301 	mov	r1, #67108864	; 0x4000000
    cc9c:	e28d000c 	add	r0, sp, #12
    cca0:	eb000256 	bl	d600 <DWHCIRegisterOr>
    cca4:	e28d000c 	add	r0, sp, #12
    cca8:	eb0001f1 	bl	d474 <DWHCIRegisterWrite>
    ccac:	e3a01010 	mov	r1, #16
    ccb0:	e1a00004 	mov	r0, r4
    ccb4:	ebffff5a 	bl	ca24 <DWHCIDeviceFlushTxFIFO>
    ccb8:	e1a00004 	mov	r0, r4
    ccbc:	ebffff83 	bl	cad0 <DWHCIDeviceFlushRxFIFO>
    ccc0:	e59f10b4 	ldr	r1, [pc, #180]	; cd7c <DWHCIDeviceInitHost+0x21c>
    ccc4:	e1a0000d 	mov	r0, sp
    ccc8:	eb0001b0 	bl	d390 <DWHCIRegister>
    cccc:	e1a0000d 	mov	r0, sp
    ccd0:	eb0001d8 	bl	d438 <DWHCIRegisterRead>
    ccd4:	e3e0102e 	mvn	r1, #46	; 0x2e
    ccd8:	e1a0000d 	mov	r0, sp
    ccdc:	eb000231 	bl	d5a8 <DWHCIRegisterAnd>
    cce0:	e1a0000d 	mov	r0, sp
    cce4:	eb0001f7 	bl	d4c8 <DWHCIRegisterGet>
    cce8:	e3100a01 	tst	r0, #4096	; 0x1000
    ccec:	1a000004 	bne	cd04 <DWHCIDeviceInitHost+0x1a4>
    ccf0:	e3a01a01 	mov	r1, #4096	; 0x1000
    ccf4:	e1a0000d 	mov	r0, sp
    ccf8:	eb000240 	bl	d600 <DWHCIRegisterOr>
    ccfc:	e1a0000d 	mov	r0, sp
    cd00:	eb0001db 	bl	d474 <DWHCIRegisterWrite>
    cd04:	e1a00004 	mov	r0, r4
    cd08:	ebfff7e1 	bl	ac94 <DWHCIDeviceEnableHostInterrupts>
    cd0c:	e1a0000d 	mov	r0, sp
    cd10:	eb0001bc 	bl	d408 <_DWHCIRegister>
    cd14:	e28d000c 	add	r0, sp, #12
    cd18:	eb0001ba 	bl	d408 <_DWHCIRegister>
    cd1c:	e28d0018 	add	r0, sp, #24
    cd20:	eb0001b8 	bl	d408 <_DWHCIRegister>
    cd24:	e28d0024 	add	r0, sp, #36	; 0x24
    cd28:	eb0001b6 	bl	d408 <_DWHCIRegister>
    cd2c:	e28d0030 	add	r0, sp, #48	; 0x30
    cd30:	eb0001b4 	bl	d408 <_DWHCIRegister>
    cd34:	e28d003c 	add	r0, sp, #60	; 0x3c
    cd38:	eb0001b2 	bl	d408 <_DWHCIRegister>
    cd3c:	e28d0048 	add	r0, sp, #72	; 0x48
    cd40:	eb0001b0 	bl	d408 <_DWHCIRegister>
    cd44:	e28d0054 	add	r0, sp, #84	; 0x54
    cd48:	eb0001ae 	bl	d408 <_DWHCIRegister>
    cd4c:	e3a00001 	mov	r0, #1
    cd50:	e28dd060 	add	sp, sp, #96	; 0x60
    cd54:	e8bd8010 	pop	{r4, pc}
    cd58:	0001b4c8 	.word	0x0001b4c8
    cd5c:	0001b4d8 	.word	0x0001b4d8
    cd60:	20980e00 	.word	0x20980e00
    cd64:	20980400 	.word	0x20980400
    cd68:	20980048 	.word	0x20980048
    cd6c:	2098000c 	.word	0x2098000c
    cd70:	20980024 	.word	0x20980024
    cd74:	20980028 	.word	0x20980028
    cd78:	20980100 	.word	0x20980100
    cd7c:	20980440 	.word	0x20980440

0000cd80 <DWHCIDeviceInitialize>:
    cd80:	e92d4030 	push	{r4, r5, lr}
    cd84:	e24dd01c 	sub	sp, sp, #28
    cd88:	e2505000 	subs	r5, r0, #0
    cd8c:	1a000003 	bne	cda0 <DWHCIDeviceInitialize+0x20>
    cd90:	e3a02072 	mov	r2, #114	; 0x72
    cd94:	e59f11c4 	ldr	r1, [pc, #452]	; cf60 <DWHCIDeviceInitialize+0x1e0>
    cd98:	e59f01c4 	ldr	r0, [pc, #452]	; cf64 <DWHCIDeviceInitialize+0x1e4>
    cd9c:	eb0032ba 	bl	1988c <uspi_assertion_failed>
    cda0:	e3a03000 	mov	r3, #0
    cda4:	ee073fba 	mcr	15, 0, r3, cr7, cr10, {5}
    cda8:	e59f11b8 	ldr	r1, [pc, #440]	; cf68 <DWHCIDeviceInitialize+0x1e8>
    cdac:	e28d000c 	add	r0, sp, #12
    cdb0:	eb000176 	bl	d390 <DWHCIRegister>
    cdb4:	e28d000c 	add	r0, sp, #12
    cdb8:	eb00019e 	bl	d438 <DWHCIRegisterRead>
    cdbc:	e59f31a8 	ldr	r3, [pc, #424]	; cf6c <DWHCIDeviceInitialize+0x1ec>
    cdc0:	e1500003 	cmp	r0, r3
    cdc4:	0a00000a 	beq	cdf4 <DWHCIDeviceInitialize+0x74>
    cdc8:	e28d000c 	add	r0, sp, #12
    cdcc:	eb0001bd 	bl	d4c8 <DWHCIRegisterGet>
    cdd0:	e1a03000 	mov	r3, r0
    cdd4:	e59f2194 	ldr	r2, [pc, #404]	; cf70 <DWHCIDeviceInitialize+0x1f0>
    cdd8:	e3a01001 	mov	r1, #1
    cddc:	e59f0190 	ldr	r0, [pc, #400]	; cf74 <DWHCIDeviceInitialize+0x1f4>
    cde0:	eb003297 	bl	19844 <LogWrite>
    cde4:	e28d000c 	add	r0, sp, #12
    cde8:	eb000186 	bl	d408 <_DWHCIRegister>
    cdec:	e3a04000 	mov	r4, #0
    cdf0:	ea000057 	b	cf54 <DWHCIDeviceInitialize+0x1d4>
    cdf4:	e3a00003 	mov	r0, #3
    cdf8:	eb003256 	bl	19758 <SetPowerStateOn>
    cdfc:	e2504000 	subs	r4, r0, #0
    ce00:	1a000006 	bne	ce20 <DWHCIDeviceInitialize+0xa0>
    ce04:	e59f216c 	ldr	r2, [pc, #364]	; cf78 <DWHCIDeviceInitialize+0x1f8>
    ce08:	e3a01001 	mov	r1, #1
    ce0c:	e59f0160 	ldr	r0, [pc, #352]	; cf74 <DWHCIDeviceInitialize+0x1f4>
    ce10:	eb00328b 	bl	19844 <LogWrite>
    ce14:	e28d000c 	add	r0, sp, #12
    ce18:	eb00017a 	bl	d408 <_DWHCIRegister>
    ce1c:	ea00004c 	b	cf54 <DWHCIDeviceInitialize+0x1d4>
    ce20:	e59f1154 	ldr	r1, [pc, #340]	; cf7c <DWHCIDeviceInitialize+0x1fc>
    ce24:	e1a0000d 	mov	r0, sp
    ce28:	eb000158 	bl	d390 <DWHCIRegister>
    ce2c:	e1a0000d 	mov	r0, sp
    ce30:	eb000180 	bl	d438 <DWHCIRegisterRead>
    ce34:	e3e01001 	mvn	r1, #1
    ce38:	e1a0000d 	mov	r0, sp
    ce3c:	eb0001d9 	bl	d5a8 <DWHCIRegisterAnd>
    ce40:	e1a0000d 	mov	r0, sp
    ce44:	eb00018a 	bl	d474 <DWHCIRegisterWrite>
    ce48:	e1a02005 	mov	r2, r5
    ce4c:	e59f112c 	ldr	r1, [pc, #300]	; cf80 <DWHCIDeviceInitialize+0x200>
    ce50:	e3a00009 	mov	r0, #9
    ce54:	eb003235 	bl	19730 <ConnectInterrupt>
    ce58:	e1a00005 	mov	r0, r5
    ce5c:	ebfffe54 	bl	c7b4 <DWHCIDeviceInitCore>
    ce60:	e2504000 	subs	r4, r0, #0
    ce64:	1a000008 	bne	ce8c <DWHCIDeviceInitialize+0x10c>
    ce68:	e59f2114 	ldr	r2, [pc, #276]	; cf84 <DWHCIDeviceInitialize+0x204>
    ce6c:	e3a01001 	mov	r1, #1
    ce70:	e59f00fc 	ldr	r0, [pc, #252]	; cf74 <DWHCIDeviceInitialize+0x1f4>
    ce74:	eb003272 	bl	19844 <LogWrite>
    ce78:	e1a0000d 	mov	r0, sp
    ce7c:	eb000161 	bl	d408 <_DWHCIRegister>
    ce80:	e28d000c 	add	r0, sp, #12
    ce84:	eb00015f 	bl	d408 <_DWHCIRegister>
    ce88:	ea000031 	b	cf54 <DWHCIDeviceInitialize+0x1d4>
    ce8c:	e1a00005 	mov	r0, r5
    ce90:	ebfff74e 	bl	abd0 <DWHCIDeviceEnableGlobalInterrupts>
    ce94:	e1a00005 	mov	r0, r5
    ce98:	ebffff30 	bl	cb60 <DWHCIDeviceInitHost>
    ce9c:	e2504000 	subs	r4, r0, #0
    cea0:	1a000008 	bne	cec8 <DWHCIDeviceInitialize+0x148>
    cea4:	e59f20dc 	ldr	r2, [pc, #220]	; cf88 <DWHCIDeviceInitialize+0x208>
    cea8:	e3a01001 	mov	r1, #1
    ceac:	e59f00c0 	ldr	r0, [pc, #192]	; cf74 <DWHCIDeviceInitialize+0x1f4>
    ceb0:	eb003263 	bl	19844 <LogWrite>
    ceb4:	e1a0000d 	mov	r0, sp
    ceb8:	eb000152 	bl	d408 <_DWHCIRegister>
    cebc:	e28d000c 	add	r0, sp, #12
    cec0:	eb000150 	bl	d408 <_DWHCIRegister>
    cec4:	ea000022 	b	cf54 <DWHCIDeviceInitialize+0x1d4>
    cec8:	e1a00005 	mov	r0, r5
    cecc:	ebfffdc8 	bl	c5f4 <DWHCIDeviceEnableRootPort>
    ced0:	e3500000 	cmp	r0, #0
    ced4:	1a000009 	bne	cf00 <DWHCIDeviceInitialize+0x180>
    ced8:	e59f20ac 	ldr	r2, [pc, #172]	; cf8c <DWHCIDeviceInitialize+0x20c>
    cedc:	e3a01002 	mov	r1, #2
    cee0:	e59f008c 	ldr	r0, [pc, #140]	; cf74 <DWHCIDeviceInitialize+0x1f4>
    cee4:	eb003256 	bl	19844 <LogWrite>
    cee8:	e1a0000d 	mov	r0, sp
    ceec:	eb000145 	bl	d408 <_DWHCIRegister>
    cef0:	e28d000c 	add	r0, sp, #12
    cef4:	eb000143 	bl	d408 <_DWHCIRegister>
    cef8:	e3a04001 	mov	r4, #1
    cefc:	ea000014 	b	cf54 <DWHCIDeviceInitialize+0x1d4>
    cf00:	e285004c 	add	r0, r5, #76	; 0x4c
    cf04:	eb001aa7 	bl	139a8 <DWHCIRootPortInitialize>
    cf08:	e3500000 	cmp	r0, #0
    cf0c:	1a000009 	bne	cf38 <DWHCIDeviceInitialize+0x1b8>
    cf10:	e59f2078 	ldr	r2, [pc, #120]	; cf90 <DWHCIDeviceInitialize+0x210>
    cf14:	e3a01002 	mov	r1, #2
    cf18:	e59f0054 	ldr	r0, [pc, #84]	; cf74 <DWHCIDeviceInitialize+0x1f4>
    cf1c:	eb003248 	bl	19844 <LogWrite>
    cf20:	e1a0000d 	mov	r0, sp
    cf24:	eb000137 	bl	d408 <_DWHCIRegister>
    cf28:	e28d000c 	add	r0, sp, #12
    cf2c:	eb000135 	bl	d408 <_DWHCIRegister>
    cf30:	e3a04001 	mov	r4, #1
    cf34:	ea000006 	b	cf54 <DWHCIDeviceInitialize+0x1d4>
    cf38:	e3a03000 	mov	r3, #0
    cf3c:	ee073fba 	mcr	15, 0, r3, cr7, cr10, {5}
    cf40:	e1a0000d 	mov	r0, sp
    cf44:	eb00012f 	bl	d408 <_DWHCIRegister>
    cf48:	e28d000c 	add	r0, sp, #12
    cf4c:	eb00012d 	bl	d408 <_DWHCIRegister>
    cf50:	e3a04001 	mov	r4, #1
    cf54:	e1a00004 	mov	r0, r4
    cf58:	e28dd01c 	add	sp, sp, #28
    cf5c:	e8bd8030 	pop	{r4, r5, pc}
    cf60:	0001b4c8 	.word	0x0001b4c8
    cf64:	0001b4d8 	.word	0x0001b4d8
    cf68:	20980040 	.word	0x20980040
    cf6c:	4f54280a 	.word	0x4f54280a
    cf70:	0001b840 	.word	0x0001b840
    cf74:	0001b4c0 	.word	0x0001b4c0
    cf78:	0001b858 	.word	0x0001b858
    cf7c:	20980008 	.word	0x20980008
    cf80:	0000c3f4 	.word	0x0000c3f4
    cf84:	0001b868 	.word	0x0001b868
    cf88:	0001b880 	.word	0x0001b880
    cf8c:	0001b898 	.word	0x0001b898
    cf90:	0001b8bc 	.word	0x0001b8bc

0000cf94 <DWHCIDeviceGetPortSpeed>:
    cf94:	e92d4010 	push	{r4, lr}
    cf98:	e24dd010 	sub	sp, sp, #16
    cf9c:	e3500000 	cmp	r0, #0
    cfa0:	1a000003 	bne	cfb4 <DWHCIDeviceGetPortSpeed+0x20>
    cfa4:	e59f205c 	ldr	r2, [pc, #92]	; d008 <DWHCIDeviceGetPortSpeed+0x74>
    cfa8:	e59f105c 	ldr	r1, [pc, #92]	; d00c <DWHCIDeviceGetPortSpeed+0x78>
    cfac:	e59f005c 	ldr	r0, [pc, #92]	; d010 <DWHCIDeviceGetPortSpeed+0x7c>
    cfb0:	eb003235 	bl	1988c <uspi_assertion_failed>
    cfb4:	e59f1058 	ldr	r1, [pc, #88]	; d014 <DWHCIDeviceGetPortSpeed+0x80>
    cfb8:	e28d0004 	add	r0, sp, #4
    cfbc:	eb0000f3 	bl	d390 <DWHCIRegister>
    cfc0:	e28d0004 	add	r0, sp, #4
    cfc4:	eb00011b 	bl	d438 <DWHCIRegisterRead>
    cfc8:	e1a008a0 	lsr	r0, r0, #17
    cfcc:	e2000003 	and	r0, r0, #3
    cfd0:	e3500001 	cmp	r0, #1
    cfd4:	03a04001 	moveq	r4, #1
    cfd8:	0a000005 	beq	cff4 <DWHCIDeviceGetPortSpeed+0x60>
    cfdc:	33a04002 	movcc	r4, #2
    cfe0:	3a000003 	bcc	cff4 <DWHCIDeviceGetPortSpeed+0x60>
    cfe4:	e3500002 	cmp	r0, #2
    cfe8:	13a04003 	movne	r4, #3
    cfec:	03a04000 	moveq	r4, #0
    cff0:	eaffffff 	b	cff4 <DWHCIDeviceGetPortSpeed+0x60>
    cff4:	e28d0004 	add	r0, sp, #4
    cff8:	eb000102 	bl	d408 <_DWHCIRegister>
    cffc:	e1a00004 	mov	r0, r4
    d000:	e28dd010 	add	sp, sp, #16
    d004:	e8bd8010 	pop	{r4, pc}
    d008:	00000539 	.word	0x00000539
    d00c:	0001b4c8 	.word	0x0001b4c8
    d010:	0001b4d8 	.word	0x0001b4d8
    d014:	20980440 	.word	0x20980440

0000d018 <DWHCIDeviceOvercurrentDetected>:
    d018:	e52de004 	push	{lr}		; (str lr, [sp, #-4]!)
    d01c:	e24dd014 	sub	sp, sp, #20
    d020:	e3500000 	cmp	r0, #0
    d024:	1a000003 	bne	d038 <DWHCIDeviceOvercurrentDetected+0x20>
    d028:	e59f2048 	ldr	r2, [pc, #72]	; d078 <DWHCIDeviceOvercurrentDetected+0x60>
    d02c:	e59f1048 	ldr	r1, [pc, #72]	; d07c <DWHCIDeviceOvercurrentDetected+0x64>
    d030:	e59f0048 	ldr	r0, [pc, #72]	; d080 <DWHCIDeviceOvercurrentDetected+0x68>
    d034:	eb003214 	bl	1988c <uspi_assertion_failed>
    d038:	e59f1044 	ldr	r1, [pc, #68]	; d084 <DWHCIDeviceOvercurrentDetected+0x6c>
    d03c:	e28d0004 	add	r0, sp, #4
    d040:	eb0000d2 	bl	d390 <DWHCIRegister>
    d044:	e28d0004 	add	r0, sp, #4
    d048:	eb0000fa 	bl	d438 <DWHCIRegisterRead>
    d04c:	e3100010 	tst	r0, #16
    d050:	0a000003 	beq	d064 <DWHCIDeviceOvercurrentDetected+0x4c>
    d054:	e28d0004 	add	r0, sp, #4
    d058:	eb0000ea 	bl	d408 <_DWHCIRegister>
    d05c:	e3a00001 	mov	r0, #1
    d060:	ea000002 	b	d070 <DWHCIDeviceOvercurrentDetected+0x58>
    d064:	e28d0004 	add	r0, sp, #4
    d068:	eb0000e6 	bl	d408 <_DWHCIRegister>
    d06c:	e3a00000 	mov	r0, #0
    d070:	e28dd014 	add	sp, sp, #20
    d074:	e49df004 	pop	{pc}		; (ldr pc, [sp], #4)
    d078:	00000559 	.word	0x00000559
    d07c:	0001b4c8 	.word	0x0001b4c8
    d080:	0001b4d8 	.word	0x0001b4d8
    d084:	20980440 	.word	0x20980440

0000d088 <DWHCIDeviceDisableRootPort>:
    d088:	e52de004 	push	{lr}		; (str lr, [sp, #-4]!)
    d08c:	e24dd014 	sub	sp, sp, #20
    d090:	e3500000 	cmp	r0, #0
    d094:	1a000003 	bne	d0a8 <DWHCIDeviceDisableRootPort+0x20>
    d098:	e59f2040 	ldr	r2, [pc, #64]	; d0e0 <DWHCIDeviceDisableRootPort+0x58>
    d09c:	e59f1040 	ldr	r1, [pc, #64]	; d0e4 <DWHCIDeviceDisableRootPort+0x5c>
    d0a0:	e59f0040 	ldr	r0, [pc, #64]	; d0e8 <DWHCIDeviceDisableRootPort+0x60>
    d0a4:	eb0031f8 	bl	1988c <uspi_assertion_failed>
    d0a8:	e59f103c 	ldr	r1, [pc, #60]	; d0ec <DWHCIDeviceDisableRootPort+0x64>
    d0ac:	e28d0004 	add	r0, sp, #4
    d0b0:	eb0000b6 	bl	d390 <DWHCIRegister>
    d0b4:	e28d0004 	add	r0, sp, #4
    d0b8:	eb0000de 	bl	d438 <DWHCIRegisterRead>
    d0bc:	e3e01a01 	mvn	r1, #4096	; 0x1000
    d0c0:	e28d0004 	add	r0, sp, #4
    d0c4:	eb000137 	bl	d5a8 <DWHCIRegisterAnd>
    d0c8:	e28d0004 	add	r0, sp, #4
    d0cc:	eb0000e8 	bl	d474 <DWHCIRegisterWrite>
    d0d0:	e28d0004 	add	r0, sp, #4
    d0d4:	eb0000cb 	bl	d408 <_DWHCIRegister>
    d0d8:	e28dd014 	add	sp, sp, #20
    d0dc:	e49df004 	pop	{pc}		; (ldr pc, [sp], #4)
    d0e0:	0000056c 	.word	0x0000056c
    d0e4:	0001b4c8 	.word	0x0001b4c8
    d0e8:	0001b4d8 	.word	0x0001b4d8
    d0ec:	20980440 	.word	0x20980440

0000d0f0 <DWHCIDeviceDumpRegister>:
    d0f0:	e92d4030 	push	{r4, r5, lr}
    d0f4:	e24dd01c 	sub	sp, sp, #28
    d0f8:	e1a04001 	mov	r4, r1
    d0fc:	e1a05002 	mov	r5, r2
    d100:	e3500000 	cmp	r0, #0
    d104:	1a000003 	bne	d118 <DWHCIDeviceDumpRegister+0x28>
    d108:	e59f204c 	ldr	r2, [pc, #76]	; d15c <DWHCIDeviceDumpRegister+0x6c>
    d10c:	e59f104c 	ldr	r1, [pc, #76]	; d160 <DWHCIDeviceDumpRegister+0x70>
    d110:	e59f004c 	ldr	r0, [pc, #76]	; d164 <DWHCIDeviceDumpRegister+0x74>
    d114:	eb0031dc 	bl	1988c <uspi_assertion_failed>
    d118:	e1a01005 	mov	r1, r5
    d11c:	e28d000c 	add	r0, sp, #12
    d120:	eb00009a 	bl	d390 <DWHCIRegister>
    d124:	e3a03000 	mov	r3, #0
    d128:	ee073fba 	mcr	15, 0, r3, cr7, cr10, {5}
    d12c:	e28d000c 	add	r0, sp, #12
    d130:	eb0000c0 	bl	d438 <DWHCIRegisterRead>
    d134:	e58d4000 	str	r4, [sp]
    d138:	e1a03000 	mov	r3, r0
    d13c:	e59f2024 	ldr	r2, [pc, #36]	; d168 <DWHCIDeviceDumpRegister+0x78>
    d140:	e3a01004 	mov	r1, #4
    d144:	e59f0020 	ldr	r0, [pc, #32]	; d16c <DWHCIDeviceDumpRegister+0x7c>
    d148:	eb0031bd 	bl	19844 <LogWrite>
    d14c:	e28d000c 	add	r0, sp, #12
    d150:	eb0000ac 	bl	d408 <_DWHCIRegister>
    d154:	e28dd01c 	add	sp, sp, #28
    d158:	e8bd8030 	pop	{r4, r5, pc}
    d15c:	0000057c 	.word	0x0000057c
    d160:	0001b4c8 	.word	0x0001b4c8
    d164:	0001b4d8 	.word	0x0001b4d8
    d168:	0001b8d8 	.word	0x0001b8d8
    d16c:	0001b4c0 	.word	0x0001b4c0

0000d170 <DWHCIDeviceDumpStatus>:
    d170:	e92d4070 	push	{r4, r5, r6, lr}
    d174:	e1a06001 	mov	r6, r1
    d178:	e2504000 	subs	r4, r0, #0
    d17c:	1a000003 	bne	d190 <DWHCIDeviceDumpStatus+0x20>
    d180:	e59f2168 	ldr	r2, [pc, #360]	; d2f0 <DWHCIDeviceDumpStatus+0x180>
    d184:	e59f1168 	ldr	r1, [pc, #360]	; d2f4 <DWHCIDeviceDumpStatus+0x184>
    d188:	e59f0168 	ldr	r0, [pc, #360]	; d2f8 <DWHCIDeviceDumpStatus+0x188>
    d18c:	eb0031be 	bl	1988c <uspi_assertion_failed>
    d190:	e59f2164 	ldr	r2, [pc, #356]	; d2fc <DWHCIDeviceDumpStatus+0x18c>
    d194:	e59f1164 	ldr	r1, [pc, #356]	; d300 <DWHCIDeviceDumpStatus+0x190>
    d198:	e1a00004 	mov	r0, r4
    d19c:	ebffffd3 	bl	d0f0 <DWHCIDeviceDumpRegister>
    d1a0:	e59f215c 	ldr	r2, [pc, #348]	; d304 <DWHCIDeviceDumpStatus+0x194>
    d1a4:	e59f115c 	ldr	r1, [pc, #348]	; d308 <DWHCIDeviceDumpStatus+0x198>
    d1a8:	e1a00004 	mov	r0, r4
    d1ac:	ebffffcf 	bl	d0f0 <DWHCIDeviceDumpRegister>
    d1b0:	e59f2154 	ldr	r2, [pc, #340]	; d30c <DWHCIDeviceDumpStatus+0x19c>
    d1b4:	e59f1154 	ldr	r1, [pc, #340]	; d310 <DWHCIDeviceDumpStatus+0x1a0>
    d1b8:	e1a00004 	mov	r0, r4
    d1bc:	ebffffcb 	bl	d0f0 <DWHCIDeviceDumpRegister>
    d1c0:	e59f214c 	ldr	r2, [pc, #332]	; d314 <DWHCIDeviceDumpStatus+0x1a4>
    d1c4:	e59f114c 	ldr	r1, [pc, #332]	; d318 <DWHCIDeviceDumpStatus+0x1a8>
    d1c8:	e1a00004 	mov	r0, r4
    d1cc:	ebffffc7 	bl	d0f0 <DWHCIDeviceDumpRegister>
    d1d0:	e59f2144 	ldr	r2, [pc, #324]	; d31c <DWHCIDeviceDumpStatus+0x1ac>
    d1d4:	e59f1144 	ldr	r1, [pc, #324]	; d320 <DWHCIDeviceDumpStatus+0x1b0>
    d1d8:	e1a00004 	mov	r0, r4
    d1dc:	ebffffc3 	bl	d0f0 <DWHCIDeviceDumpRegister>
    d1e0:	e59f213c 	ldr	r2, [pc, #316]	; d324 <DWHCIDeviceDumpStatus+0x1b4>
    d1e4:	e59f113c 	ldr	r1, [pc, #316]	; d328 <DWHCIDeviceDumpStatus+0x1b8>
    d1e8:	e1a00004 	mov	r0, r4
    d1ec:	ebffffbf 	bl	d0f0 <DWHCIDeviceDumpRegister>
    d1f0:	e59f2134 	ldr	r2, [pc, #308]	; d32c <DWHCIDeviceDumpStatus+0x1bc>
    d1f4:	e59f1134 	ldr	r1, [pc, #308]	; d330 <DWHCIDeviceDumpStatus+0x1c0>
    d1f8:	e1a00004 	mov	r0, r4
    d1fc:	ebffffbb 	bl	d0f0 <DWHCIDeviceDumpRegister>
    d200:	e59f212c 	ldr	r2, [pc, #300]	; d334 <DWHCIDeviceDumpStatus+0x1c4>
    d204:	e59f112c 	ldr	r1, [pc, #300]	; d338 <DWHCIDeviceDumpStatus+0x1c8>
    d208:	e1a00004 	mov	r0, r4
    d20c:	ebffffb7 	bl	d0f0 <DWHCIDeviceDumpRegister>
    d210:	e59f2124 	ldr	r2, [pc, #292]	; d33c <DWHCIDeviceDumpStatus+0x1cc>
    d214:	e59f1124 	ldr	r1, [pc, #292]	; d340 <DWHCIDeviceDumpStatus+0x1d0>
    d218:	e1a00004 	mov	r0, r4
    d21c:	ebffffb3 	bl	d0f0 <DWHCIDeviceDumpRegister>
    d220:	e59f211c 	ldr	r2, [pc, #284]	; d344 <DWHCIDeviceDumpStatus+0x1d4>
    d224:	e59f111c 	ldr	r1, [pc, #284]	; d348 <DWHCIDeviceDumpStatus+0x1d8>
    d228:	e1a00004 	mov	r0, r4
    d22c:	ebffffaf 	bl	d0f0 <DWHCIDeviceDumpRegister>
    d230:	e59f2114 	ldr	r2, [pc, #276]	; d34c <DWHCIDeviceDumpStatus+0x1dc>
    d234:	e59f1114 	ldr	r1, [pc, #276]	; d350 <DWHCIDeviceDumpStatus+0x1e0>
    d238:	e1a00004 	mov	r0, r4
    d23c:	ebffffab 	bl	d0f0 <DWHCIDeviceDumpRegister>
    d240:	e59f210c 	ldr	r2, [pc, #268]	; d354 <DWHCIDeviceDumpStatus+0x1e4>
    d244:	e59f110c 	ldr	r1, [pc, #268]	; d358 <DWHCIDeviceDumpStatus+0x1e8>
    d248:	e1a00004 	mov	r0, r4
    d24c:	ebffffa7 	bl	d0f0 <DWHCIDeviceDumpRegister>
    d250:	e59f2104 	ldr	r2, [pc, #260]	; d35c <DWHCIDeviceDumpStatus+0x1ec>
    d254:	e59f1104 	ldr	r1, [pc, #260]	; d360 <DWHCIDeviceDumpStatus+0x1f0>
    d258:	e1a00004 	mov	r0, r4
    d25c:	ebffffa3 	bl	d0f0 <DWHCIDeviceDumpRegister>
    d260:	e59f20fc 	ldr	r2, [pc, #252]	; d364 <DWHCIDeviceDumpStatus+0x1f4>
    d264:	e59f10fc 	ldr	r1, [pc, #252]	; d368 <DWHCIDeviceDumpStatus+0x1f8>
    d268:	e1a00004 	mov	r0, r4
    d26c:	ebffff9f 	bl	d0f0 <DWHCIDeviceDumpRegister>
    d270:	e59f20f4 	ldr	r2, [pc, #244]	; d36c <DWHCIDeviceDumpStatus+0x1fc>
    d274:	e59f10f4 	ldr	r1, [pc, #244]	; d370 <DWHCIDeviceDumpStatus+0x200>
    d278:	e1a00004 	mov	r0, r4
    d27c:	ebffff9b 	bl	d0f0 <DWHCIDeviceDumpRegister>
    d280:	e59f50ec 	ldr	r5, [pc, #236]	; d374 <DWHCIDeviceDumpStatus+0x204>
    d284:	e0865005 	add	r5, r6, r5
    d288:	e1a05285 	lsl	r5, r5, #5
    d28c:	e1a02005 	mov	r2, r5
    d290:	e59f10e0 	ldr	r1, [pc, #224]	; d378 <DWHCIDeviceDumpStatus+0x208>
    d294:	e1a00004 	mov	r0, r4
    d298:	ebffff94 	bl	d0f0 <DWHCIDeviceDumpRegister>
    d29c:	e2852004 	add	r2, r5, #4
    d2a0:	e59f10d4 	ldr	r1, [pc, #212]	; d37c <DWHCIDeviceDumpStatus+0x20c>
    d2a4:	e1a00004 	mov	r0, r4
    d2a8:	ebffff90 	bl	d0f0 <DWHCIDeviceDumpRegister>
    d2ac:	e2852008 	add	r2, r5, #8
    d2b0:	e59f10c8 	ldr	r1, [pc, #200]	; d380 <DWHCIDeviceDumpStatus+0x210>
    d2b4:	e1a00004 	mov	r0, r4
    d2b8:	ebffff8c 	bl	d0f0 <DWHCIDeviceDumpRegister>
    d2bc:	e285200c 	add	r2, r5, #12
    d2c0:	e59f10bc 	ldr	r1, [pc, #188]	; d384 <DWHCIDeviceDumpStatus+0x214>
    d2c4:	e1a00004 	mov	r0, r4
    d2c8:	ebffff88 	bl	d0f0 <DWHCIDeviceDumpRegister>
    d2cc:	e2852010 	add	r2, r5, #16
    d2d0:	e59f10b0 	ldr	r1, [pc, #176]	; d388 <DWHCIDeviceDumpStatus+0x218>
    d2d4:	e1a00004 	mov	r0, r4
    d2d8:	ebffff84 	bl	d0f0 <DWHCIDeviceDumpRegister>
    d2dc:	e2852014 	add	r2, r5, #20
    d2e0:	e59f10a4 	ldr	r1, [pc, #164]	; d38c <DWHCIDeviceDumpStatus+0x21c>
    d2e4:	e1a00004 	mov	r0, r4
    d2e8:	ebffff80 	bl	d0f0 <DWHCIDeviceDumpRegister>
    d2ec:	e8bd8070 	pop	{r4, r5, r6, pc}
    d2f0:	0000058a 	.word	0x0000058a
    d2f4:	0001b4c8 	.word	0x0001b4c8
    d2f8:	0001b4d8 	.word	0x0001b4d8
    d2fc:	20980000 	.word	0x20980000
    d300:	0001b8e4 	.word	0x0001b8e4
    d304:	20980008 	.word	0x20980008
    d308:	0001b8f0 	.word	0x0001b8f0
    d30c:	2098000c 	.word	0x2098000c
    d310:	0001b8f8 	.word	0x0001b8f8
    d314:	20980010 	.word	0x20980010
    d318:	0001b900 	.word	0x0001b900
    d31c:	20980014 	.word	0x20980014
    d320:	0001b908 	.word	0x0001b908
    d324:	20980018 	.word	0x20980018
    d328:	0001b914 	.word	0x0001b914
    d32c:	20980024 	.word	0x20980024
    d330:	0001b920 	.word	0x0001b920
    d334:	20980028 	.word	0x20980028
    d338:	0001b92c 	.word	0x0001b92c
    d33c:	2098002c 	.word	0x2098002c
    d340:	0001b940 	.word	0x0001b940
    d344:	20980100 	.word	0x20980100
    d348:	0001b950 	.word	0x0001b950
    d34c:	20980400 	.word	0x20980400
    d350:	0001b968 	.word	0x0001b968
    d354:	20980410 	.word	0x20980410
    d358:	0001b974 	.word	0x0001b974
    d35c:	20980414 	.word	0x20980414
    d360:	0001b98c 	.word	0x0001b98c
    d364:	20980418 	.word	0x20980418
    d368:	0001b9a0 	.word	0x0001b9a0
    d36c:	20980440 	.word	0x20980440
    d370:	0001b9b8 	.word	0x0001b9b8
    d374:	0104c028 	.word	0x0104c028
    d378:	0001b9c4 	.word	0x0001b9c4
    d37c:	0001b9dc 	.word	0x0001b9dc
    d380:	0001b9f4 	.word	0x0001b9f4
    d384:	0001ba08 	.word	0x0001ba08
    d388:	0001ba20 	.word	0x0001ba20
    d38c:	0001ba38 	.word	0x0001ba38

0000d390 <DWHCIRegister>:
    d390:	e92d4070 	push	{r4, r5, r6, lr}
    d394:	e1a05001 	mov	r5, r1
    d398:	e2504000 	subs	r4, r0, #0
    d39c:	1a000003 	bne	d3b0 <DWHCIRegister+0x20>
    d3a0:	e3a0201a 	mov	r2, #26
    d3a4:	e59f1014 	ldr	r1, [pc, #20]	; d3c0 <DWHCIRegister+0x30>
    d3a8:	e59f0014 	ldr	r0, [pc, #20]	; d3c4 <DWHCIRegister+0x34>
    d3ac:	eb003136 	bl	1988c <uspi_assertion_failed>
    d3b0:	e3a03000 	mov	r3, #0
    d3b4:	e5843000 	str	r3, [r4]
    d3b8:	e5845004 	str	r5, [r4, #4]
    d3bc:	e8bd8070 	pop	{r4, r5, r6, pc}
    d3c0:	0001ba50 	.word	0x0001ba50
    d3c4:	0001b4d8 	.word	0x0001b4d8

0000d3c8 <DWHCIRegister2>:
    d3c8:	e92d4070 	push	{r4, r5, r6, lr}
    d3cc:	e1a06001 	mov	r6, r1
    d3d0:	e1a05002 	mov	r5, r2
    d3d4:	e2504000 	subs	r4, r0, #0
    d3d8:	1a000003 	bne	d3ec <DWHCIRegister2+0x24>
    d3dc:	e3a02021 	mov	r2, #33	; 0x21
    d3e0:	e59f1018 	ldr	r1, [pc, #24]	; d400 <DWHCIRegister2+0x38>
    d3e4:	e59f0018 	ldr	r0, [pc, #24]	; d404 <DWHCIRegister2+0x3c>
    d3e8:	eb003127 	bl	1988c <uspi_assertion_failed>
    d3ec:	e3a03001 	mov	r3, #1
    d3f0:	e5843000 	str	r3, [r4]
    d3f4:	e5846004 	str	r6, [r4, #4]
    d3f8:	e5845008 	str	r5, [r4, #8]
    d3fc:	e8bd8070 	pop	{r4, r5, r6, pc}
    d400:	0001ba50 	.word	0x0001ba50
    d404:	0001b4d8 	.word	0x0001b4d8

0000d408 <_DWHCIRegister>:
    d408:	e92d4010 	push	{r4, lr}
    d40c:	e2504000 	subs	r4, r0, #0
    d410:	1a000003 	bne	d424 <_DWHCIRegister+0x1c>
    d414:	e3a02029 	mov	r2, #41	; 0x29
    d418:	e59f1010 	ldr	r1, [pc, #16]	; d430 <_DWHCIRegister+0x28>
    d41c:	e59f0010 	ldr	r0, [pc, #16]	; d434 <_DWHCIRegister+0x2c>
    d420:	eb003119 	bl	1988c <uspi_assertion_failed>
    d424:	e3a03000 	mov	r3, #0
    d428:	e5843000 	str	r3, [r4]
    d42c:	e8bd8010 	pop	{r4, pc}
    d430:	0001ba50 	.word	0x0001ba50
    d434:	0001b4d8 	.word	0x0001b4d8

0000d438 <DWHCIRegisterRead>:
    d438:	e92d4010 	push	{r4, lr}
    d43c:	e2504000 	subs	r4, r0, #0
    d440:	1a000003 	bne	d454 <DWHCIRegisterRead+0x1c>
    d444:	e3a0202f 	mov	r2, #47	; 0x2f
    d448:	e59f101c 	ldr	r1, [pc, #28]	; d46c <DWHCIRegisterRead+0x34>
    d44c:	e59f001c 	ldr	r0, [pc, #28]	; d470 <DWHCIRegisterRead+0x38>
    d450:	eb00310d 	bl	1988c <uspi_assertion_failed>
    d454:	e5943004 	ldr	r3, [r4, #4]
    d458:	e5930000 	ldr	r0, [r3]
    d45c:	e5840008 	str	r0, [r4, #8]
    d460:	e3a03001 	mov	r3, #1
    d464:	e5843000 	str	r3, [r4]
    d468:	e8bd8010 	pop	{r4, pc}
    d46c:	0001ba50 	.word	0x0001ba50
    d470:	0001b4d8 	.word	0x0001b4d8

0000d474 <DWHCIRegisterWrite>:
    d474:	e92d4010 	push	{r4, lr}
    d478:	e2504000 	subs	r4, r0, #0
    d47c:	1a000003 	bne	d490 <DWHCIRegisterWrite+0x1c>
    d480:	e3a02038 	mov	r2, #56	; 0x38
    d484:	e59f1030 	ldr	r1, [pc, #48]	; d4bc <DWHCIRegisterWrite+0x48>
    d488:	e59f0030 	ldr	r0, [pc, #48]	; d4c0 <DWHCIRegisterWrite+0x4c>
    d48c:	eb0030fe 	bl	1988c <uspi_assertion_failed>
    d490:	e5943000 	ldr	r3, [r4]
    d494:	e3530000 	cmp	r3, #0
    d498:	1a000003 	bne	d4ac <DWHCIRegisterWrite+0x38>
    d49c:	e3a02039 	mov	r2, #57	; 0x39
    d4a0:	e59f1014 	ldr	r1, [pc, #20]	; d4bc <DWHCIRegisterWrite+0x48>
    d4a4:	e59f0018 	ldr	r0, [pc, #24]	; d4c4 <DWHCIRegisterWrite+0x50>
    d4a8:	eb0030f7 	bl	1988c <uspi_assertion_failed>
    d4ac:	e5942008 	ldr	r2, [r4, #8]
    d4b0:	e5943004 	ldr	r3, [r4, #4]
    d4b4:	e5832000 	str	r2, [r3]
    d4b8:	e8bd8010 	pop	{r4, pc}
    d4bc:	0001ba50 	.word	0x0001ba50
    d4c0:	0001b4d8 	.word	0x0001b4d8
    d4c4:	0001ba60 	.word	0x0001ba60

0000d4c8 <DWHCIRegisterGet>:
    d4c8:	e92d4010 	push	{r4, lr}
    d4cc:	e2504000 	subs	r4, r0, #0
    d4d0:	1a000003 	bne	d4e4 <DWHCIRegisterGet+0x1c>
    d4d4:	e3a0203f 	mov	r2, #63	; 0x3f
    d4d8:	e59f1028 	ldr	r1, [pc, #40]	; d508 <DWHCIRegisterGet+0x40>
    d4dc:	e59f0028 	ldr	r0, [pc, #40]	; d50c <DWHCIRegisterGet+0x44>
    d4e0:	eb0030e9 	bl	1988c <uspi_assertion_failed>
    d4e4:	e5943000 	ldr	r3, [r4]
    d4e8:	e3530000 	cmp	r3, #0
    d4ec:	1a000003 	bne	d500 <DWHCIRegisterGet+0x38>
    d4f0:	e3a02040 	mov	r2, #64	; 0x40
    d4f4:	e59f100c 	ldr	r1, [pc, #12]	; d508 <DWHCIRegisterGet+0x40>
    d4f8:	e59f0010 	ldr	r0, [pc, #16]	; d510 <DWHCIRegisterGet+0x48>
    d4fc:	eb0030e2 	bl	1988c <uspi_assertion_failed>
    d500:	e5940008 	ldr	r0, [r4, #8]
    d504:	e8bd8010 	pop	{r4, pc}
    d508:	0001ba50 	.word	0x0001ba50
    d50c:	0001b4d8 	.word	0x0001b4d8
    d510:	0001ba60 	.word	0x0001ba60

0000d514 <DWHCIRegisterSet>:
    d514:	e92d4070 	push	{r4, r5, r6, lr}
    d518:	e1a05001 	mov	r5, r1
    d51c:	e2504000 	subs	r4, r0, #0
    d520:	1a000003 	bne	d534 <DWHCIRegisterSet+0x20>
    d524:	e3a02046 	mov	r2, #70	; 0x46
    d528:	e59f1014 	ldr	r1, [pc, #20]	; d544 <DWHCIRegisterSet+0x30>
    d52c:	e59f0014 	ldr	r0, [pc, #20]	; d548 <DWHCIRegisterSet+0x34>
    d530:	eb0030d5 	bl	1988c <uspi_assertion_failed>
    d534:	e5845008 	str	r5, [r4, #8]
    d538:	e3a03001 	mov	r3, #1
    d53c:	e5843000 	str	r3, [r4]
    d540:	e8bd8070 	pop	{r4, r5, r6, pc}
    d544:	0001ba50 	.word	0x0001ba50
    d548:	0001b4d8 	.word	0x0001b4d8

0000d54c <DWHCIRegisterIsSet>:
    d54c:	e92d4070 	push	{r4, r5, r6, lr}
    d550:	e1a05001 	mov	r5, r1
    d554:	e2504000 	subs	r4, r0, #0
    d558:	1a000003 	bne	d56c <DWHCIRegisterIsSet+0x20>
    d55c:	e3a0204d 	mov	r2, #77	; 0x4d
    d560:	e59f1034 	ldr	r1, [pc, #52]	; d59c <DWHCIRegisterIsSet+0x50>
    d564:	e59f0034 	ldr	r0, [pc, #52]	; d5a0 <DWHCIRegisterIsSet+0x54>
    d568:	eb0030c7 	bl	1988c <uspi_assertion_failed>
    d56c:	e5943000 	ldr	r3, [r4]
    d570:	e3530000 	cmp	r3, #0
    d574:	1a000003 	bne	d588 <DWHCIRegisterIsSet+0x3c>
    d578:	e3a0204e 	mov	r2, #78	; 0x4e
    d57c:	e59f1018 	ldr	r1, [pc, #24]	; d59c <DWHCIRegisterIsSet+0x50>
    d580:	e59f001c 	ldr	r0, [pc, #28]	; d5a4 <DWHCIRegisterIsSet+0x58>
    d584:	eb0030c0 	bl	1988c <uspi_assertion_failed>
    d588:	e5943008 	ldr	r3, [r4, #8]
    d58c:	e1150003 	tst	r5, r3
    d590:	13a00001 	movne	r0, #1
    d594:	03a00000 	moveq	r0, #0
    d598:	e8bd8070 	pop	{r4, r5, r6, pc}
    d59c:	0001ba50 	.word	0x0001ba50
    d5a0:	0001b4d8 	.word	0x0001b4d8
    d5a4:	0001ba60 	.word	0x0001ba60

0000d5a8 <DWHCIRegisterAnd>:
    d5a8:	e92d4070 	push	{r4, r5, r6, lr}
    d5ac:	e1a05001 	mov	r5, r1
    d5b0:	e2504000 	subs	r4, r0, #0
    d5b4:	1a000003 	bne	d5c8 <DWHCIRegisterAnd+0x20>
    d5b8:	e3a02054 	mov	r2, #84	; 0x54
    d5bc:	e59f1030 	ldr	r1, [pc, #48]	; d5f4 <DWHCIRegisterAnd+0x4c>
    d5c0:	e59f0030 	ldr	r0, [pc, #48]	; d5f8 <DWHCIRegisterAnd+0x50>
    d5c4:	eb0030b0 	bl	1988c <uspi_assertion_failed>
    d5c8:	e5943000 	ldr	r3, [r4]
    d5cc:	e3530000 	cmp	r3, #0
    d5d0:	1a000003 	bne	d5e4 <DWHCIRegisterAnd+0x3c>
    d5d4:	e3a02055 	mov	r2, #85	; 0x55
    d5d8:	e59f1014 	ldr	r1, [pc, #20]	; d5f4 <DWHCIRegisterAnd+0x4c>
    d5dc:	e59f0018 	ldr	r0, [pc, #24]	; d5fc <DWHCIRegisterAnd+0x54>
    d5e0:	eb0030a9 	bl	1988c <uspi_assertion_failed>
    d5e4:	e5943008 	ldr	r3, [r4, #8]
    d5e8:	e0055003 	and	r5, r5, r3
    d5ec:	e5845008 	str	r5, [r4, #8]
    d5f0:	e8bd8070 	pop	{r4, r5, r6, pc}
    d5f4:	0001ba50 	.word	0x0001ba50
    d5f8:	0001b4d8 	.word	0x0001b4d8
    d5fc:	0001ba60 	.word	0x0001ba60

0000d600 <DWHCIRegisterOr>:
    d600:	e92d4070 	push	{r4, r5, r6, lr}
    d604:	e1a05001 	mov	r5, r1
    d608:	e2504000 	subs	r4, r0, #0
    d60c:	1a000003 	bne	d620 <DWHCIRegisterOr+0x20>
    d610:	e3a0205b 	mov	r2, #91	; 0x5b
    d614:	e59f1030 	ldr	r1, [pc, #48]	; d64c <DWHCIRegisterOr+0x4c>
    d618:	e59f0030 	ldr	r0, [pc, #48]	; d650 <DWHCIRegisterOr+0x50>
    d61c:	eb00309a 	bl	1988c <uspi_assertion_failed>
    d620:	e5943000 	ldr	r3, [r4]
    d624:	e3530000 	cmp	r3, #0
    d628:	1a000003 	bne	d63c <DWHCIRegisterOr+0x3c>
    d62c:	e3a0205c 	mov	r2, #92	; 0x5c
    d630:	e59f1014 	ldr	r1, [pc, #20]	; d64c <DWHCIRegisterOr+0x4c>
    d634:	e59f0018 	ldr	r0, [pc, #24]	; d654 <DWHCIRegisterOr+0x54>
    d638:	eb003093 	bl	1988c <uspi_assertion_failed>
    d63c:	e5943008 	ldr	r3, [r4, #8]
    d640:	e1835005 	orr	r5, r3, r5
    d644:	e5845008 	str	r5, [r4, #8]
    d648:	e8bd8070 	pop	{r4, r5, r6, pc}
    d64c:	0001ba50 	.word	0x0001ba50
    d650:	0001b4d8 	.word	0x0001b4d8
    d654:	0001ba60 	.word	0x0001ba60

0000d658 <DWHCIRegisterClearBit>:
    d658:	e92d4070 	push	{r4, r5, r6, lr}
    d65c:	e1a05001 	mov	r5, r1
    d660:	e2504000 	subs	r4, r0, #0
    d664:	1a000003 	bne	d678 <DWHCIRegisterClearBit+0x20>
    d668:	e3a02062 	mov	r2, #98	; 0x62
    d66c:	e59f104c 	ldr	r1, [pc, #76]	; d6c0 <DWHCIRegisterClearBit+0x68>
    d670:	e59f004c 	ldr	r0, [pc, #76]	; d6c4 <DWHCIRegisterClearBit+0x6c>
    d674:	eb003084 	bl	1988c <uspi_assertion_failed>
    d678:	e5943000 	ldr	r3, [r4]
    d67c:	e3530000 	cmp	r3, #0
    d680:	1a000003 	bne	d694 <DWHCIRegisterClearBit+0x3c>
    d684:	e3a02063 	mov	r2, #99	; 0x63
    d688:	e59f1030 	ldr	r1, [pc, #48]	; d6c0 <DWHCIRegisterClearBit+0x68>
    d68c:	e59f0034 	ldr	r0, [pc, #52]	; d6c8 <DWHCIRegisterClearBit+0x70>
    d690:	eb00307d 	bl	1988c <uspi_assertion_failed>
    d694:	e355001f 	cmp	r5, #31
    d698:	9a000003 	bls	d6ac <DWHCIRegisterClearBit+0x54>
    d69c:	e3a02064 	mov	r2, #100	; 0x64
    d6a0:	e59f1018 	ldr	r1, [pc, #24]	; d6c0 <DWHCIRegisterClearBit+0x68>
    d6a4:	e59f0020 	ldr	r0, [pc, #32]	; d6cc <DWHCIRegisterClearBit+0x74>
    d6a8:	eb003077 	bl	1988c <uspi_assertion_failed>
    d6ac:	e5943008 	ldr	r3, [r4, #8]
    d6b0:	e3a01001 	mov	r1, #1
    d6b4:	e1c31511 	bic	r1, r3, r1, lsl r5
    d6b8:	e5841008 	str	r1, [r4, #8]
    d6bc:	e8bd8070 	pop	{r4, r5, r6, pc}
    d6c0:	0001ba50 	.word	0x0001ba50
    d6c4:	0001b4d8 	.word	0x0001b4d8
    d6c8:	0001ba60 	.word	0x0001ba60
    d6cc:	0001ba70 	.word	0x0001ba70

0000d6d0 <DWHCIRegisterSetBit>:
    d6d0:	e92d4070 	push	{r4, r5, r6, lr}
    d6d4:	e1a05001 	mov	r5, r1
    d6d8:	e2504000 	subs	r4, r0, #0
    d6dc:	1a000003 	bne	d6f0 <DWHCIRegisterSetBit+0x20>
    d6e0:	e3a0206a 	mov	r2, #106	; 0x6a
    d6e4:	e59f104c 	ldr	r1, [pc, #76]	; d738 <DWHCIRegisterSetBit+0x68>
    d6e8:	e59f004c 	ldr	r0, [pc, #76]	; d73c <DWHCIRegisterSetBit+0x6c>
    d6ec:	eb003066 	bl	1988c <uspi_assertion_failed>
    d6f0:	e5943000 	ldr	r3, [r4]
    d6f4:	e3530000 	cmp	r3, #0
    d6f8:	1a000003 	bne	d70c <DWHCIRegisterSetBit+0x3c>
    d6fc:	e3a0206b 	mov	r2, #107	; 0x6b
    d700:	e59f1030 	ldr	r1, [pc, #48]	; d738 <DWHCIRegisterSetBit+0x68>
    d704:	e59f0034 	ldr	r0, [pc, #52]	; d740 <DWHCIRegisterSetBit+0x70>
    d708:	eb00305f 	bl	1988c <uspi_assertion_failed>
    d70c:	e355001f 	cmp	r5, #31
    d710:	9a000003 	bls	d724 <DWHCIRegisterSetBit+0x54>
    d714:	e3a0206c 	mov	r2, #108	; 0x6c
    d718:	e59f1018 	ldr	r1, [pc, #24]	; d738 <DWHCIRegisterSetBit+0x68>
    d71c:	e59f0020 	ldr	r0, [pc, #32]	; d744 <DWHCIRegisterSetBit+0x74>
    d720:	eb003059 	bl	1988c <uspi_assertion_failed>
    d724:	e5943008 	ldr	r3, [r4, #8]
    d728:	e3a01001 	mov	r1, #1
    d72c:	e1831511 	orr	r1, r3, r1, lsl r5
    d730:	e5841008 	str	r1, [r4, #8]
    d734:	e8bd8070 	pop	{r4, r5, r6, pc}
    d738:	0001ba50 	.word	0x0001ba50
    d73c:	0001b4d8 	.word	0x0001b4d8
    d740:	0001ba60 	.word	0x0001ba60
    d744:	0001ba70 	.word	0x0001ba70

0000d748 <DWHCIRegisterClearAll>:
    d748:	e92d4010 	push	{r4, lr}
    d74c:	e2504000 	subs	r4, r0, #0
    d750:	1a000003 	bne	d764 <DWHCIRegisterClearAll+0x1c>
    d754:	e3a02072 	mov	r2, #114	; 0x72
    d758:	e59f1018 	ldr	r1, [pc, #24]	; d778 <DWHCIRegisterClearAll+0x30>
    d75c:	e59f0018 	ldr	r0, [pc, #24]	; d77c <DWHCIRegisterClearAll+0x34>
    d760:	eb003049 	bl	1988c <uspi_assertion_failed>
    d764:	e3a03000 	mov	r3, #0
    d768:	e5843008 	str	r3, [r4, #8]
    d76c:	e3a03001 	mov	r3, #1
    d770:	e5843000 	str	r3, [r4]
    d774:	e8bd8010 	pop	{r4, pc}
    d778:	0001ba50 	.word	0x0001ba50
    d77c:	0001b4d8 	.word	0x0001b4d8

0000d780 <DWHCIRegisterSetAll>:
    d780:	e92d4010 	push	{r4, lr}
    d784:	e2504000 	subs	r4, r0, #0
    d788:	1a000003 	bne	d79c <DWHCIRegisterSetAll+0x1c>
    d78c:	e3a02079 	mov	r2, #121	; 0x79
    d790:	e59f1018 	ldr	r1, [pc, #24]	; d7b0 <DWHCIRegisterSetAll+0x30>
    d794:	e59f0018 	ldr	r0, [pc, #24]	; d7b4 <DWHCIRegisterSetAll+0x34>
    d798:	eb00303b 	bl	1988c <uspi_assertion_failed>
    d79c:	e3e03000 	mvn	r3, #0
    d7a0:	e5843008 	str	r3, [r4, #8]
    d7a4:	e3a03001 	mov	r3, #1
    d7a8:	e5843000 	str	r3, [r4]
    d7ac:	e8bd8010 	pop	{r4, pc}
    d7b0:	0001ba50 	.word	0x0001ba50
    d7b4:	0001b4d8 	.word	0x0001b4d8

0000d7b8 <DWHCIRegisterDump>:
    d7b8:	e92d4010 	push	{r4, lr}
    d7bc:	e24dd008 	sub	sp, sp, #8
    d7c0:	e2504000 	subs	r4, r0, #0
    d7c4:	1a000003 	bne	d7d8 <DWHCIRegisterDump+0x20>
    d7c8:	e3a02082 	mov	r2, #130	; 0x82
    d7cc:	e59f105c 	ldr	r1, [pc, #92]	; d830 <DWHCIRegisterDump+0x78>
    d7d0:	e59f005c 	ldr	r0, [pc, #92]	; d834 <DWHCIRegisterDump+0x7c>
    d7d4:	eb00302c 	bl	1988c <uspi_assertion_failed>
    d7d8:	e5943000 	ldr	r3, [r4]
    d7dc:	e3530000 	cmp	r3, #0
    d7e0:	0a000009 	beq	d80c <DWHCIRegisterDump+0x54>
    d7e4:	e5943004 	ldr	r3, [r4, #4]
    d7e8:	e1a03a03 	lsl	r3, r3, #20
    d7ec:	e5942008 	ldr	r2, [r4, #8]
    d7f0:	e58d2000 	str	r2, [sp]
    d7f4:	e1a03a23 	lsr	r3, r3, #20
    d7f8:	e59f2038 	ldr	r2, [pc, #56]	; d838 <DWHCIRegisterDump+0x80>
    d7fc:	e3a01004 	mov	r1, #4
    d800:	e59f0034 	ldr	r0, [pc, #52]	; d83c <DWHCIRegisterDump+0x84>
    d804:	eb00300e 	bl	19844 <LogWrite>
    d808:	ea000006 	b	d828 <DWHCIRegisterDump+0x70>
    d80c:	e5943004 	ldr	r3, [r4, #4]
    d810:	e1a03a03 	lsl	r3, r3, #20
    d814:	e1a03a23 	lsr	r3, r3, #20
    d818:	e59f2020 	ldr	r2, [pc, #32]	; d840 <DWHCIRegisterDump+0x88>
    d81c:	e3a01004 	mov	r1, #4
    d820:	e59f0014 	ldr	r0, [pc, #20]	; d83c <DWHCIRegisterDump+0x84>
    d824:	eb003006 	bl	19844 <LogWrite>
    d828:	e28dd008 	add	sp, sp, #8
    d82c:	e8bd8010 	pop	{r4, pc}
    d830:	0001ba50 	.word	0x0001ba50
    d834:	0001b4d8 	.word	0x0001b4d8
    d838:	0001ba94 	.word	0x0001ba94
    d83c:	0001bab0 	.word	0x0001bab0
    d840:	0001bab8 	.word	0x0001bab8

0000d844 <_DWHCITransferStageData>:
    d844:	e92d4010 	push	{r4, lr}
    d848:	e2504000 	subs	r4, r0, #0
    d84c:	1a000003 	bne	d860 <_DWHCITransferStageData+0x1c>
    d850:	e3a02088 	mov	r2, #136	; 0x88
    d854:	e59f105c 	ldr	r1, [pc, #92]	; d8b8 <_DWHCITransferStageData+0x74>
    d858:	e59f005c 	ldr	r0, [pc, #92]	; d8bc <_DWHCITransferStageData+0x78>
    d85c:	eb00300a 	bl	1988c <uspi_assertion_failed>
    d860:	e5940050 	ldr	r0, [r4, #80]	; 0x50
    d864:	e3500000 	cmp	r0, #0
    d868:	0a000005 	beq	d884 <_DWHCITransferStageData+0x40>
    d86c:	e5903000 	ldr	r3, [r0]
    d870:	e12fff33 	blx	r3
    d874:	e5940050 	ldr	r0, [r4, #80]	; 0x50
    d878:	eb002845 	bl	17994 <free>
    d87c:	e3a03000 	mov	r3, #0
    d880:	e5843050 	str	r3, [r4, #80]	; 0x50
    d884:	e3a03000 	mov	r3, #0
    d888:	e584304c 	str	r3, [r4, #76]	; 0x4c
    d88c:	e5940048 	ldr	r0, [r4, #72]	; 0x48
    d890:	e1500003 	cmp	r0, r3
    d894:	0a000002 	beq	d8a4 <_DWHCITransferStageData+0x60>
    d898:	eb00283d 	bl	17994 <free>
    d89c:	e3a03000 	mov	r3, #0
    d8a0:	e5843048 	str	r3, [r4, #72]	; 0x48
    d8a4:	e3a03000 	mov	r3, #0
    d8a8:	e584301c 	str	r3, [r4, #28]
    d8ac:	e5843018 	str	r3, [r4, #24]
    d8b0:	e5843004 	str	r3, [r4, #4]
    d8b4:	e8bd8010 	pop	{r4, pc}
    d8b8:	0001bad8 	.word	0x0001bad8
    d8bc:	0001b4d8 	.word	0x0001b4d8

0000d8c0 <DWHCITransferStageDataTransactionComplete>:
    d8c0:	e92d41f0 	push	{r4, r5, r6, r7, r8, lr}
    d8c4:	e1a07001 	mov	r7, r1
    d8c8:	e1a06002 	mov	r6, r2
    d8cc:	e1a05003 	mov	r5, r3
    d8d0:	e2504000 	subs	r4, r0, #0
    d8d4:	1a000003 	bne	d8e8 <DWHCITransferStageDataTransactionComplete+0x28>
    d8d8:	e3a020a0 	mov	r2, #160	; 0xa0
    d8dc:	e59f1120 	ldr	r1, [pc, #288]	; da04 <DWHCITransferStageDataTransactionComplete+0x144>
    d8e0:	e59f0120 	ldr	r0, [pc, #288]	; da08 <DWHCITransferStageDataTransactionComplete+0x148>
    d8e4:	eb002fe8 	bl	1988c <uspi_assertion_failed>
    d8e8:	e5847044 	str	r7, [r4, #68]	; 0x44
    d8ec:	e59f3118 	ldr	r3, [pc, #280]	; da0c <DWHCITransferStageDataTransactionComplete+0x14c>
    d8f0:	e0033007 	and	r3, r3, r7
    d8f4:	e3530000 	cmp	r3, #0
    d8f8:	18bd81f0 	popne	{r4, r5, r6, r7, r8, pc}
    d8fc:	e5943034 	ldr	r3, [r4, #52]	; 0x34
    d900:	e0666003 	rsb	r6, r6, r3
    d904:	e5942030 	ldr	r2, [r4, #48]	; 0x30
    d908:	e0653002 	rsb	r3, r5, r2
    d90c:	e5941010 	ldr	r1, [r4, #16]
    d910:	e3510000 	cmp	r1, #0
    d914:	0a000033 	beq	d9e8 <DWHCITransferStageDataTransactionComplete+0x128>
    d918:	e5941014 	ldr	r1, [r4, #20]
    d91c:	e3510000 	cmp	r1, #0
    d920:	13520000 	cmpne	r2, #0
    d924:	13a02001 	movne	r2, #1
    d928:	03a02000 	moveq	r2, #0
    d92c:	e3530000 	cmp	r3, #0
    d930:	13a02000 	movne	r2, #0
    d934:	02022001 	andeq	r2, r2, #1
    d938:	e3520000 	cmp	r2, #0
    d93c:	15943024 	ldrne	r3, [r4, #36]	; 0x24
    d940:	10030693 	mulne	r3, r3, r6
    d944:	ea00001e 	b	d9c4 <DWHCITransferStageDataTransactionComplete+0x104>
    d948:	e594200c 	ldr	r2, [r4, #12]
    d94c:	e1a01006 	mov	r1, r6
    d950:	e594001c 	ldr	r0, [r4, #28]
    d954:	eb0007b9 	bl	f840 <USBEndpointSkipPID>
    d958:	e594302c 	ldr	r3, [r4, #44]	; 0x2c
    d95c:	e1560003 	cmp	r6, r3
    d960:	9a000003 	bls	d974 <DWHCITransferStageDataTransactionComplete+0xb4>
    d964:	e3a020c9 	mov	r2, #201	; 0xc9
    d968:	e59f1094 	ldr	r1, [pc, #148]	; da04 <DWHCITransferStageDataTransactionComplete+0x144>
    d96c:	e59f009c 	ldr	r0, [pc, #156]	; da10 <DWHCITransferStageDataTransactionComplete+0x150>
    d970:	eb002fc5 	bl	1988c <uspi_assertion_failed>
    d974:	e594302c 	ldr	r3, [r4, #44]	; 0x2c
    d978:	e0666003 	rsb	r6, r6, r3
    d97c:	e584602c 	str	r6, [r4, #44]	; 0x2c
    d980:	e5942028 	ldr	r2, [r4, #40]	; 0x28
    d984:	e5943038 	ldr	r3, [r4, #56]	; 0x38
    d988:	e0630002 	rsb	r0, r3, r2
    d98c:	e5941030 	ldr	r1, [r4, #48]	; 0x30
    d990:	e1500001 	cmp	r0, r1
    d994:	28bd81f0 	popcs	{r4, r5, r6, r7, r8, pc}
    d998:	e1520003 	cmp	r2, r3
    d99c:	2a000003 	bcs	d9b0 <DWHCITransferStageDataTransactionComplete+0xf0>
    d9a0:	e3a020cf 	mov	r2, #207	; 0xcf
    d9a4:	e59f1058 	ldr	r1, [pc, #88]	; da04 <DWHCITransferStageDataTransactionComplete+0x144>
    d9a8:	e59f0064 	ldr	r0, [pc, #100]	; da14 <DWHCITransferStageDataTransactionComplete+0x154>
    d9ac:	eb002fb6 	bl	1988c <uspi_assertion_failed>
    d9b0:	e5943028 	ldr	r3, [r4, #40]	; 0x28
    d9b4:	e5942038 	ldr	r2, [r4, #56]	; 0x38
    d9b8:	e0623003 	rsb	r3, r2, r3
    d9bc:	e5843030 	str	r3, [r4, #48]	; 0x30
    d9c0:	e8bd81f0 	pop	{r4, r5, r6, r7, r8, pc}
    d9c4:	e5942038 	ldr	r2, [r4, #56]	; 0x38
    d9c8:	e0822003 	add	r2, r2, r3
    d9cc:	e5842038 	str	r2, [r4, #56]	; 0x38
    d9d0:	e594204c 	ldr	r2, [r4, #76]	; 0x4c
    d9d4:	e0823003 	add	r3, r2, r3
    d9d8:	e584304c 	str	r3, [r4, #76]	; 0x4c
    d9dc:	e3510000 	cmp	r1, #0
    d9e0:	1affffd8 	bne	d948 <DWHCITransferStageDataTransactionComplete+0x88>
    d9e4:	eaffffdb 	b	d958 <DWHCITransferStageDataTransactionComplete+0x98>
    d9e8:	e5942038 	ldr	r2, [r4, #56]	; 0x38
    d9ec:	e0822003 	add	r2, r2, r3
    d9f0:	e5842038 	str	r2, [r4, #56]	; 0x38
    d9f4:	e594204c 	ldr	r2, [r4, #76]	; 0x4c
    d9f8:	e0823003 	add	r3, r2, r3
    d9fc:	e584304c 	str	r3, [r4, #76]	; 0x4c
    da00:	eaffffd0 	b	d948 <DWHCITransferStageDataTransactionComplete+0x88>
    da04:	0001bad8 	.word	0x0001bad8
    da08:	0001b4d8 	.word	0x0001b4d8
    da0c:	000007dc 	.word	0x000007dc
    da10:	0001baf0 	.word	0x0001baf0
    da14:	0001bb18 	.word	0x0001bb18

0000da18 <DWHCITransferStageDataSetSplitComplete>:
    da18:	e92d4070 	push	{r4, r5, r6, lr}
    da1c:	e1a05001 	mov	r5, r1
    da20:	e2504000 	subs	r4, r0, #0
    da24:	1a000003 	bne	da38 <DWHCITransferStageDataSetSplitComplete+0x20>
    da28:	e3a020d6 	mov	r2, #214	; 0xd6
    da2c:	e59f1028 	ldr	r1, [pc, #40]	; da5c <DWHCITransferStageDataSetSplitComplete+0x44>
    da30:	e59f0028 	ldr	r0, [pc, #40]	; da60 <DWHCITransferStageDataSetSplitComplete+0x48>
    da34:	eb002f94 	bl	1988c <uspi_assertion_failed>
    da38:	e5943010 	ldr	r3, [r4, #16]
    da3c:	e3530000 	cmp	r3, #0
    da40:	1a000003 	bne	da54 <DWHCITransferStageDataSetSplitComplete+0x3c>
    da44:	e3a020d7 	mov	r2, #215	; 0xd7
    da48:	e59f100c 	ldr	r1, [pc, #12]	; da5c <DWHCITransferStageDataSetSplitComplete+0x44>
    da4c:	e59f0010 	ldr	r0, [pc, #16]	; da64 <DWHCITransferStageDataSetSplitComplete+0x4c>
    da50:	eb002f8d 	bl	1988c <uspi_assertion_failed>
    da54:	e5845014 	str	r5, [r4, #20]
    da58:	e8bd8070 	pop	{r4, r5, r6, pc}
    da5c:	0001bad8 	.word	0x0001bad8
    da60:	0001b4d8 	.word	0x0001b4d8
    da64:	0001bb54 	.word	0x0001bb54

0000da68 <DWHCITransferStageDataSetState>:
    da68:	e92d4070 	push	{r4, r5, r6, lr}
    da6c:	e1a05001 	mov	r5, r1
    da70:	e2504000 	subs	r4, r0, #0
    da74:	1a000003 	bne	da88 <DWHCITransferStageDataSetState+0x20>
    da78:	e3a020de 	mov	r2, #222	; 0xde
    da7c:	e59f100c 	ldr	r1, [pc, #12]	; da90 <DWHCITransferStageDataSetState+0x28>
    da80:	e59f000c 	ldr	r0, [pc, #12]	; da94 <DWHCITransferStageDataSetState+0x2c>
    da84:	eb002f80 	bl	1988c <uspi_assertion_failed>
    da88:	e584503c 	str	r5, [r4, #60]	; 0x3c
    da8c:	e8bd8070 	pop	{r4, r5, r6, pc}
    da90:	0001bad8 	.word	0x0001bad8
    da94:	0001b4d8 	.word	0x0001b4d8

0000da98 <DWHCITransferStageDataGetState>:
    da98:	e92d4010 	push	{r4, lr}
    da9c:	e2504000 	subs	r4, r0, #0
    daa0:	1a000003 	bne	dab4 <DWHCITransferStageDataGetState+0x1c>
    daa4:	e3a020e4 	mov	r2, #228	; 0xe4
    daa8:	e59f100c 	ldr	r1, [pc, #12]	; dabc <DWHCITransferStageDataGetState+0x24>
    daac:	e59f000c 	ldr	r0, [pc, #12]	; dac0 <DWHCITransferStageDataGetState+0x28>
    dab0:	eb002f75 	bl	1988c <uspi_assertion_failed>
    dab4:	e594003c 	ldr	r0, [r4, #60]	; 0x3c
    dab8:	e8bd8010 	pop	{r4, pc}
    dabc:	0001bad8 	.word	0x0001bad8
    dac0:	0001b4d8 	.word	0x0001b4d8

0000dac4 <DWHCITransferStageDataSetSubState>:
    dac4:	e92d4070 	push	{r4, r5, r6, lr}
    dac8:	e1a05001 	mov	r5, r1
    dacc:	e2504000 	subs	r4, r0, #0
    dad0:	1a000003 	bne	dae4 <DWHCITransferStageDataSetSubState+0x20>
    dad4:	e3a020ea 	mov	r2, #234	; 0xea
    dad8:	e59f100c 	ldr	r1, [pc, #12]	; daec <DWHCITransferStageDataSetSubState+0x28>
    dadc:	e59f000c 	ldr	r0, [pc, #12]	; daf0 <DWHCITransferStageDataSetSubState+0x2c>
    dae0:	eb002f69 	bl	1988c <uspi_assertion_failed>
    dae4:	e5845040 	str	r5, [r4, #64]	; 0x40
    dae8:	e8bd8070 	pop	{r4, r5, r6, pc}
    daec:	0001bad8 	.word	0x0001bad8
    daf0:	0001b4d8 	.word	0x0001b4d8

0000daf4 <DWHCITransferStageDataGetSubState>:
    daf4:	e92d4010 	push	{r4, lr}
    daf8:	e2504000 	subs	r4, r0, #0
    dafc:	1a000003 	bne	db10 <DWHCITransferStageDataGetSubState+0x1c>
    db00:	e3a020f0 	mov	r2, #240	; 0xf0
    db04:	e59f100c 	ldr	r1, [pc, #12]	; db18 <DWHCITransferStageDataGetSubState+0x24>
    db08:	e59f000c 	ldr	r0, [pc, #12]	; db1c <DWHCITransferStageDataGetSubState+0x28>
    db0c:	eb002f5e 	bl	1988c <uspi_assertion_failed>
    db10:	e5940040 	ldr	r0, [r4, #64]	; 0x40
    db14:	e8bd8010 	pop	{r4, pc}
    db18:	0001bad8 	.word	0x0001bad8
    db1c:	0001b4d8 	.word	0x0001b4d8

0000db20 <DWHCITransferStageDataBeginSplitCycle>:
    db20:	e3a00001 	mov	r0, #1
    db24:	e12fff1e 	bx	lr

0000db28 <DWHCITransferStageDataGetChannelNumber>:
    db28:	e92d4010 	push	{r4, lr}
    db2c:	e2504000 	subs	r4, r0, #0
    db30:	1a000003 	bne	db44 <DWHCITransferStageDataGetChannelNumber+0x1c>
    db34:	e3a020fb 	mov	r2, #251	; 0xfb
    db38:	e59f100c 	ldr	r1, [pc, #12]	; db4c <DWHCITransferStageDataGetChannelNumber+0x24>
    db3c:	e59f000c 	ldr	r0, [pc, #12]	; db50 <DWHCITransferStageDataGetChannelNumber+0x28>
    db40:	eb002f51 	bl	1988c <uspi_assertion_failed>
    db44:	e5940000 	ldr	r0, [r4]
    db48:	e8bd8010 	pop	{r4, pc}
    db4c:	0001bad8 	.word	0x0001bad8
    db50:	0001b4d8 	.word	0x0001b4d8

0000db54 <DWHCITransferStageDataIsPeriodic>:
    db54:	e92d4010 	push	{r4, lr}
    db58:	e2504000 	subs	r4, r0, #0
    db5c:	1a000003 	bne	db70 <DWHCITransferStageDataIsPeriodic+0x1c>
    db60:	e59f2044 	ldr	r2, [pc, #68]	; dbac <DWHCITransferStageDataIsPeriodic+0x58>
    db64:	e59f1044 	ldr	r1, [pc, #68]	; dbb0 <DWHCITransferStageDataIsPeriodic+0x5c>
    db68:	e59f0044 	ldr	r0, [pc, #68]	; dbb4 <DWHCITransferStageDataIsPeriodic+0x60>
    db6c:	eb002f46 	bl	1988c <uspi_assertion_failed>
    db70:	e594301c 	ldr	r3, [r4, #28]
    db74:	e3530000 	cmp	r3, #0
    db78:	1a000003 	bne	db8c <DWHCITransferStageDataIsPeriodic+0x38>
    db7c:	e59f2034 	ldr	r2, [pc, #52]	; dbb8 <DWHCITransferStageDataIsPeriodic+0x64>
    db80:	e59f1028 	ldr	r1, [pc, #40]	; dbb0 <DWHCITransferStageDataIsPeriodic+0x5c>
    db84:	e59f0030 	ldr	r0, [pc, #48]	; dbbc <DWHCITransferStageDataIsPeriodic+0x68>
    db88:	eb002f3f 	bl	1988c <uspi_assertion_failed>
    db8c:	e594001c 	ldr	r0, [r4, #28]
    db90:	eb0006d0 	bl	f6d8 <USBEndpointGetType>
    db94:	e2400002 	sub	r0, r0, #2
    db98:	e6ef0070 	uxtb	r0, r0
    db9c:	e3500001 	cmp	r0, #1
    dba0:	83a00000 	movhi	r0, #0
    dba4:	93a00001 	movls	r0, #1
    dba8:	e8bd8010 	pop	{r4, pc}
    dbac:	00000101 	.word	0x00000101
    dbb0:	0001bad8 	.word	0x0001bad8
    dbb4:	0001b4d8 	.word	0x0001b4d8
    dbb8:	00000102 	.word	0x00000102
    dbbc:	0001bb70 	.word	0x0001bb70

0000dbc0 <DWHCITransferStageData>:
    dbc0:	e92d41f0 	push	{r4, r5, r6, r7, r8, lr}
    dbc4:	e1a08001 	mov	r8, r1
    dbc8:	e1a05002 	mov	r5, r2
    dbcc:	e1a07003 	mov	r7, r3
    dbd0:	e59d6018 	ldr	r6, [sp, #24]
    dbd4:	e2504000 	subs	r4, r0, #0
    dbd8:	1a000003 	bne	dbec <DWHCITransferStageData+0x2c>
    dbdc:	e3a0201e 	mov	r2, #30
    dbe0:	e59f12c0 	ldr	r1, [pc, #704]	; dea8 <DWHCITransferStageData+0x2e8>
    dbe4:	e59f02c0 	ldr	r0, [pc, #704]	; deac <DWHCITransferStageData+0x2ec>
    dbe8:	eb002f27 	bl	1988c <uspi_assertion_failed>
    dbec:	e5848000 	str	r8, [r4]
    dbf0:	e5845004 	str	r5, [r4, #4]
    dbf4:	e5847008 	str	r7, [r4, #8]
    dbf8:	e584600c 	str	r6, [r4, #12]
    dbfc:	e3a03000 	mov	r3, #0
    dc00:	e5843014 	str	r3, [r4, #20]
    dc04:	e5843038 	str	r3, [r4, #56]	; 0x38
    dc08:	e584303c 	str	r3, [r4, #60]	; 0x3c
    dc0c:	e5843040 	str	r3, [r4, #64]	; 0x40
    dc10:	e5843044 	str	r3, [r4, #68]	; 0x44
    dc14:	e5843048 	str	r3, [r4, #72]	; 0x48
    dc18:	e5843050 	str	r3, [r4, #80]	; 0x50
    dc1c:	e1550003 	cmp	r5, r3
    dc20:	1a000003 	bne	dc34 <DWHCITransferStageData+0x74>
    dc24:	e3a0202c 	mov	r2, #44	; 0x2c
    dc28:	e59f1278 	ldr	r1, [pc, #632]	; dea8 <DWHCITransferStageData+0x2e8>
    dc2c:	e59f027c 	ldr	r0, [pc, #636]	; deb0 <DWHCITransferStageData+0x2f0>
    dc30:	eb002f15 	bl	1988c <uspi_assertion_failed>
    dc34:	e1a00005 	mov	r0, r5
    dc38:	eb000785 	bl	fa54 <USBRequestGetEndpoint>
    dc3c:	e584001c 	str	r0, [r4, #28]
    dc40:	e3500000 	cmp	r0, #0
    dc44:	1a000003 	bne	dc58 <DWHCITransferStageData+0x98>
    dc48:	e3a0202f 	mov	r2, #47	; 0x2f
    dc4c:	e59f1254 	ldr	r1, [pc, #596]	; dea8 <DWHCITransferStageData+0x2e8>
    dc50:	e59f025c 	ldr	r0, [pc, #604]	; deb4 <DWHCITransferStageData+0x2f4>
    dc54:	eb002f0c 	bl	1988c <uspi_assertion_failed>
    dc58:	e594001c 	ldr	r0, [r4, #28]
    dc5c:	eb00067f 	bl	f660 <USBEndpointGetDevice>
    dc60:	e5840018 	str	r0, [r4, #24]
    dc64:	e3500000 	cmp	r0, #0
    dc68:	1a000003 	bne	dc7c <DWHCITransferStageData+0xbc>
    dc6c:	e3a02031 	mov	r2, #49	; 0x31
    dc70:	e59f1230 	ldr	r1, [pc, #560]	; dea8 <DWHCITransferStageData+0x2e8>
    dc74:	e59f023c 	ldr	r0, [pc, #572]	; deb8 <DWHCITransferStageData+0x2f8>
    dc78:	eb002f03 	bl	1988c <uspi_assertion_failed>
    dc7c:	e5940018 	ldr	r0, [r4, #24]
    dc80:	eb0003d9 	bl	ebec <USBDeviceGetSpeed>
    dc84:	e5c40020 	strb	r0, [r4, #32]
    dc88:	e594001c 	ldr	r0, [r4, #28]
    dc8c:	eb0006b3 	bl	f760 <USBEndpointGetMaxPacketSize>
    dc90:	e5840024 	str	r0, [r4, #36]	; 0x24
    dc94:	e5940018 	ldr	r0, [r4, #24]
    dc98:	eb0003df 	bl	ec1c <USBDeviceGetHubAddress>
    dc9c:	e3500000 	cmp	r0, #0
    dca0:	03a03000 	moveq	r3, #0
    dca4:	0a000003 	beq	dcb8 <DWHCITransferStageData+0xf8>
    dca8:	e5d43020 	ldrb	r3, [r4, #32]
    dcac:	e2533002 	subs	r3, r3, #2
    dcb0:	13a03001 	movne	r3, #1
    dcb4:	eaffffff 	b	dcb8 <DWHCITransferStageData+0xf8>
    dcb8:	e5843010 	str	r3, [r4, #16]
    dcbc:	e3560000 	cmp	r6, #0
    dcc0:	1a000022 	bne	dd50 <DWHCITransferStageData+0x190>
    dcc4:	e3a01000 	mov	r1, #0
    dcc8:	e594001c 	ldr	r0, [r4, #28]
    dccc:	eb0006c1 	bl	f7d8 <USBEndpointGetNextPID>
    dcd0:	e3500000 	cmp	r0, #0
    dcd4:	1a000005 	bne	dcf0 <DWHCITransferStageData+0x130>
    dcd8:	e1a00005 	mov	r0, r5
    dcdc:	eb0007a5 	bl	fb78 <USBRequestGetSetupData>
    dce0:	e584004c 	str	r0, [r4, #76]	; 0x4c
    dce4:	e3a03008 	mov	r3, #8
    dce8:	e5843028 	str	r3, [r4, #40]	; 0x28
    dcec:	ea000005 	b	dd08 <DWHCITransferStageData+0x148>
    dcf0:	e1a00005 	mov	r0, r5
    dcf4:	eb0007bb 	bl	fbe8 <USBRequestGetBuffer>
    dcf8:	e584004c 	str	r0, [r4, #76]	; 0x4c
    dcfc:	e1a00005 	mov	r0, r5
    dd00:	eb0007ce 	bl	fc40 <USBRequestGetBufLen>
    dd04:	e5840028 	str	r0, [r4, #40]	; 0x28
    dd08:	e5946028 	ldr	r6, [r4, #40]	; 0x28
    dd0c:	e5945024 	ldr	r5, [r4, #36]	; 0x24
    dd10:	e0860005 	add	r0, r6, r5
    dd14:	e1a01005 	mov	r1, r5
    dd18:	e2400001 	sub	r0, r0, #1
    dd1c:	eb002825 	bl	17db8 <__aeabi_uidiv>
    dd20:	e584002c 	str	r0, [r4, #44]	; 0x2c
    dd24:	e5943010 	ldr	r3, [r4, #16]
    dd28:	e3530000 	cmp	r3, #0
    dd2c:	05846030 	streq	r6, [r4, #48]	; 0x30
    dd30:	05840034 	streq	r0, [r4, #52]	; 0x34
    dd34:	0a00001d 	beq	ddb0 <DWHCITransferStageData+0x1f0>
    dd38:	e1550006 	cmp	r5, r6
    dd3c:	21a05006 	movcs	r5, r6
    dd40:	e5845030 	str	r5, [r4, #48]	; 0x30
    dd44:	e3a03001 	mov	r3, #1
    dd48:	e5843034 	str	r3, [r4, #52]	; 0x34
    dd4c:	ea000017 	b	ddb0 <DWHCITransferStageData+0x1f0>
    dd50:	e5943048 	ldr	r3, [r4, #72]	; 0x48
    dd54:	e3530000 	cmp	r3, #0
    dd58:	0a000003 	beq	dd6c <DWHCITransferStageData+0x1ac>
    dd5c:	e3a0205d 	mov	r2, #93	; 0x5d
    dd60:	e59f1140 	ldr	r1, [pc, #320]	; dea8 <DWHCITransferStageData+0x2e8>
    dd64:	e59f0150 	ldr	r0, [pc, #336]	; debc <DWHCITransferStageData+0x2fc>
    dd68:	eb002ec7 	bl	1988c <uspi_assertion_failed>
    dd6c:	e3a00004 	mov	r0, #4
    dd70:	eb00269e 	bl	177f0 <malloc>
    dd74:	e5840048 	str	r0, [r4, #72]	; 0x48
    dd78:	e3500000 	cmp	r0, #0
    dd7c:	1a000003 	bne	dd90 <DWHCITransferStageData+0x1d0>
    dd80:	e3a0205f 	mov	r2, #95	; 0x5f
    dd84:	e59f111c 	ldr	r1, [pc, #284]	; dea8 <DWHCITransferStageData+0x2e8>
    dd88:	e59f0130 	ldr	r0, [pc, #304]	; dec0 <DWHCITransferStageData+0x300>
    dd8c:	eb002ebe 	bl	1988c <uspi_assertion_failed>
    dd90:	e5943048 	ldr	r3, [r4, #72]	; 0x48
    dd94:	e584304c 	str	r3, [r4, #76]	; 0x4c
    dd98:	e3a03000 	mov	r3, #0
    dd9c:	e5843028 	str	r3, [r4, #40]	; 0x28
    dda0:	e5843030 	str	r3, [r4, #48]	; 0x30
    dda4:	e3a03001 	mov	r3, #1
    dda8:	e584302c 	str	r3, [r4, #44]	; 0x2c
    ddac:	e5843034 	str	r3, [r4, #52]	; 0x34
    ddb0:	e594304c 	ldr	r3, [r4, #76]	; 0x4c
    ddb4:	e3530000 	cmp	r3, #0
    ddb8:	1a000003 	bne	ddcc <DWHCITransferStageData+0x20c>
    ddbc:	e3a02068 	mov	r2, #104	; 0x68
    ddc0:	e59f10e0 	ldr	r1, [pc, #224]	; dea8 <DWHCITransferStageData+0x2e8>
    ddc4:	e59f00f8 	ldr	r0, [pc, #248]	; dec4 <DWHCITransferStageData+0x304>
    ddc8:	eb002eaf 	bl	1988c <uspi_assertion_failed>
    ddcc:	e594304c 	ldr	r3, [r4, #76]	; 0x4c
    ddd0:	e3130003 	tst	r3, #3
    ddd4:	0a000003 	beq	dde8 <DWHCITransferStageData+0x228>
    ddd8:	e3a02069 	mov	r2, #105	; 0x69
    dddc:	e59f10c4 	ldr	r1, [pc, #196]	; dea8 <DWHCITransferStageData+0x2e8>
    dde0:	e59f00e0 	ldr	r0, [pc, #224]	; dec8 <DWHCITransferStageData+0x308>
    dde4:	eb002ea8 	bl	1988c <uspi_assertion_failed>
    dde8:	e5943010 	ldr	r3, [r4, #16]
    ddec:	e3530000 	cmp	r3, #0
    ddf0:	0a000014 	beq	de48 <DWHCITransferStageData+0x288>
    ddf4:	e1a00004 	mov	r0, r4
    ddf8:	ebffff55 	bl	db54 <DWHCITransferStageDataIsPeriodic>
    ddfc:	e3500000 	cmp	r0, #0
    de00:	0a000004 	beq	de18 <DWHCITransferStageData+0x258>
    de04:	e3a00024 	mov	r0, #36	; 0x24
    de08:	eb002678 	bl	177f0 <malloc>
    de0c:	e5840050 	str	r0, [r4, #80]	; 0x50
    de10:	eb001468 	bl	12fb8 <DWHCIFrameSchedulerPeriodic>
    de14:	ea000003 	b	de28 <DWHCITransferStageData+0x268>
    de18:	e3a00020 	mov	r0, #32
    de1c:	eb002673 	bl	177f0 <malloc>
    de20:	e5840050 	str	r0, [r4, #80]	; 0x50
    de24:	eb001386 	bl	12c44 <DWHCIFrameSchedulerNonPeriodic>
    de28:	e5943050 	ldr	r3, [r4, #80]	; 0x50
    de2c:	e3530000 	cmp	r3, #0
    de30:	18bd81f0 	popne	{r4, r5, r6, r7, r8, pc}
    de34:	e3a02078 	mov	r2, #120	; 0x78
    de38:	e59f1068 	ldr	r1, [pc, #104]	; dea8 <DWHCITransferStageData+0x2e8>
    de3c:	e59f0088 	ldr	r0, [pc, #136]	; decc <DWHCITransferStageData+0x30c>
    de40:	eb002e91 	bl	1988c <uspi_assertion_failed>
    de44:	e8bd81f0 	pop	{r4, r5, r6, r7, r8, pc}
    de48:	e5940018 	ldr	r0, [r4, #24]
    de4c:	eb000372 	bl	ec1c <USBDeviceGetHubAddress>
    de50:	e3500000 	cmp	r0, #0
    de54:	18bd81f0 	popne	{r4, r5, r6, r7, r8, pc}
    de58:	e5d43020 	ldrb	r3, [r4, #32]
    de5c:	e3530002 	cmp	r3, #2
    de60:	08bd81f0 	popeq	{r4, r5, r6, r7, r8, pc}
    de64:	e3a00020 	mov	r0, #32
    de68:	eb002660 	bl	177f0 <malloc>
    de6c:	e1a05000 	mov	r5, r0
    de70:	e5840050 	str	r0, [r4, #80]	; 0x50
    de74:	e1a00004 	mov	r0, r4
    de78:	ebffff35 	bl	db54 <DWHCITransferStageDataIsPeriodic>
    de7c:	e1a01000 	mov	r1, r0
    de80:	e1a00005 	mov	r0, r5
    de84:	eb00192c 	bl	1433c <DWHCIFrameSchedulerNoSplit>
    de88:	e5943050 	ldr	r3, [r4, #80]	; 0x50
    de8c:	e3530000 	cmp	r3, #0
    de90:	18bd81f0 	popne	{r4, r5, r6, r7, r8, pc}
    de94:	e3a02081 	mov	r2, #129	; 0x81
    de98:	e59f1008 	ldr	r1, [pc, #8]	; dea8 <DWHCITransferStageData+0x2e8>
    de9c:	e59f0028 	ldr	r0, [pc, #40]	; decc <DWHCITransferStageData+0x30c>
    dea0:	eb002e79 	bl	1988c <uspi_assertion_failed>
    dea4:	e8bd81f0 	pop	{r4, r5, r6, r7, r8, pc}
    dea8:	0001bad8 	.word	0x0001bad8
    deac:	0001b4d8 	.word	0x0001b4d8
    deb0:	0001bb88 	.word	0x0001bb88
    deb4:	0001bb70 	.word	0x0001bb70
    deb8:	0001bb9c 	.word	0x0001bb9c
    debc:	0001bbb4 	.word	0x0001bbb4
    dec0:	0001bbd0 	.word	0x0001bbd0
    dec4:	0001bbec 	.word	0x0001bbec
    dec8:	0001bc0c 	.word	0x0001bc0c
    decc:	0001bc38 	.word	0x0001bc38

0000ded0 <DWHCITransferStageDataGetDeviceAddress>:
    ded0:	e92d4010 	push	{r4, lr}
    ded4:	e2504000 	subs	r4, r0, #0
    ded8:	1a000003 	bne	deec <DWHCITransferStageDataGetDeviceAddress+0x1c>
    dedc:	e59f2030 	ldr	r2, [pc, #48]	; df14 <DWHCITransferStageDataGetDeviceAddress+0x44>
    dee0:	e59f1030 	ldr	r1, [pc, #48]	; df18 <DWHCITransferStageDataGetDeviceAddress+0x48>
    dee4:	e59f0030 	ldr	r0, [pc, #48]	; df1c <DWHCITransferStageDataGetDeviceAddress+0x4c>
    dee8:	eb002e67 	bl	1988c <uspi_assertion_failed>
    deec:	e5943018 	ldr	r3, [r4, #24]
    def0:	e3530000 	cmp	r3, #0
    def4:	1a000003 	bne	df08 <DWHCITransferStageDataGetDeviceAddress+0x38>
    def8:	e3a02f43 	mov	r2, #268	; 0x10c
    defc:	e59f1014 	ldr	r1, [pc, #20]	; df18 <DWHCITransferStageDataGetDeviceAddress+0x48>
    df00:	e59f0018 	ldr	r0, [pc, #24]	; df20 <DWHCITransferStageDataGetDeviceAddress+0x50>
    df04:	eb002e60 	bl	1988c <uspi_assertion_failed>
    df08:	e5940018 	ldr	r0, [r4, #24]
    df0c:	eb00032a 	bl	ebbc <USBDeviceGetAddress>
    df10:	e8bd8010 	pop	{r4, pc}
    df14:	0000010b 	.word	0x0000010b
    df18:	0001bad8 	.word	0x0001bad8
    df1c:	0001b4d8 	.word	0x0001b4d8
    df20:	0001bb9c 	.word	0x0001bb9c

0000df24 <DWHCITransferStageDataGetEndpointType>:
    df24:	e92d4010 	push	{r4, lr}
    df28:	e2504000 	subs	r4, r0, #0
    df2c:	1a000003 	bne	df40 <DWHCITransferStageDataGetEndpointType+0x1c>
    df30:	e59f2074 	ldr	r2, [pc, #116]	; dfac <DWHCITransferStageDataGetEndpointType+0x88>
    df34:	e59f1074 	ldr	r1, [pc, #116]	; dfb0 <DWHCITransferStageDataGetEndpointType+0x8c>
    df38:	e59f0074 	ldr	r0, [pc, #116]	; dfb4 <DWHCITransferStageDataGetEndpointType+0x90>
    df3c:	eb002e52 	bl	1988c <uspi_assertion_failed>
    df40:	e594301c 	ldr	r3, [r4, #28]
    df44:	e3530000 	cmp	r3, #0
    df48:	1a000003 	bne	df5c <DWHCITransferStageDataGetEndpointType+0x38>
    df4c:	e59f2064 	ldr	r2, [pc, #100]	; dfb8 <DWHCITransferStageDataGetEndpointType+0x94>
    df50:	e59f1058 	ldr	r1, [pc, #88]	; dfb0 <DWHCITransferStageDataGetEndpointType+0x8c>
    df54:	e59f0060 	ldr	r0, [pc, #96]	; dfbc <DWHCITransferStageDataGetEndpointType+0x98>
    df58:	eb002e4b 	bl	1988c <uspi_assertion_failed>
    df5c:	e594001c 	ldr	r0, [r4, #28]
    df60:	eb0005dc 	bl	f6d8 <USBEndpointGetType>
    df64:	e3500001 	cmp	r0, #1
    df68:	0a000003 	beq	df7c <DWHCITransferStageDataGetEndpointType+0x58>
    df6c:	3a00000c 	bcc	dfa4 <DWHCITransferStageDataGetEndpointType+0x80>
    df70:	e3500002 	cmp	r0, #2
    df74:	0a000002 	beq	df84 <DWHCITransferStageDataGetEndpointType+0x60>
    df78:	ea000003 	b	df8c <DWHCITransferStageDataGetEndpointType+0x68>
    df7c:	e3a00002 	mov	r0, #2
    df80:	e8bd8010 	pop	{r4, pc}
    df84:	e3a00003 	mov	r0, #3
    df88:	e8bd8010 	pop	{r4, pc}
    df8c:	e59f202c 	ldr	r2, [pc, #44]	; dfc0 <DWHCITransferStageDataGetEndpointType+0x9c>
    df90:	e59f1018 	ldr	r1, [pc, #24]	; dfb0 <DWHCITransferStageDataGetEndpointType+0x8c>
    df94:	e59f0028 	ldr	r0, [pc, #40]	; dfc4 <DWHCITransferStageDataGetEndpointType+0xa0>
    df98:	eb002e3b 	bl	1988c <uspi_assertion_failed>
    df9c:	e3a00000 	mov	r0, #0
    dfa0:	e8bd8010 	pop	{r4, pc}
    dfa4:	e3a00000 	mov	r0, #0
    dfa8:	e8bd8010 	pop	{r4, pc}
    dfac:	00000112 	.word	0x00000112
    dfb0:	0001bad8 	.word	0x0001bad8
    dfb4:	0001b4d8 	.word	0x0001b4d8
    dfb8:	00000113 	.word	0x00000113
    dfbc:	0001bb70 	.word	0x0001bb70
    dfc0:	00000126 	.word	0x00000126
    dfc4:	0001d8fc 	.word	0x0001d8fc

0000dfc8 <DWHCITransferStageDataGetEndpointNumber>:
    dfc8:	e92d4010 	push	{r4, lr}
    dfcc:	e2504000 	subs	r4, r0, #0
    dfd0:	1a000003 	bne	dfe4 <DWHCITransferStageDataGetEndpointNumber+0x1c>
    dfd4:	e59f2030 	ldr	r2, [pc, #48]	; e00c <DWHCITransferStageDataGetEndpointNumber+0x44>
    dfd8:	e59f1030 	ldr	r1, [pc, #48]	; e010 <DWHCITransferStageDataGetEndpointNumber+0x48>
    dfdc:	e59f0030 	ldr	r0, [pc, #48]	; e014 <DWHCITransferStageDataGetEndpointNumber+0x4c>
    dfe0:	eb002e29 	bl	1988c <uspi_assertion_failed>
    dfe4:	e594301c 	ldr	r3, [r4, #28]
    dfe8:	e3530000 	cmp	r3, #0
    dfec:	1a000003 	bne	e000 <DWHCITransferStageDataGetEndpointNumber+0x38>
    dff0:	e3a02e13 	mov	r2, #304	; 0x130
    dff4:	e59f1014 	ldr	r1, [pc, #20]	; e010 <DWHCITransferStageDataGetEndpointNumber+0x48>
    dff8:	e59f0018 	ldr	r0, [pc, #24]	; e018 <DWHCITransferStageDataGetEndpointNumber+0x50>
    dffc:	eb002e22 	bl	1988c <uspi_assertion_failed>
    e000:	e594001c 	ldr	r0, [r4, #28]
    e004:	eb0005a8 	bl	f6ac <USBEndpointGetNumber>
    e008:	e8bd8010 	pop	{r4, pc}
    e00c:	0000012f 	.word	0x0000012f
    e010:	0001bad8 	.word	0x0001bad8
    e014:	0001b4d8 	.word	0x0001b4d8
    e018:	0001bb70 	.word	0x0001bb70

0000e01c <DWHCITransferStageDataGetMaxPacketSize>:
    e01c:	e92d4010 	push	{r4, lr}
    e020:	e2504000 	subs	r4, r0, #0
    e024:	1a000003 	bne	e038 <DWHCITransferStageDataGetMaxPacketSize+0x1c>
    e028:	e59f2010 	ldr	r2, [pc, #16]	; e040 <DWHCITransferStageDataGetMaxPacketSize+0x24>
    e02c:	e59f1010 	ldr	r1, [pc, #16]	; e044 <DWHCITransferStageDataGetMaxPacketSize+0x28>
    e030:	e59f0010 	ldr	r0, [pc, #16]	; e048 <DWHCITransferStageDataGetMaxPacketSize+0x2c>
    e034:	eb002e14 	bl	1988c <uspi_assertion_failed>
    e038:	e5940024 	ldr	r0, [r4, #36]	; 0x24
    e03c:	e8bd8010 	pop	{r4, pc}
    e040:	00000136 	.word	0x00000136
    e044:	0001bad8 	.word	0x0001bad8
    e048:	0001b4d8 	.word	0x0001b4d8

0000e04c <DWHCITransferStageDataGetSpeed>:
    e04c:	e92d4010 	push	{r4, lr}
    e050:	e2504000 	subs	r4, r0, #0
    e054:	1a000003 	bne	e068 <DWHCITransferStageDataGetSpeed+0x1c>
    e058:	e3a02f4f 	mov	r2, #316	; 0x13c
    e05c:	e59f100c 	ldr	r1, [pc, #12]	; e070 <DWHCITransferStageDataGetSpeed+0x24>
    e060:	e59f000c 	ldr	r0, [pc, #12]	; e074 <DWHCITransferStageDataGetSpeed+0x28>
    e064:	eb002e08 	bl	1988c <uspi_assertion_failed>
    e068:	e5d40020 	ldrb	r0, [r4, #32]
    e06c:	e8bd8010 	pop	{r4, pc}
    e070:	0001bad8 	.word	0x0001bad8
    e074:	0001b4d8 	.word	0x0001b4d8

0000e078 <DWHCITransferStageDataGetPID>:
    e078:	e92d4010 	push	{r4, lr}
    e07c:	e2504000 	subs	r4, r0, #0
    e080:	1a000003 	bne	e094 <DWHCITransferStageDataGetPID+0x1c>
    e084:	e59f2078 	ldr	r2, [pc, #120]	; e104 <DWHCITransferStageDataGetPID+0x8c>
    e088:	e59f1078 	ldr	r1, [pc, #120]	; e108 <DWHCITransferStageDataGetPID+0x90>
    e08c:	e59f0078 	ldr	r0, [pc, #120]	; e10c <DWHCITransferStageDataGetPID+0x94>
    e090:	eb002dfd 	bl	1988c <uspi_assertion_failed>
    e094:	e594301c 	ldr	r3, [r4, #28]
    e098:	e3530000 	cmp	r3, #0
    e09c:	1a000003 	bne	e0b0 <DWHCITransferStageDataGetPID+0x38>
    e0a0:	e59f2068 	ldr	r2, [pc, #104]	; e110 <DWHCITransferStageDataGetPID+0x98>
    e0a4:	e59f105c 	ldr	r1, [pc, #92]	; e108 <DWHCITransferStageDataGetPID+0x90>
    e0a8:	e59f0064 	ldr	r0, [pc, #100]	; e114 <DWHCITransferStageDataGetPID+0x9c>
    e0ac:	eb002df6 	bl	1988c <uspi_assertion_failed>
    e0b0:	e594100c 	ldr	r1, [r4, #12]
    e0b4:	e594001c 	ldr	r0, [r4, #28]
    e0b8:	eb0005c6 	bl	f7d8 <USBEndpointGetNextPID>
    e0bc:	e3500001 	cmp	r0, #1
    e0c0:	0a000003 	beq	e0d4 <DWHCITransferStageDataGetPID+0x5c>
    e0c4:	3a00000c 	bcc	e0fc <DWHCITransferStageDataGetPID+0x84>
    e0c8:	e3500002 	cmp	r0, #2
    e0cc:	0a000002 	beq	e0dc <DWHCITransferStageDataGetPID+0x64>
    e0d0:	ea000003 	b	e0e4 <DWHCITransferStageDataGetPID+0x6c>
    e0d4:	e3a00000 	mov	r0, #0
    e0d8:	e8bd8010 	pop	{r4, pc}
    e0dc:	e3a00002 	mov	r0, #2
    e0e0:	e8bd8010 	pop	{r4, pc}
    e0e4:	e59f202c 	ldr	r2, [pc, #44]	; e118 <DWHCITransferStageDataGetPID+0xa0>
    e0e8:	e59f1018 	ldr	r1, [pc, #24]	; e108 <DWHCITransferStageDataGetPID+0x90>
    e0ec:	e59f0028 	ldr	r0, [pc, #40]	; e11c <DWHCITransferStageDataGetPID+0xa4>
    e0f0:	eb002de5 	bl	1988c <uspi_assertion_failed>
    e0f4:	e3a00000 	mov	r0, #0
    e0f8:	e8bd8010 	pop	{r4, pc}
    e0fc:	e3a00003 	mov	r0, #3
    e100:	e8bd8010 	pop	{r4, pc}
    e104:	00000142 	.word	0x00000142
    e108:	0001bad8 	.word	0x0001bad8
    e10c:	0001b4d8 	.word	0x0001b4d8
    e110:	00000143 	.word	0x00000143
    e114:	0001bb70 	.word	0x0001bb70
    e118:	00000156 	.word	0x00000156
    e11c:	0001d8fc 	.word	0x0001d8fc

0000e120 <DWHCITransferStageDataIsDirectionIn>:
    e120:	e92d4010 	push	{r4, lr}
    e124:	e2504000 	subs	r4, r0, #0
    e128:	1a000003 	bne	e13c <DWHCITransferStageDataIsDirectionIn+0x1c>
    e12c:	e59f2010 	ldr	r2, [pc, #16]	; e144 <DWHCITransferStageDataIsDirectionIn+0x24>
    e130:	e59f1010 	ldr	r1, [pc, #16]	; e148 <DWHCITransferStageDataIsDirectionIn+0x28>
    e134:	e59f0010 	ldr	r0, [pc, #16]	; e14c <DWHCITransferStageDataIsDirectionIn+0x2c>
    e138:	eb002dd3 	bl	1988c <uspi_assertion_failed>
    e13c:	e5940008 	ldr	r0, [r4, #8]
    e140:	e8bd8010 	pop	{r4, pc}
    e144:	0000015f 	.word	0x0000015f
    e148:	0001bad8 	.word	0x0001bad8
    e14c:	0001b4d8 	.word	0x0001b4d8

0000e150 <DWHCITransferStageDataIsStatusStage>:
    e150:	e92d4010 	push	{r4, lr}
    e154:	e2504000 	subs	r4, r0, #0
    e158:	1a000003 	bne	e16c <DWHCITransferStageDataIsStatusStage+0x1c>
    e15c:	e59f2010 	ldr	r2, [pc, #16]	; e174 <DWHCITransferStageDataIsStatusStage+0x24>
    e160:	e59f1010 	ldr	r1, [pc, #16]	; e178 <DWHCITransferStageDataIsStatusStage+0x28>
    e164:	e59f0010 	ldr	r0, [pc, #16]	; e17c <DWHCITransferStageDataIsStatusStage+0x2c>
    e168:	eb002dc7 	bl	1988c <uspi_assertion_failed>
    e16c:	e594000c 	ldr	r0, [r4, #12]
    e170:	e8bd8010 	pop	{r4, pc}
    e174:	00000165 	.word	0x00000165
    e178:	0001bad8 	.word	0x0001bad8
    e17c:	0001b4d8 	.word	0x0001b4d8

0000e180 <DWHCITransferStageDataGetDMAAddress>:
    e180:	e92d4010 	push	{r4, lr}
    e184:	e2504000 	subs	r4, r0, #0
    e188:	1a000003 	bne	e19c <DWHCITransferStageDataGetDMAAddress+0x1c>
    e18c:	e59f202c 	ldr	r2, [pc, #44]	; e1c0 <DWHCITransferStageDataGetDMAAddress+0x40>
    e190:	e59f102c 	ldr	r1, [pc, #44]	; e1c4 <DWHCITransferStageDataGetDMAAddress+0x44>
    e194:	e59f002c 	ldr	r0, [pc, #44]	; e1c8 <DWHCITransferStageDataGetDMAAddress+0x48>
    e198:	eb002dbb 	bl	1988c <uspi_assertion_failed>
    e19c:	e594304c 	ldr	r3, [r4, #76]	; 0x4c
    e1a0:	e3530000 	cmp	r3, #0
    e1a4:	1a000003 	bne	e1b8 <DWHCITransferStageDataGetDMAAddress+0x38>
    e1a8:	e3a02f5b 	mov	r2, #364	; 0x16c
    e1ac:	e59f1010 	ldr	r1, [pc, #16]	; e1c4 <DWHCITransferStageDataGetDMAAddress+0x44>
    e1b0:	e59f0014 	ldr	r0, [pc, #20]	; e1cc <DWHCITransferStageDataGetDMAAddress+0x4c>
    e1b4:	eb002db4 	bl	1988c <uspi_assertion_failed>
    e1b8:	e594004c 	ldr	r0, [r4, #76]	; 0x4c
    e1bc:	e8bd8010 	pop	{r4, pc}
    e1c0:	0000016b 	.word	0x0000016b
    e1c4:	0001bad8 	.word	0x0001bad8
    e1c8:	0001b4d8 	.word	0x0001b4d8
    e1cc:	0001bbec 	.word	0x0001bbec

0000e1d0 <DWHCITransferStageDataGetBytesToTransfer>:
    e1d0:	e92d4010 	push	{r4, lr}
    e1d4:	e2504000 	subs	r4, r0, #0
    e1d8:	1a000003 	bne	e1ec <DWHCITransferStageDataGetBytesToTransfer+0x1c>
    e1dc:	e59f2010 	ldr	r2, [pc, #16]	; e1f4 <DWHCITransferStageDataGetBytesToTransfer+0x24>
    e1e0:	e59f1010 	ldr	r1, [pc, #16]	; e1f8 <DWHCITransferStageDataGetBytesToTransfer+0x28>
    e1e4:	e59f0010 	ldr	r0, [pc, #16]	; e1fc <DWHCITransferStageDataGetBytesToTransfer+0x2c>
    e1e8:	eb002da7 	bl	1988c <uspi_assertion_failed>
    e1ec:	e5940030 	ldr	r0, [r4, #48]	; 0x30
    e1f0:	e8bd8010 	pop	{r4, pc}
    e1f4:	00000173 	.word	0x00000173
    e1f8:	0001bad8 	.word	0x0001bad8
    e1fc:	0001b4d8 	.word	0x0001b4d8

0000e200 <DWHCITransferStageDataGetPacketsToTransfer>:
    e200:	e92d4010 	push	{r4, lr}
    e204:	e2504000 	subs	r4, r0, #0
    e208:	1a000003 	bne	e21c <DWHCITransferStageDataGetPacketsToTransfer+0x1c>
    e20c:	e59f2010 	ldr	r2, [pc, #16]	; e224 <DWHCITransferStageDataGetPacketsToTransfer+0x24>
    e210:	e59f1010 	ldr	r1, [pc, #16]	; e228 <DWHCITransferStageDataGetPacketsToTransfer+0x28>
    e214:	e59f0010 	ldr	r0, [pc, #16]	; e22c <DWHCITransferStageDataGetPacketsToTransfer+0x2c>
    e218:	eb002d9b 	bl	1988c <uspi_assertion_failed>
    e21c:	e5940034 	ldr	r0, [r4, #52]	; 0x34
    e220:	e8bd8010 	pop	{r4, pc}
    e224:	00000179 	.word	0x00000179
    e228:	0001bad8 	.word	0x0001bad8
    e22c:	0001b4d8 	.word	0x0001b4d8

0000e230 <DWHCITransferStageDataIsSplit>:
    e230:	e92d4010 	push	{r4, lr}
    e234:	e2504000 	subs	r4, r0, #0
    e238:	1a000003 	bne	e24c <DWHCITransferStageDataIsSplit+0x1c>
    e23c:	e59f2010 	ldr	r2, [pc, #16]	; e254 <DWHCITransferStageDataIsSplit+0x24>
    e240:	e59f1010 	ldr	r1, [pc, #16]	; e258 <DWHCITransferStageDataIsSplit+0x28>
    e244:	e59f0010 	ldr	r0, [pc, #16]	; e25c <DWHCITransferStageDataIsSplit+0x2c>
    e248:	eb002d8f 	bl	1988c <uspi_assertion_failed>
    e24c:	e5940010 	ldr	r0, [r4, #16]
    e250:	e8bd8010 	pop	{r4, pc}
    e254:	0000017f 	.word	0x0000017f
    e258:	0001bad8 	.word	0x0001bad8
    e25c:	0001b4d8 	.word	0x0001b4d8

0000e260 <DWHCITransferStageDataIsSplitComplete>:
    e260:	e92d4010 	push	{r4, lr}
    e264:	e2504000 	subs	r4, r0, #0
    e268:	1a000003 	bne	e27c <DWHCITransferStageDataIsSplitComplete+0x1c>
    e26c:	e59f202c 	ldr	r2, [pc, #44]	; e2a0 <DWHCITransferStageDataIsSplitComplete+0x40>
    e270:	e59f102c 	ldr	r1, [pc, #44]	; e2a4 <DWHCITransferStageDataIsSplitComplete+0x44>
    e274:	e59f002c 	ldr	r0, [pc, #44]	; e2a8 <DWHCITransferStageDataIsSplitComplete+0x48>
    e278:	eb002d83 	bl	1988c <uspi_assertion_failed>
    e27c:	e5943010 	ldr	r3, [r4, #16]
    e280:	e3530000 	cmp	r3, #0
    e284:	1a000003 	bne	e298 <DWHCITransferStageDataIsSplitComplete+0x38>
    e288:	e59f201c 	ldr	r2, [pc, #28]	; e2ac <DWHCITransferStageDataIsSplitComplete+0x4c>
    e28c:	e59f1010 	ldr	r1, [pc, #16]	; e2a4 <DWHCITransferStageDataIsSplitComplete+0x44>
    e290:	e59f0018 	ldr	r0, [pc, #24]	; e2b0 <DWHCITransferStageDataIsSplitComplete+0x50>
    e294:	eb002d7c 	bl	1988c <uspi_assertion_failed>
    e298:	e5940014 	ldr	r0, [r4, #20]
    e29c:	e8bd8010 	pop	{r4, pc}
    e2a0:	00000185 	.word	0x00000185
    e2a4:	0001bad8 	.word	0x0001bad8
    e2a8:	0001b4d8 	.word	0x0001b4d8
    e2ac:	00000186 	.word	0x00000186
    e2b0:	0001bb54 	.word	0x0001bb54

0000e2b4 <DWHCITransferStageDataGetHubAddress>:
    e2b4:	e92d4010 	push	{r4, lr}
    e2b8:	e2504000 	subs	r4, r0, #0
    e2bc:	1a000003 	bne	e2d0 <DWHCITransferStageDataGetHubAddress+0x1c>
    e2c0:	e59f204c 	ldr	r2, [pc, #76]	; e314 <DWHCITransferStageDataGetHubAddress+0x60>
    e2c4:	e59f104c 	ldr	r1, [pc, #76]	; e318 <DWHCITransferStageDataGetHubAddress+0x64>
    e2c8:	e59f004c 	ldr	r0, [pc, #76]	; e31c <DWHCITransferStageDataGetHubAddress+0x68>
    e2cc:	eb002d6e 	bl	1988c <uspi_assertion_failed>
    e2d0:	e5943010 	ldr	r3, [r4, #16]
    e2d4:	e3530000 	cmp	r3, #0
    e2d8:	1a000003 	bne	e2ec <DWHCITransferStageDataGetHubAddress+0x38>
    e2dc:	e59f203c 	ldr	r2, [pc, #60]	; e320 <DWHCITransferStageDataGetHubAddress+0x6c>
    e2e0:	e59f1030 	ldr	r1, [pc, #48]	; e318 <DWHCITransferStageDataGetHubAddress+0x64>
    e2e4:	e59f0038 	ldr	r0, [pc, #56]	; e324 <DWHCITransferStageDataGetHubAddress+0x70>
    e2e8:	eb002d67 	bl	1988c <uspi_assertion_failed>
    e2ec:	e5943018 	ldr	r3, [r4, #24]
    e2f0:	e3530000 	cmp	r3, #0
    e2f4:	1a000003 	bne	e308 <DWHCITransferStageDataGetHubAddress+0x54>
    e2f8:	e3a02e19 	mov	r2, #400	; 0x190
    e2fc:	e59f1014 	ldr	r1, [pc, #20]	; e318 <DWHCITransferStageDataGetHubAddress+0x64>
    e300:	e59f0020 	ldr	r0, [pc, #32]	; e328 <DWHCITransferStageDataGetHubAddress+0x74>
    e304:	eb002d60 	bl	1988c <uspi_assertion_failed>
    e308:	e5940018 	ldr	r0, [r4, #24]
    e30c:	eb000242 	bl	ec1c <USBDeviceGetHubAddress>
    e310:	e8bd8010 	pop	{r4, pc}
    e314:	0000018d 	.word	0x0000018d
    e318:	0001bad8 	.word	0x0001bad8
    e31c:	0001b4d8 	.word	0x0001b4d8
    e320:	0000018e 	.word	0x0000018e
    e324:	0001bb54 	.word	0x0001bb54
    e328:	0001bb9c 	.word	0x0001bb9c

0000e32c <DWHCITransferStageDataGetHubPortAddress>:
    e32c:	e92d4010 	push	{r4, lr}
    e330:	e2504000 	subs	r4, r0, #0
    e334:	1a000003 	bne	e348 <DWHCITransferStageDataGetHubPortAddress+0x1c>
    e338:	e59f204c 	ldr	r2, [pc, #76]	; e38c <DWHCITransferStageDataGetHubPortAddress+0x60>
    e33c:	e59f104c 	ldr	r1, [pc, #76]	; e390 <DWHCITransferStageDataGetHubPortAddress+0x64>
    e340:	e59f004c 	ldr	r0, [pc, #76]	; e394 <DWHCITransferStageDataGetHubPortAddress+0x68>
    e344:	eb002d50 	bl	1988c <uspi_assertion_failed>
    e348:	e5943010 	ldr	r3, [r4, #16]
    e34c:	e3530000 	cmp	r3, #0
    e350:	1a000003 	bne	e364 <DWHCITransferStageDataGetHubPortAddress+0x38>
    e354:	e59f203c 	ldr	r2, [pc, #60]	; e398 <DWHCITransferStageDataGetHubPortAddress+0x6c>
    e358:	e59f1030 	ldr	r1, [pc, #48]	; e390 <DWHCITransferStageDataGetHubPortAddress+0x64>
    e35c:	e59f0038 	ldr	r0, [pc, #56]	; e39c <DWHCITransferStageDataGetHubPortAddress+0x70>
    e360:	eb002d49 	bl	1988c <uspi_assertion_failed>
    e364:	e5943018 	ldr	r3, [r4, #24]
    e368:	e3530000 	cmp	r3, #0
    e36c:	1a000003 	bne	e380 <DWHCITransferStageDataGetHubPortAddress+0x54>
    e370:	e59f2028 	ldr	r2, [pc, #40]	; e3a0 <DWHCITransferStageDataGetHubPortAddress+0x74>
    e374:	e59f1014 	ldr	r1, [pc, #20]	; e390 <DWHCITransferStageDataGetHubPortAddress+0x64>
    e378:	e59f0024 	ldr	r0, [pc, #36]	; e3a4 <DWHCITransferStageDataGetHubPortAddress+0x78>
    e37c:	eb002d42 	bl	1988c <uspi_assertion_failed>
    e380:	e5940018 	ldr	r0, [r4, #24]
    e384:	eb000230 	bl	ec4c <USBDeviceGetHubPortNumber>
    e388:	e8bd8010 	pop	{r4, pc}
    e38c:	00000196 	.word	0x00000196
    e390:	0001bad8 	.word	0x0001bad8
    e394:	0001b4d8 	.word	0x0001b4d8
    e398:	00000197 	.word	0x00000197
    e39c:	0001bb54 	.word	0x0001bb54
    e3a0:	00000199 	.word	0x00000199
    e3a4:	0001bb9c 	.word	0x0001bb9c

0000e3a8 <DWHCITransferStageDataGetSplitPosition>:
    e3a8:	e92d4010 	push	{r4, lr}
    e3ac:	e2504000 	subs	r4, r0, #0
    e3b0:	1a000003 	bne	e3c4 <DWHCITransferStageDataGetSplitPosition+0x1c>
    e3b4:	e59f202c 	ldr	r2, [pc, #44]	; e3e8 <DWHCITransferStageDataGetSplitPosition+0x40>
    e3b8:	e59f102c 	ldr	r1, [pc, #44]	; e3ec <DWHCITransferStageDataGetSplitPosition+0x44>
    e3bc:	e59f002c 	ldr	r0, [pc, #44]	; e3f0 <DWHCITransferStageDataGetSplitPosition+0x48>
    e3c0:	eb002d31 	bl	1988c <uspi_assertion_failed>
    e3c4:	e5943028 	ldr	r3, [r4, #40]	; 0x28
    e3c8:	e35300bc 	cmp	r3, #188	; 0xbc
    e3cc:	9a000003 	bls	e3e0 <DWHCITransferStageDataGetSplitPosition+0x38>
    e3d0:	e3a02e1a 	mov	r2, #416	; 0x1a0
    e3d4:	e59f1010 	ldr	r1, [pc, #16]	; e3ec <DWHCITransferStageDataGetSplitPosition+0x44>
    e3d8:	e59f0014 	ldr	r0, [pc, #20]	; e3f4 <DWHCITransferStageDataGetSplitPosition+0x4c>
    e3dc:	eb002d2a 	bl	1988c <uspi_assertion_failed>
    e3e0:	e3a00003 	mov	r0, #3
    e3e4:	e8bd8010 	pop	{r4, pc}
    e3e8:	0000019f 	.word	0x0000019f
    e3ec:	0001bad8 	.word	0x0001bad8
    e3f0:	0001b4d8 	.word	0x0001b4d8
    e3f4:	0001bc58 	.word	0x0001bc58

0000e3f8 <DWHCITransferStageDataGetStatusMask>:
    e3f8:	e92d4010 	push	{r4, lr}
    e3fc:	e2504000 	subs	r4, r0, #0
    e400:	1a000003 	bne	e414 <DWHCITransferStageDataGetStatusMask+0x1c>
    e404:	e59f203c 	ldr	r2, [pc, #60]	; e448 <DWHCITransferStageDataGetStatusMask+0x50>
    e408:	e59f103c 	ldr	r1, [pc, #60]	; e44c <DWHCITransferStageDataGetStatusMask+0x54>
    e40c:	e59f003c 	ldr	r0, [pc, #60]	; e450 <DWHCITransferStageDataGetStatusMask+0x58>
    e410:	eb002d1d 	bl	1988c <uspi_assertion_failed>
    e414:	e5943010 	ldr	r3, [r4, #16]
    e418:	e3530000 	cmp	r3, #0
    e41c:	1a000007 	bne	e440 <DWHCITransferStageDataGetStatusMask+0x48>
    e420:	e1a00004 	mov	r0, r4
    e424:	ebfffdca 	bl	db54 <DWHCITransferStageDataIsPeriodic>
    e428:	e59f2024 	ldr	r2, [pc, #36]	; e454 <DWHCITransferStageDataGetStatusMask+0x5c>
    e42c:	e59f3024 	ldr	r3, [pc, #36]	; e458 <DWHCITransferStageDataGetStatusMask+0x60>
    e430:	e3500000 	cmp	r0, #0
    e434:	01a00003 	moveq	r0, r3
    e438:	11a00002 	movne	r0, r2
    e43c:	e8bd8010 	pop	{r4, pc}
    e440:	e59f000c 	ldr	r0, [pc, #12]	; e454 <DWHCITransferStageDataGetStatusMask+0x5c>
    e444:	e8bd8010 	pop	{r4, pc}
    e448:	000001a6 	.word	0x000001a6
    e44c:	0001bad8 	.word	0x0001bad8
    e450:	0001b4d8 	.word	0x0001b4d8
    e454:	000007ff 	.word	0x000007ff
    e458:	0000078f 	.word	0x0000078f

0000e45c <DWHCITransferStageDataGetTransactionStatus>:
    e45c:	e92d4010 	push	{r4, lr}
    e460:	e2504000 	subs	r4, r0, #0
    e464:	1a000003 	bne	e478 <DWHCITransferStageDataGetTransactionStatus+0x1c>
    e468:	e3a02f6e 	mov	r2, #440	; 0x1b8
    e46c:	e59f1028 	ldr	r1, [pc, #40]	; e49c <DWHCITransferStageDataGetTransactionStatus+0x40>
    e470:	e59f0028 	ldr	r0, [pc, #40]	; e4a0 <DWHCITransferStageDataGetTransactionStatus+0x44>
    e474:	eb002d04 	bl	1988c <uspi_assertion_failed>
    e478:	e5943044 	ldr	r3, [r4, #68]	; 0x44
    e47c:	e3530000 	cmp	r3, #0
    e480:	1a000003 	bne	e494 <DWHCITransferStageDataGetTransactionStatus+0x38>
    e484:	e59f2018 	ldr	r2, [pc, #24]	; e4a4 <DWHCITransferStageDataGetTransactionStatus+0x48>
    e488:	e59f100c 	ldr	r1, [pc, #12]	; e49c <DWHCITransferStageDataGetTransactionStatus+0x40>
    e48c:	e59f0014 	ldr	r0, [pc, #20]	; e4a8 <DWHCITransferStageDataGetTransactionStatus+0x4c>
    e490:	eb002cfd 	bl	1988c <uspi_assertion_failed>
    e494:	e5940044 	ldr	r0, [r4, #68]	; 0x44
    e498:	e8bd8010 	pop	{r4, pc}
    e49c:	0001bad8 	.word	0x0001bad8
    e4a0:	0001b4d8 	.word	0x0001b4d8
    e4a4:	000001b9 	.word	0x000001b9
    e4a8:	0001bc78 	.word	0x0001bc78

0000e4ac <DWHCITransferStageDataIsStageComplete>:
    e4ac:	e92d4010 	push	{r4, lr}
    e4b0:	e2504000 	subs	r4, r0, #0
    e4b4:	1a000003 	bne	e4c8 <DWHCITransferStageDataIsStageComplete+0x1c>
    e4b8:	e59f2018 	ldr	r2, [pc, #24]	; e4d8 <DWHCITransferStageDataIsStageComplete+0x2c>
    e4bc:	e59f1018 	ldr	r1, [pc, #24]	; e4dc <DWHCITransferStageDataIsStageComplete+0x30>
    e4c0:	e59f0018 	ldr	r0, [pc, #24]	; e4e0 <DWHCITransferStageDataIsStageComplete+0x34>
    e4c4:	eb002cf0 	bl	1988c <uspi_assertion_failed>
    e4c8:	e594002c 	ldr	r0, [r4, #44]	; 0x2c
    e4cc:	e16f0f10 	clz	r0, r0
    e4d0:	e1a002a0 	lsr	r0, r0, #5
    e4d4:	e8bd8010 	pop	{r4, pc}
    e4d8:	000001bf 	.word	0x000001bf
    e4dc:	0001bad8 	.word	0x0001bad8
    e4e0:	0001b4d8 	.word	0x0001b4d8

0000e4e4 <DWHCITransferStageDataGetResultLen>:
    e4e4:	e92d4010 	push	{r4, lr}
    e4e8:	e2504000 	subs	r4, r0, #0
    e4ec:	1a000003 	bne	e500 <DWHCITransferStageDataGetResultLen+0x1c>
    e4f0:	e59f201c 	ldr	r2, [pc, #28]	; e514 <DWHCITransferStageDataGetResultLen+0x30>
    e4f4:	e59f101c 	ldr	r1, [pc, #28]	; e518 <DWHCITransferStageDataGetResultLen+0x34>
    e4f8:	e59f001c 	ldr	r0, [pc, #28]	; e51c <DWHCITransferStageDataGetResultLen+0x38>
    e4fc:	eb002ce2 	bl	1988c <uspi_assertion_failed>
    e500:	e5940038 	ldr	r0, [r4, #56]	; 0x38
    e504:	e5943028 	ldr	r3, [r4, #40]	; 0x28
    e508:	e1500003 	cmp	r0, r3
    e50c:	21a00003 	movcs	r0, r3
    e510:	e8bd8010 	pop	{r4, pc}
    e514:	000001c5 	.word	0x000001c5
    e518:	0001bad8 	.word	0x0001bad8
    e51c:	0001b4d8 	.word	0x0001b4d8

0000e520 <DWHCITransferStageDataGetURB>:
    e520:	e92d4010 	push	{r4, lr}
    e524:	e2504000 	subs	r4, r0, #0
    e528:	1a000003 	bne	e53c <DWHCITransferStageDataGetURB+0x1c>
    e52c:	e3a02e1d 	mov	r2, #464	; 0x1d0
    e530:	e59f1028 	ldr	r1, [pc, #40]	; e560 <DWHCITransferStageDataGetURB+0x40>
    e534:	e59f0028 	ldr	r0, [pc, #40]	; e564 <DWHCITransferStageDataGetURB+0x44>
    e538:	eb002cd3 	bl	1988c <uspi_assertion_failed>
    e53c:	e5943004 	ldr	r3, [r4, #4]
    e540:	e3530000 	cmp	r3, #0
    e544:	1a000003 	bne	e558 <DWHCITransferStageDataGetURB+0x38>
    e548:	e59f2018 	ldr	r2, [pc, #24]	; e568 <DWHCITransferStageDataGetURB+0x48>
    e54c:	e59f100c 	ldr	r1, [pc, #12]	; e560 <DWHCITransferStageDataGetURB+0x40>
    e550:	e59f0014 	ldr	r0, [pc, #20]	; e56c <DWHCITransferStageDataGetURB+0x4c>
    e554:	eb002ccc 	bl	1988c <uspi_assertion_failed>
    e558:	e5940004 	ldr	r0, [r4, #4]
    e55c:	e8bd8010 	pop	{r4, pc}
    e560:	0001bad8 	.word	0x0001bad8
    e564:	0001b4d8 	.word	0x0001b4d8
    e568:	000001d1 	.word	0x000001d1
    e56c:	0001bb88 	.word	0x0001bb88

0000e570 <DWHCITransferStageDataGetFrameScheduler>:
    e570:	e92d4010 	push	{r4, lr}
    e574:	e2504000 	subs	r4, r0, #0
    e578:	1a000003 	bne	e58c <DWHCITransferStageDataGetFrameScheduler+0x1c>
    e57c:	e59f2010 	ldr	r2, [pc, #16]	; e594 <DWHCITransferStageDataGetFrameScheduler+0x24>
    e580:	e59f1010 	ldr	r1, [pc, #16]	; e598 <DWHCITransferStageDataGetFrameScheduler+0x28>
    e584:	e59f0010 	ldr	r0, [pc, #16]	; e59c <DWHCITransferStageDataGetFrameScheduler+0x2c>
    e588:	eb002cbf 	bl	1988c <uspi_assertion_failed>
    e58c:	e5940050 	ldr	r0, [r4, #80]	; 0x50
    e590:	e8bd8010 	pop	{r4, pc}
    e594:	000001d7 	.word	0x000001d7
    e598:	0001bad8 	.word	0x0001bad8
    e59c:	0001b4d8 	.word	0x0001b4d8

0000e5a0 <USBDeviceConfigure>:
    e5a0:	e92d4070 	push	{r4, r5, r6, lr}
    e5a4:	e2504000 	subs	r4, r0, #0
    e5a8:	1a000003 	bne	e5bc <USBDeviceConfigure+0x1c>
    e5ac:	e59f2090 	ldr	r2, [pc, #144]	; e644 <USBDeviceConfigure+0xa4>
    e5b0:	e59f1090 	ldr	r1, [pc, #144]	; e648 <USBDeviceConfigure+0xa8>
    e5b4:	e59f0090 	ldr	r0, [pc, #144]	; e64c <USBDeviceConfigure+0xac>
    e5b8:	eb002cb3 	bl	1988c <uspi_assertion_failed>
    e5bc:	e5943004 	ldr	r3, [r4, #4]
    e5c0:	e3530000 	cmp	r3, #0
    e5c4:	1a000003 	bne	e5d8 <USBDeviceConfigure+0x38>
    e5c8:	e59f2080 	ldr	r2, [pc, #128]	; e650 <USBDeviceConfigure+0xb0>
    e5cc:	e59f1074 	ldr	r1, [pc, #116]	; e648 <USBDeviceConfigure+0xa8>
    e5d0:	e59f007c 	ldr	r0, [pc, #124]	; e654 <USBDeviceConfigure+0xb4>
    e5d4:	eb002cac 	bl	1988c <uspi_assertion_failed>
    e5d8:	e594300c 	ldr	r3, [r4, #12]
    e5dc:	e3530000 	cmp	r3, #0
    e5e0:	1a000003 	bne	e5f4 <USBDeviceConfigure+0x54>
    e5e4:	e59f206c 	ldr	r2, [pc, #108]	; e658 <USBDeviceConfigure+0xb8>
    e5e8:	e59f1058 	ldr	r1, [pc, #88]	; e648 <USBDeviceConfigure+0xa8>
    e5ec:	e59f0068 	ldr	r0, [pc, #104]	; e65c <USBDeviceConfigure+0xbc>
    e5f0:	eb002ca5 	bl	1988c <uspi_assertion_failed>
    e5f4:	e5943018 	ldr	r3, [r4, #24]
    e5f8:	e3530000 	cmp	r3, #0
    e5fc:	03a05000 	moveq	r5, #0
    e600:	0a00000d 	beq	e63c <USBDeviceConfigure+0x9c>
    e604:	e5d32005 	ldrb	r2, [r3, #5]
    e608:	e594100c 	ldr	r1, [r4, #12]
    e60c:	e5940004 	ldr	r0, [r4, #4]
    e610:	ebfff5bb 	bl	bd04 <DWHCIDeviceSetConfiguration>
    e614:	e2505000 	subs	r5, r0, #0
    e618:	13a05001 	movne	r5, #1
    e61c:	1a000006 	bne	e63c <USBDeviceConfigure+0x9c>
    e620:	e5943018 	ldr	r3, [r4, #24]
    e624:	e5d33005 	ldrb	r3, [r3, #5]
    e628:	e59f2030 	ldr	r2, [pc, #48]	; e660 <USBDeviceConfigure+0xc0>
    e62c:	e3a01001 	mov	r1, #1
    e630:	e59f002c 	ldr	r0, [pc, #44]	; e664 <USBDeviceConfigure+0xc4>
    e634:	eb002c82 	bl	19844 <LogWrite>
    e638:	eaffffff 	b	e63c <USBDeviceConfigure+0x9c>
    e63c:	e1a00005 	mov	r0, r5
    e640:	e8bd8070 	pop	{r4, r5, r6, pc}
    e644:	00000143 	.word	0x00000143
    e648:	0001bca4 	.word	0x0001bca4
    e64c:	0001b4d8 	.word	0x0001b4d8
    e650:	00000145 	.word	0x00000145
    e654:	0001bcb0 	.word	0x0001bcb0
    e658:	00000146 	.word	0x00000146
    e65c:	0001bcc4 	.word	0x0001bcc4
    e660:	0001bce0 	.word	0x0001bce0
    e664:	0001bc9c 	.word	0x0001bc9c

0000e668 <USBDevice>:
    e668:	e92d41f0 	push	{r4, r5, r6, r7, r8, lr}
    e66c:	e1a06001 	mov	r6, r1
    e670:	e1a08002 	mov	r8, r2
    e674:	e1a07003 	mov	r7, r3
    e678:	e5dd5018 	ldrb	r5, [sp, #24]
    e67c:	e2504000 	subs	r4, r0, #0
    e680:	1a000003 	bne	e694 <USBDevice+0x2c>
    e684:	e3a0202c 	mov	r2, #44	; 0x2c
    e688:	e59f10cc 	ldr	r1, [pc, #204]	; e75c <USBDevice+0xf4>
    e68c:	e59f00cc 	ldr	r0, [pc, #204]	; e760 <USBDevice+0xf8>
    e690:	eb002c7d 	bl	1988c <uspi_assertion_failed>
    e694:	e59f30c8 	ldr	r3, [pc, #200]	; e764 <USBDevice+0xfc>
    e698:	e5843000 	str	r3, [r4]
    e69c:	e5846004 	str	r6, [r4, #4]
    e6a0:	e3a03000 	mov	r3, #0
    e6a4:	e5c43008 	strb	r3, [r4, #8]
    e6a8:	e5c48009 	strb	r8, [r4, #9]
    e6ac:	e584300c 	str	r3, [r4, #12]
    e6b0:	e5c47010 	strb	r7, [r4, #16]
    e6b4:	e5c45011 	strb	r5, [r4, #17]
    e6b8:	e5843014 	str	r3, [r4, #20]
    e6bc:	e5843018 	str	r3, [r4, #24]
    e6c0:	e584301c 	str	r3, [r4, #28]
    e6c4:	e1560003 	cmp	r6, r3
    e6c8:	1a00000a 	bne	e6f8 <USBDevice+0x90>
    e6cc:	e3a0203a 	mov	r2, #58	; 0x3a
    e6d0:	e59f1084 	ldr	r1, [pc, #132]	; e75c <USBDevice+0xf4>
    e6d4:	e59f008c 	ldr	r0, [pc, #140]	; e768 <USBDevice+0x100>
    e6d8:	eb002c6b 	bl	1988c <uspi_assertion_failed>
    e6dc:	e594300c 	ldr	r3, [r4, #12]
    e6e0:	e3530000 	cmp	r3, #0
    e6e4:	0a000003 	beq	e6f8 <USBDevice+0x90>
    e6e8:	e3a0203c 	mov	r2, #60	; 0x3c
    e6ec:	e59f1068 	ldr	r1, [pc, #104]	; e75c <USBDevice+0xf4>
    e6f0:	e59f0074 	ldr	r0, [pc, #116]	; e76c <USBDevice+0x104>
    e6f4:	eb002c64 	bl	1988c <uspi_assertion_failed>
    e6f8:	e3a00018 	mov	r0, #24
    e6fc:	eb00243b 	bl	177f0 <malloc>
    e700:	e584000c 	str	r0, [r4, #12]
    e704:	e3500000 	cmp	r0, #0
    e708:	1a000003 	bne	e71c <USBDevice+0xb4>
    e70c:	e3a0203e 	mov	r2, #62	; 0x3e
    e710:	e59f1044 	ldr	r1, [pc, #68]	; e75c <USBDevice+0xf4>
    e714:	e59f0054 	ldr	r0, [pc, #84]	; e770 <USBDevice+0x108>
    e718:	eb002c5b 	bl	1988c <uspi_assertion_failed>
    e71c:	e1a01004 	mov	r1, r4
    e720:	e594000c 	ldr	r0, [r4, #12]
    e724:	eb000313 	bl	f378 <USBEndpoint>
    e728:	e3550000 	cmp	r5, #0
    e72c:	1a000003 	bne	e740 <USBDevice+0xd8>
    e730:	e3a02041 	mov	r2, #65	; 0x41
    e734:	e59f1020 	ldr	r1, [pc, #32]	; e75c <USBDevice+0xf4>
    e738:	e59f0034 	ldr	r0, [pc, #52]	; e774 <USBDevice+0x10c>
    e73c:	eb002c52 	bl	1988c <uspi_assertion_failed>
    e740:	e1a01004 	mov	r1, r4
    e744:	e2840020 	add	r0, r4, #32
    e748:	eb001af2 	bl	15318 <USBString>
    e74c:	e1a01004 	mov	r1, r4
    e750:	e284002c 	add	r0, r4, #44	; 0x2c
    e754:	eb001aef 	bl	15318 <USBString>
    e758:	e8bd81f0 	pop	{r4, r5, r6, r7, r8, pc}
    e75c:	0001bca4 	.word	0x0001bca4
    e760:	0001b4d8 	.word	0x0001b4d8
    e764:	0000e5a0 	.word	0x0000e5a0
    e768:	0001bcb0 	.word	0x0001bcb0
    e76c:	0001bd00 	.word	0x0001bd00
    e770:	0001bcc4 	.word	0x0001bcc4
    e774:	0001bd1c 	.word	0x0001bd1c

0000e778 <USBDeviceCopy>:
    e778:	e92d4070 	push	{r4, r5, r6, lr}
    e77c:	e1a05001 	mov	r5, r1
    e780:	e2504000 	subs	r4, r0, #0
    e784:	1a000003 	bne	e798 <USBDeviceCopy+0x20>
    e788:	e3a02049 	mov	r2, #73	; 0x49
    e78c:	e59f1194 	ldr	r1, [pc, #404]	; e928 <USBDeviceCopy+0x1b0>
    e790:	e59f0194 	ldr	r0, [pc, #404]	; e92c <USBDeviceCopy+0x1b4>
    e794:	eb002c3c 	bl	1988c <uspi_assertion_failed>
    e798:	e3550000 	cmp	r5, #0
    e79c:	1a000003 	bne	e7b0 <USBDeviceCopy+0x38>
    e7a0:	e3a0204b 	mov	r2, #75	; 0x4b
    e7a4:	e59f117c 	ldr	r1, [pc, #380]	; e928 <USBDeviceCopy+0x1b0>
    e7a8:	e59f0180 	ldr	r0, [pc, #384]	; e930 <USBDeviceCopy+0x1b8>
    e7ac:	eb002c36 	bl	1988c <uspi_assertion_failed>
    e7b0:	e5953000 	ldr	r3, [r5]
    e7b4:	e5843000 	str	r3, [r4]
    e7b8:	e3a03000 	mov	r3, #0
    e7bc:	e584300c 	str	r3, [r4, #12]
    e7c0:	e5843014 	str	r3, [r4, #20]
    e7c4:	e5843018 	str	r3, [r4, #24]
    e7c8:	e584301c 	str	r3, [r4, #28]
    e7cc:	e5953004 	ldr	r3, [r5, #4]
    e7d0:	e5843004 	str	r3, [r4, #4]
    e7d4:	e5d53008 	ldrb	r3, [r5, #8]
    e7d8:	e5c43008 	strb	r3, [r4, #8]
    e7dc:	e5d53009 	ldrb	r3, [r5, #9]
    e7e0:	e5c43009 	strb	r3, [r4, #9]
    e7e4:	e5d53010 	ldrb	r3, [r5, #16]
    e7e8:	e5c43010 	strb	r3, [r4, #16]
    e7ec:	e5d53011 	ldrb	r3, [r5, #17]
    e7f0:	e5c43011 	strb	r3, [r4, #17]
    e7f4:	e2851020 	add	r1, r5, #32
    e7f8:	e2840020 	add	r0, r4, #32
    e7fc:	eb001ae6 	bl	1539c <USBStringCopy>
    e800:	e285102c 	add	r1, r5, #44	; 0x2c
    e804:	e284002c 	add	r0, r4, #44	; 0x2c
    e808:	eb001ae3 	bl	1539c <USBStringCopy>
    e80c:	e3a00018 	mov	r0, #24
    e810:	eb0023f6 	bl	177f0 <malloc>
    e814:	e584000c 	str	r0, [r4, #12]
    e818:	e3500000 	cmp	r0, #0
    e81c:	1a000003 	bne	e830 <USBDeviceCopy+0xb8>
    e820:	e3a0205e 	mov	r2, #94	; 0x5e
    e824:	e59f10fc 	ldr	r1, [pc, #252]	; e928 <USBDeviceCopy+0x1b0>
    e828:	e59f0104 	ldr	r0, [pc, #260]	; e934 <USBDeviceCopy+0x1bc>
    e82c:	eb002c16 	bl	1988c <uspi_assertion_failed>
    e830:	e1a02004 	mov	r2, r4
    e834:	e595100c 	ldr	r1, [r5, #12]
    e838:	e594000c 	ldr	r0, [r4, #12]
    e83c:	eb000354 	bl	f594 <USBEndpointCopy>
    e840:	e5953014 	ldr	r3, [r5, #20]
    e844:	e3530000 	cmp	r3, #0
    e848:	0a00000c 	beq	e880 <USBDeviceCopy+0x108>
    e84c:	e3a00012 	mov	r0, #18
    e850:	eb0023e6 	bl	177f0 <malloc>
    e854:	e5840014 	str	r0, [r4, #20]
    e858:	e3500000 	cmp	r0, #0
    e85c:	1a000003 	bne	e870 <USBDeviceCopy+0xf8>
    e860:	e3a02064 	mov	r2, #100	; 0x64
    e864:	e59f10bc 	ldr	r1, [pc, #188]	; e928 <USBDeviceCopy+0x1b0>
    e868:	e59f00c8 	ldr	r0, [pc, #200]	; e938 <USBDeviceCopy+0x1c0>
    e86c:	eb002c06 	bl	1988c <uspi_assertion_failed>
    e870:	e3a02012 	mov	r2, #18
    e874:	e5951014 	ldr	r1, [r5, #20]
    e878:	e5940014 	ldr	r0, [r4, #20]
    e87c:	eb000c57 	bl	119e0 <uspi_memcpy>
    e880:	e5952018 	ldr	r2, [r5, #24]
    e884:	e3520000 	cmp	r2, #0
    e888:	08bd8070 	popeq	{r4, r5, r6, pc}
    e88c:	e5d23002 	ldrb	r3, [r2, #2]
    e890:	e5d26003 	ldrb	r6, [r2, #3]
    e894:	e1836406 	orr	r6, r3, r6, lsl #8
    e898:	e3560c02 	cmp	r6, #512	; 0x200
    e89c:	9a000003 	bls	e8b0 <USBDeviceCopy+0x138>
    e8a0:	e3a0206c 	mov	r2, #108	; 0x6c
    e8a4:	e59f107c 	ldr	r1, [pc, #124]	; e928 <USBDeviceCopy+0x1b0>
    e8a8:	e59f008c 	ldr	r0, [pc, #140]	; e93c <USBDeviceCopy+0x1c4>
    e8ac:	eb002bf6 	bl	1988c <uspi_assertion_failed>
    e8b0:	e1a00006 	mov	r0, r6
    e8b4:	eb0023cd 	bl	177f0 <malloc>
    e8b8:	e5840018 	str	r0, [r4, #24]
    e8bc:	e3500000 	cmp	r0, #0
    e8c0:	1a000003 	bne	e8d4 <USBDeviceCopy+0x15c>
    e8c4:	e3a0206f 	mov	r2, #111	; 0x6f
    e8c8:	e59f1058 	ldr	r1, [pc, #88]	; e928 <USBDeviceCopy+0x1b0>
    e8cc:	e59f006c 	ldr	r0, [pc, #108]	; e940 <USBDeviceCopy+0x1c8>
    e8d0:	eb002bed 	bl	1988c <uspi_assertion_failed>
    e8d4:	e1a02006 	mov	r2, r6
    e8d8:	e5951018 	ldr	r1, [r5, #24]
    e8dc:	e5940018 	ldr	r0, [r4, #24]
    e8e0:	eb000c3e 	bl	119e0 <uspi_memcpy>
    e8e4:	e595301c 	ldr	r3, [r5, #28]
    e8e8:	e3530000 	cmp	r3, #0
    e8ec:	08bd8070 	popeq	{r4, r5, r6, pc}
    e8f0:	e3a00018 	mov	r0, #24
    e8f4:	eb0023bd 	bl	177f0 <malloc>
    e8f8:	e584001c 	str	r0, [r4, #28]
    e8fc:	e3500000 	cmp	r0, #0
    e900:	1a000003 	bne	e914 <USBDeviceCopy+0x19c>
    e904:	e3a02076 	mov	r2, #118	; 0x76
    e908:	e59f1018 	ldr	r1, [pc, #24]	; e928 <USBDeviceCopy+0x1b0>
    e90c:	e59f0030 	ldr	r0, [pc, #48]	; e944 <USBDeviceCopy+0x1cc>
    e910:	eb002bdd 	bl	1988c <uspi_assertion_failed>
    e914:	e1a02006 	mov	r2, r6
    e918:	e5941018 	ldr	r1, [r4, #24]
    e91c:	e594001c 	ldr	r0, [r4, #28]
    e920:	eb001dba 	bl	16010 <USBConfigurationParser>
    e924:	e8bd8070 	pop	{r4, r5, r6, pc}
    e928:	0001bca4 	.word	0x0001bca4
    e92c:	0001b4d8 	.word	0x0001b4d8
    e930:	0001bd34 	.word	0x0001bd34
    e934:	0001bcc4 	.word	0x0001bcc4
    e938:	0001bd44 	.word	0x0001bd44
    e93c:	0001bd60 	.word	0x0001bd60
    e940:	0001bd88 	.word	0x0001bd88
    e944:	0001bda4 	.word	0x0001bda4

0000e948 <_USBDevice>:
    e948:	e92d4010 	push	{r4, lr}
    e94c:	e2504000 	subs	r4, r0, #0
    e950:	1a000003 	bne	e964 <_USBDevice+0x1c>
    e954:	e3a0207e 	mov	r2, #126	; 0x7e
    e958:	e59f1094 	ldr	r1, [pc, #148]	; e9f4 <_USBDevice+0xac>
    e95c:	e59f0094 	ldr	r0, [pc, #148]	; e9f8 <_USBDevice+0xb0>
    e960:	eb002bc9 	bl	1988c <uspi_assertion_failed>
    e964:	e594001c 	ldr	r0, [r4, #28]
    e968:	e3500000 	cmp	r0, #0
    e96c:	0a000004 	beq	e984 <_USBDevice+0x3c>
    e970:	eb001e0c 	bl	161a8 <_USBConfigurationParser>
    e974:	e594001c 	ldr	r0, [r4, #28]
    e978:	eb002405 	bl	17994 <free>
    e97c:	e3a03000 	mov	r3, #0
    e980:	e584301c 	str	r3, [r4, #28]
    e984:	e5940018 	ldr	r0, [r4, #24]
    e988:	e3500000 	cmp	r0, #0
    e98c:	0a000002 	beq	e99c <_USBDevice+0x54>
    e990:	eb0023ff 	bl	17994 <free>
    e994:	e3a03000 	mov	r3, #0
    e998:	e5843018 	str	r3, [r4, #24]
    e99c:	e5940014 	ldr	r0, [r4, #20]
    e9a0:	e3500000 	cmp	r0, #0
    e9a4:	0a000002 	beq	e9b4 <_USBDevice+0x6c>
    e9a8:	eb0023f9 	bl	17994 <free>
    e9ac:	e3a03000 	mov	r3, #0
    e9b0:	e5843014 	str	r3, [r4, #20]
    e9b4:	e594000c 	ldr	r0, [r4, #12]
    e9b8:	e3500000 	cmp	r0, #0
    e9bc:	0a000004 	beq	e9d4 <_USBDevice+0x8c>
    e9c0:	eb00031a 	bl	f630 <_USBEndpoint>
    e9c4:	e594000c 	ldr	r0, [r4, #12]
    e9c8:	eb0023f1 	bl	17994 <free>
    e9cc:	e3a03000 	mov	r3, #0
    e9d0:	e584300c 	str	r3, [r4, #12]
    e9d4:	e3a03000 	mov	r3, #0
    e9d8:	e5843000 	str	r3, [r4]
    e9dc:	e5843004 	str	r3, [r4, #4]
    e9e0:	e284002c 	add	r0, r4, #44	; 0x2c
    e9e4:	eb001aab 	bl	15498 <_USBString>
    e9e8:	e2840020 	add	r0, r4, #32
    e9ec:	eb001aa9 	bl	15498 <_USBString>
    e9f0:	e8bd8010 	pop	{r4, pc}
    e9f4:	0001bca4 	.word	0x0001bca4
    e9f8:	0001b4d8 	.word	0x0001b4d8

0000e9fc <USBDeviceGetName>:
    e9fc:	e92d4070 	push	{r4, r5, r6, lr}
    ea00:	e24dd008 	sub	sp, sp, #8
    ea04:	e1a05001 	mov	r5, r1
    ea08:	e2506000 	subs	r6, r0, #0
    ea0c:	1a000003 	bne	ea20 <USBDeviceGetName+0x24>
    ea10:	e59f2168 	ldr	r2, [pc, #360]	; eb80 <USBDeviceGetName+0x184>
    ea14:	e59f1168 	ldr	r1, [pc, #360]	; eb84 <USBDeviceGetName+0x188>
    ea18:	e59f0168 	ldr	r0, [pc, #360]	; eb88 <USBDeviceGetName+0x18c>
    ea1c:	eb002b9a 	bl	1988c <uspi_assertion_failed>
    ea20:	e3a0000c 	mov	r0, #12
    ea24:	eb002371 	bl	177f0 <malloc>
    ea28:	e2504000 	subs	r4, r0, #0
    ea2c:	1a000003 	bne	ea40 <USBDeviceGetName+0x44>
    ea30:	e59f2154 	ldr	r2, [pc, #340]	; eb8c <USBDeviceGetName+0x190>
    ea34:	e59f1148 	ldr	r1, [pc, #328]	; eb84 <USBDeviceGetName+0x188>
    ea38:	e59f0150 	ldr	r0, [pc, #336]	; eb90 <USBDeviceGetName+0x194>
    ea3c:	eb002b92 	bl	1988c <uspi_assertion_failed>
    ea40:	e1a00004 	mov	r0, r4
    ea44:	eb00093c 	bl	10f3c <String>
    ea48:	e3550001 	cmp	r5, #1
    ea4c:	0a000015 	beq	eaa8 <USBDeviceGetName+0xac>
    ea50:	3a000002 	bcc	ea60 <USBDeviceGetName+0x64>
    ea54:	e3550002 	cmp	r5, #2
    ea58:	0a000026 	beq	eaf8 <USBDeviceGetName+0xfc>
    ea5c:	ea00003d 	b	eb58 <USBDeviceGetName+0x15c>
    ea60:	e5963014 	ldr	r3, [r6, #20]
    ea64:	e3530000 	cmp	r3, #0
    ea68:	1a000003 	bne	ea7c <USBDeviceGetName+0x80>
    ea6c:	e59f2120 	ldr	r2, [pc, #288]	; eb94 <USBDeviceGetName+0x198>
    ea70:	e59f110c 	ldr	r1, [pc, #268]	; eb84 <USBDeviceGetName+0x188>
    ea74:	e59f011c 	ldr	r0, [pc, #284]	; eb98 <USBDeviceGetName+0x19c>
    ea78:	eb002b83 	bl	1988c <uspi_assertion_failed>
    ea7c:	e5961014 	ldr	r1, [r6, #20]
    ea80:	e5d1300a 	ldrb	r3, [r1, #10]
    ea84:	e5d1000b 	ldrb	r0, [r1, #11]
    ea88:	e5d12008 	ldrb	r2, [r1, #8]
    ea8c:	e5d11009 	ldrb	r1, [r1, #9]
    ea90:	e1833400 	orr	r3, r3, r0, lsl #8
    ea94:	e1822401 	orr	r2, r2, r1, lsl #8
    ea98:	e59f10fc 	ldr	r1, [pc, #252]	; eb9c <USBDeviceGetName+0x1a0>
    ea9c:	e1a00004 	mov	r0, r4
    eaa0:	eb000bb2 	bl	11970 <StringFormat>
    eaa4:	ea000032 	b	eb74 <USBDeviceGetName+0x178>
    eaa8:	e5963014 	ldr	r3, [r6, #20]
    eaac:	e3530000 	cmp	r3, #0
    eab0:	1a000003 	bne	eac4 <USBDeviceGetName+0xc8>
    eab4:	e59f20e4 	ldr	r2, [pc, #228]	; eba0 <USBDeviceGetName+0x1a4>
    eab8:	e59f10c4 	ldr	r1, [pc, #196]	; eb84 <USBDeviceGetName+0x188>
    eabc:	e59f00d4 	ldr	r0, [pc, #212]	; eb98 <USBDeviceGetName+0x19c>
    eac0:	eb002b71 	bl	1988c <uspi_assertion_failed>
    eac4:	e5961014 	ldr	r1, [r6, #20]
    eac8:	e5d12004 	ldrb	r2, [r1, #4]
    eacc:	e2423001 	sub	r3, r2, #1
    ead0:	e6ef3073 	uxtb	r3, r3
    ead4:	e35300fd 	cmp	r3, #253	; 0xfd
    ead8:	8a000022 	bhi	eb68 <USBDeviceGetName+0x16c>
    eadc:	e5d13005 	ldrb	r3, [r1, #5]
    eae0:	e5d11006 	ldrb	r1, [r1, #6]
    eae4:	e58d1000 	str	r1, [sp]
    eae8:	e59f10b4 	ldr	r1, [pc, #180]	; eba4 <USBDeviceGetName+0x1a8>
    eaec:	e1a00004 	mov	r0, r4
    eaf0:	eb000b9e 	bl	11970 <StringFormat>
    eaf4:	ea00001e 	b	eb74 <USBDeviceGetName+0x178>
    eaf8:	e5965018 	ldr	r5, [r6, #24]
    eafc:	e3550000 	cmp	r5, #0
    eb00:	1a000003 	bne	eb14 <USBDeviceGetName+0x118>
    eb04:	e3a02f5e 	mov	r2, #376	; 0x178
    eb08:	e59f1074 	ldr	r1, [pc, #116]	; eb84 <USBDeviceGetName+0x188>
    eb0c:	e59f0094 	ldr	r0, [pc, #148]	; eba8 <USBDeviceGetName+0x1ac>
    eb10:	eb002b5d 	bl	1988c <uspi_assertion_failed>
    eb14:	e5d53002 	ldrb	r3, [r5, #2]
    eb18:	e5d52003 	ldrb	r2, [r5, #3]
    eb1c:	e1833402 	orr	r3, r3, r2, lsl #8
    eb20:	e3530011 	cmp	r3, #17
    eb24:	9a00000f 	bls	eb68 <USBDeviceGetName+0x16c>
    eb28:	e5d5200e 	ldrb	r2, [r5, #14]
    eb2c:	e2423001 	sub	r3, r2, #1
    eb30:	e6ef3073 	uxtb	r3, r3
    eb34:	e35300fd 	cmp	r3, #253	; 0xfd
    eb38:	8a00000a 	bhi	eb68 <USBDeviceGetName+0x16c>
    eb3c:	e5d5300f 	ldrb	r3, [r5, #15]
    eb40:	e5d51010 	ldrb	r1, [r5, #16]
    eb44:	e58d1000 	str	r1, [sp]
    eb48:	e59f105c 	ldr	r1, [pc, #92]	; ebac <USBDeviceGetName+0x1b0>
    eb4c:	e1a00004 	mov	r0, r4
    eb50:	eb000b86 	bl	11970 <StringFormat>
    eb54:	ea000006 	b	eb74 <USBDeviceGetName+0x178>
    eb58:	e59f2050 	ldr	r2, [pc, #80]	; ebb0 <USBDeviceGetName+0x1b4>
    eb5c:	e59f1020 	ldr	r1, [pc, #32]	; eb84 <USBDeviceGetName+0x188>
    eb60:	e59f004c 	ldr	r0, [pc, #76]	; ebb4 <USBDeviceGetName+0x1b8>
    eb64:	eb002b48 	bl	1988c <uspi_assertion_failed>
    eb68:	e59f1048 	ldr	r1, [pc, #72]	; ebb8 <USBDeviceGetName+0x1bc>
    eb6c:	e1a00004 	mov	r0, r4
    eb70:	eb000930 	bl	11038 <StringSet>
    eb74:	e1a00004 	mov	r0, r4
    eb78:	e28dd008 	add	sp, sp, #8
    eb7c:	e8bd8070 	pop	{r4, r5, r6, pc}
    eb80:	0000015a 	.word	0x0000015a
    eb84:	0001bca4 	.word	0x0001bca4
    eb88:	0001b4d8 	.word	0x0001b4d8
    eb8c:	0000015d 	.word	0x0000015d
    eb90:	0001bdc0 	.word	0x0001bdc0
    eb94:	00000163 	.word	0x00000163
    eb98:	0001bd44 	.word	0x0001bd44
    eb9c:	0001bdd0 	.word	0x0001bdd0
    eba0:	0000016a 	.word	0x0000016a
    eba4:	0001bddc 	.word	0x0001bddc
    eba8:	0001bde8 	.word	0x0001bde8
    ebac:	0001bdf8 	.word	0x0001bdf8
    ebb0:	00000186 	.word	0x00000186
    ebb4:	0001d8fc 	.word	0x0001d8fc
    ebb8:	0001be04 	.word	0x0001be04

0000ebbc <USBDeviceGetAddress>:
    ebbc:	e92d4010 	push	{r4, lr}
    ebc0:	e2504000 	subs	r4, r0, #0
    ebc4:	1a000003 	bne	ebd8 <USBDeviceGetAddress+0x1c>
    ebc8:	e59f2010 	ldr	r2, [pc, #16]	; ebe0 <USBDeviceGetAddress+0x24>
    ebcc:	e59f1010 	ldr	r1, [pc, #16]	; ebe4 <USBDeviceGetAddress+0x28>
    ebd0:	e59f0010 	ldr	r0, [pc, #16]	; ebe8 <USBDeviceGetAddress+0x2c>
    ebd4:	eb002b2c 	bl	1988c <uspi_assertion_failed>
    ebd8:	e5d40008 	ldrb	r0, [r4, #8]
    ebdc:	e8bd8010 	pop	{r4, pc}
    ebe0:	00000191 	.word	0x00000191
    ebe4:	0001bca4 	.word	0x0001bca4
    ebe8:	0001b4d8 	.word	0x0001b4d8

0000ebec <USBDeviceGetSpeed>:
    ebec:	e92d4010 	push	{r4, lr}
    ebf0:	e2504000 	subs	r4, r0, #0
    ebf4:	1a000003 	bne	ec08 <USBDeviceGetSpeed+0x1c>
    ebf8:	e59f2010 	ldr	r2, [pc, #16]	; ec10 <USBDeviceGetSpeed+0x24>
    ebfc:	e59f1010 	ldr	r1, [pc, #16]	; ec14 <USBDeviceGetSpeed+0x28>
    ec00:	e59f0010 	ldr	r0, [pc, #16]	; ec18 <USBDeviceGetSpeed+0x2c>
    ec04:	eb002b20 	bl	1988c <uspi_assertion_failed>
    ec08:	e5d40009 	ldrb	r0, [r4, #9]
    ec0c:	e8bd8010 	pop	{r4, pc}
    ec10:	00000197 	.word	0x00000197
    ec14:	0001bca4 	.word	0x0001bca4
    ec18:	0001b4d8 	.word	0x0001b4d8

0000ec1c <USBDeviceGetHubAddress>:
    ec1c:	e92d4010 	push	{r4, lr}
    ec20:	e2504000 	subs	r4, r0, #0
    ec24:	1a000003 	bne	ec38 <USBDeviceGetHubAddress+0x1c>
    ec28:	e59f2010 	ldr	r2, [pc, #16]	; ec40 <USBDeviceGetHubAddress+0x24>
    ec2c:	e59f1010 	ldr	r1, [pc, #16]	; ec44 <USBDeviceGetHubAddress+0x28>
    ec30:	e59f0010 	ldr	r0, [pc, #16]	; ec48 <USBDeviceGetHubAddress+0x2c>
    ec34:	eb002b14 	bl	1988c <uspi_assertion_failed>
    ec38:	e5d40010 	ldrb	r0, [r4, #16]
    ec3c:	e8bd8010 	pop	{r4, pc}
    ec40:	0000019d 	.word	0x0000019d
    ec44:	0001bca4 	.word	0x0001bca4
    ec48:	0001b4d8 	.word	0x0001b4d8

0000ec4c <USBDeviceGetHubPortNumber>:
    ec4c:	e92d4010 	push	{r4, lr}
    ec50:	e2504000 	subs	r4, r0, #0
    ec54:	1a000003 	bne	ec68 <USBDeviceGetHubPortNumber+0x1c>
    ec58:	e59f2010 	ldr	r2, [pc, #16]	; ec70 <USBDeviceGetHubPortNumber+0x24>
    ec5c:	e59f1010 	ldr	r1, [pc, #16]	; ec74 <USBDeviceGetHubPortNumber+0x28>
    ec60:	e59f0010 	ldr	r0, [pc, #16]	; ec78 <USBDeviceGetHubPortNumber+0x2c>
    ec64:	eb002b08 	bl	1988c <uspi_assertion_failed>
    ec68:	e5d40011 	ldrb	r0, [r4, #17]
    ec6c:	e8bd8010 	pop	{r4, pc}
    ec70:	000001a3 	.word	0x000001a3
    ec74:	0001bca4 	.word	0x0001bca4
    ec78:	0001b4d8 	.word	0x0001b4d8

0000ec7c <USBDeviceGetEndpoint0>:
    ec7c:	e92d4010 	push	{r4, lr}
    ec80:	e2504000 	subs	r4, r0, #0
    ec84:	1a000003 	bne	ec98 <USBDeviceGetEndpoint0+0x1c>
    ec88:	e59f202c 	ldr	r2, [pc, #44]	; ecbc <USBDeviceGetEndpoint0+0x40>
    ec8c:	e59f102c 	ldr	r1, [pc, #44]	; ecc0 <USBDeviceGetEndpoint0+0x44>
    ec90:	e59f002c 	ldr	r0, [pc, #44]	; ecc4 <USBDeviceGetEndpoint0+0x48>
    ec94:	eb002afc 	bl	1988c <uspi_assertion_failed>
    ec98:	e594300c 	ldr	r3, [r4, #12]
    ec9c:	e3530000 	cmp	r3, #0
    eca0:	1a000003 	bne	ecb4 <USBDeviceGetEndpoint0+0x38>
    eca4:	e59f201c 	ldr	r2, [pc, #28]	; ecc8 <USBDeviceGetEndpoint0+0x4c>
    eca8:	e59f1010 	ldr	r1, [pc, #16]	; ecc0 <USBDeviceGetEndpoint0+0x44>
    ecac:	e59f0018 	ldr	r0, [pc, #24]	; eccc <USBDeviceGetEndpoint0+0x50>
    ecb0:	eb002af5 	bl	1988c <uspi_assertion_failed>
    ecb4:	e594000c 	ldr	r0, [r4, #12]
    ecb8:	e8bd8010 	pop	{r4, pc}
    ecbc:	000001a9 	.word	0x000001a9
    ecc0:	0001bca4 	.word	0x0001bca4
    ecc4:	0001b4d8 	.word	0x0001b4d8
    ecc8:	000001aa 	.word	0x000001aa
    eccc:	0001bcc4 	.word	0x0001bcc4

0000ecd0 <USBDeviceGetHost>:
    ecd0:	e92d4010 	push	{r4, lr}
    ecd4:	e2504000 	subs	r4, r0, #0
    ecd8:	1a000003 	bne	ecec <USBDeviceGetHost+0x1c>
    ecdc:	e3a02e1b 	mov	r2, #432	; 0x1b0
    ece0:	e59f1028 	ldr	r1, [pc, #40]	; ed10 <USBDeviceGetHost+0x40>
    ece4:	e59f0028 	ldr	r0, [pc, #40]	; ed14 <USBDeviceGetHost+0x44>
    ece8:	eb002ae7 	bl	1988c <uspi_assertion_failed>
    ecec:	e5943004 	ldr	r3, [r4, #4]
    ecf0:	e3530000 	cmp	r3, #0
    ecf4:	1a000003 	bne	ed08 <USBDeviceGetHost+0x38>
    ecf8:	e59f2018 	ldr	r2, [pc, #24]	; ed18 <USBDeviceGetHost+0x48>
    ecfc:	e59f100c 	ldr	r1, [pc, #12]	; ed10 <USBDeviceGetHost+0x40>
    ed00:	e59f0014 	ldr	r0, [pc, #20]	; ed1c <USBDeviceGetHost+0x4c>
    ed04:	eb002ae0 	bl	1988c <uspi_assertion_failed>
    ed08:	e5940004 	ldr	r0, [r4, #4]
    ed0c:	e8bd8010 	pop	{r4, pc}
    ed10:	0001bca4 	.word	0x0001bca4
    ed14:	0001b4d8 	.word	0x0001b4d8
    ed18:	000001b1 	.word	0x000001b1
    ed1c:	0001bcb0 	.word	0x0001bcb0

0000ed20 <USBDeviceGetDeviceDescriptor>:
    ed20:	e92d4010 	push	{r4, lr}
    ed24:	e2504000 	subs	r4, r0, #0
    ed28:	1a000003 	bne	ed3c <USBDeviceGetDeviceDescriptor+0x1c>
    ed2c:	e59f202c 	ldr	r2, [pc, #44]	; ed60 <USBDeviceGetDeviceDescriptor+0x40>
    ed30:	e59f102c 	ldr	r1, [pc, #44]	; ed64 <USBDeviceGetDeviceDescriptor+0x44>
    ed34:	e59f002c 	ldr	r0, [pc, #44]	; ed68 <USBDeviceGetDeviceDescriptor+0x48>
    ed38:	eb002ad3 	bl	1988c <uspi_assertion_failed>
    ed3c:	e5943014 	ldr	r3, [r4, #20]
    ed40:	e3530000 	cmp	r3, #0
    ed44:	1a000003 	bne	ed58 <USBDeviceGetDeviceDescriptor+0x38>
    ed48:	e3a02f6e 	mov	r2, #440	; 0x1b8
    ed4c:	e59f1010 	ldr	r1, [pc, #16]	; ed64 <USBDeviceGetDeviceDescriptor+0x44>
    ed50:	e59f0014 	ldr	r0, [pc, #20]	; ed6c <USBDeviceGetDeviceDescriptor+0x4c>
    ed54:	eb002acc 	bl	1988c <uspi_assertion_failed>
    ed58:	e5940014 	ldr	r0, [r4, #20]
    ed5c:	e8bd8010 	pop	{r4, pc}
    ed60:	000001b7 	.word	0x000001b7
    ed64:	0001bca4 	.word	0x0001bca4
    ed68:	0001b4d8 	.word	0x0001b4d8
    ed6c:	0001bd44 	.word	0x0001bd44

0000ed70 <USBDeviceGetConfigurationDescriptor>:
    ed70:	e92d4010 	push	{r4, lr}
    ed74:	e2504000 	subs	r4, r0, #0
    ed78:	1a000003 	bne	ed8c <USBDeviceGetConfigurationDescriptor+0x1c>
    ed7c:	e59f202c 	ldr	r2, [pc, #44]	; edb0 <USBDeviceGetConfigurationDescriptor+0x40>
    ed80:	e59f102c 	ldr	r1, [pc, #44]	; edb4 <USBDeviceGetConfigurationDescriptor+0x44>
    ed84:	e59f002c 	ldr	r0, [pc, #44]	; edb8 <USBDeviceGetConfigurationDescriptor+0x48>
    ed88:	eb002abf 	bl	1988c <uspi_assertion_failed>
    ed8c:	e5943018 	ldr	r3, [r4, #24]
    ed90:	e3530000 	cmp	r3, #0
    ed94:	1a000003 	bne	eda8 <USBDeviceGetConfigurationDescriptor+0x38>
    ed98:	e59f201c 	ldr	r2, [pc, #28]	; edbc <USBDeviceGetConfigurationDescriptor+0x4c>
    ed9c:	e59f1010 	ldr	r1, [pc, #16]	; edb4 <USBDeviceGetConfigurationDescriptor+0x44>
    eda0:	e59f0018 	ldr	r0, [pc, #24]	; edc0 <USBDeviceGetConfigurationDescriptor+0x50>
    eda4:	eb002ab8 	bl	1988c <uspi_assertion_failed>
    eda8:	e5940018 	ldr	r0, [r4, #24]
    edac:	e8bd8010 	pop	{r4, pc}
    edb0:	000001be 	.word	0x000001be
    edb4:	0001bca4 	.word	0x0001bca4
    edb8:	0001b4d8 	.word	0x0001b4d8
    edbc:	000001bf 	.word	0x000001bf
    edc0:	0001bd88 	.word	0x0001bd88

0000edc4 <USBDeviceGetDescriptor>:
    edc4:	e92d4070 	push	{r4, r5, r6, lr}
    edc8:	e1a05001 	mov	r5, r1
    edcc:	e2504000 	subs	r4, r0, #0
    edd0:	1a000003 	bne	ede4 <USBDeviceGetDescriptor+0x20>
    edd4:	e59f2034 	ldr	r2, [pc, #52]	; ee10 <USBDeviceGetDescriptor+0x4c>
    edd8:	e59f1034 	ldr	r1, [pc, #52]	; ee14 <USBDeviceGetDescriptor+0x50>
    eddc:	e59f0034 	ldr	r0, [pc, #52]	; ee18 <USBDeviceGetDescriptor+0x54>
    ede0:	eb002aa9 	bl	1988c <uspi_assertion_failed>
    ede4:	e594301c 	ldr	r3, [r4, #28]
    ede8:	e3530000 	cmp	r3, #0
    edec:	1a000003 	bne	ee00 <USBDeviceGetDescriptor+0x3c>
    edf0:	e59f2024 	ldr	r2, [pc, #36]	; ee1c <USBDeviceGetDescriptor+0x58>
    edf4:	e59f1018 	ldr	r1, [pc, #24]	; ee14 <USBDeviceGetDescriptor+0x50>
    edf8:	e59f0020 	ldr	r0, [pc, #32]	; ee20 <USBDeviceGetDescriptor+0x5c>
    edfc:	eb002aa2 	bl	1988c <uspi_assertion_failed>
    ee00:	e1a01005 	mov	r1, r5
    ee04:	e594001c 	ldr	r0, [r4, #28]
    ee08:	eb001cfd 	bl	16204 <USBConfigurationParserGetDescriptor>
    ee0c:	e8bd8070 	pop	{r4, r5, r6, pc}
    ee10:	000001c5 	.word	0x000001c5
    ee14:	0001bca4 	.word	0x0001bca4
    ee18:	0001b4d8 	.word	0x0001b4d8
    ee1c:	000001c6 	.word	0x000001c6
    ee20:	0001bda4 	.word	0x0001bda4

0000ee24 <USBDeviceConfigurationError>:
    ee24:	e92d4070 	push	{r4, r5, r6, lr}
    ee28:	e1a05001 	mov	r5, r1
    ee2c:	e2504000 	subs	r4, r0, #0
    ee30:	1a000003 	bne	ee44 <USBDeviceConfigurationError+0x20>
    ee34:	e3a02f73 	mov	r2, #460	; 0x1cc
    ee38:	e59f1030 	ldr	r1, [pc, #48]	; ee70 <USBDeviceConfigurationError+0x4c>
    ee3c:	e59f0030 	ldr	r0, [pc, #48]	; ee74 <USBDeviceConfigurationError+0x50>
    ee40:	eb002a91 	bl	1988c <uspi_assertion_failed>
    ee44:	e594301c 	ldr	r3, [r4, #28]
    ee48:	e3530000 	cmp	r3, #0
    ee4c:	1a000003 	bne	ee60 <USBDeviceConfigurationError+0x3c>
    ee50:	e59f2020 	ldr	r2, [pc, #32]	; ee78 <USBDeviceConfigurationError+0x54>
    ee54:	e59f1014 	ldr	r1, [pc, #20]	; ee70 <USBDeviceConfigurationError+0x4c>
    ee58:	e59f001c 	ldr	r0, [pc, #28]	; ee7c <USBDeviceConfigurationError+0x58>
    ee5c:	eb002a8a 	bl	1988c <uspi_assertion_failed>
    ee60:	e1a01005 	mov	r1, r5
    ee64:	e594001c 	ldr	r0, [r4, #28]
    ee68:	eb001d1c 	bl	162e0 <USBConfigurationParserError>
    ee6c:	e8bd8070 	pop	{r4, r5, r6, pc}
    ee70:	0001bca4 	.word	0x0001bca4
    ee74:	0001b4d8 	.word	0x0001b4d8
    ee78:	000001cd 	.word	0x000001cd
    ee7c:	0001bda4 	.word	0x0001bda4

0000ee80 <USBDeviceSetAddress>:
    ee80:	e92d4070 	push	{r4, r5, r6, lr}
    ee84:	e1a04001 	mov	r4, r1
    ee88:	e2505000 	subs	r5, r0, #0
    ee8c:	1a000003 	bne	eea0 <USBDeviceSetAddress+0x20>
    ee90:	e59f2028 	ldr	r2, [pc, #40]	; eec0 <USBDeviceSetAddress+0x40>
    ee94:	e59f1028 	ldr	r1, [pc, #40]	; eec4 <USBDeviceSetAddress+0x44>
    ee98:	e59f0028 	ldr	r0, [pc, #40]	; eec8 <USBDeviceSetAddress+0x48>
    ee9c:	eb002a7a 	bl	1988c <uspi_assertion_failed>
    eea0:	e3140080 	tst	r4, #128	; 0x80
    eea4:	0a000003 	beq	eeb8 <USBDeviceSetAddress+0x38>
    eea8:	e59f201c 	ldr	r2, [pc, #28]	; eecc <USBDeviceSetAddress+0x4c>
    eeac:	e59f1010 	ldr	r1, [pc, #16]	; eec4 <USBDeviceSetAddress+0x44>
    eeb0:	e59f0018 	ldr	r0, [pc, #24]	; eed0 <USBDeviceSetAddress+0x50>
    eeb4:	eb002a74 	bl	1988c <uspi_assertion_failed>
    eeb8:	e5c54008 	strb	r4, [r5, #8]
    eebc:	e8bd8070 	pop	{r4, r5, r6, pc}
    eec0:	000001d3 	.word	0x000001d3
    eec4:	0001bca4 	.word	0x0001bca4
    eec8:	0001b4d8 	.word	0x0001b4d8
    eecc:	000001d5 	.word	0x000001d5
    eed0:	0001be0c 	.word	0x0001be0c

0000eed4 <USBDeviceInitialize>:
    eed4:	e92d4070 	push	{r4, r5, r6, lr}
    eed8:	e24dd010 	sub	sp, sp, #16
    eedc:	e2504000 	subs	r4, r0, #0
    eee0:	1a000003 	bne	eef4 <USBDeviceInitialize+0x20>
    eee4:	e3a020a4 	mov	r2, #164	; 0xa4
    eee8:	e59f1430 	ldr	r1, [pc, #1072]	; f320 <USBDeviceInitialize+0x44c>
    eeec:	e59f0430 	ldr	r0, [pc, #1072]	; f324 <USBDeviceInitialize+0x450>
    eef0:	eb002a65 	bl	1988c <uspi_assertion_failed>
    eef4:	e5943014 	ldr	r3, [r4, #20]
    eef8:	e3530000 	cmp	r3, #0
    eefc:	0a000003 	beq	ef10 <USBDeviceInitialize+0x3c>
    ef00:	e3a020a6 	mov	r2, #166	; 0xa6
    ef04:	e59f1414 	ldr	r1, [pc, #1044]	; f320 <USBDeviceInitialize+0x44c>
    ef08:	e59f0418 	ldr	r0, [pc, #1048]	; f328 <USBDeviceInitialize+0x454>
    ef0c:	eb002a5e 	bl	1988c <uspi_assertion_failed>
    ef10:	e3a00012 	mov	r0, #18
    ef14:	eb002235 	bl	177f0 <malloc>
    ef18:	e5840014 	str	r0, [r4, #20]
    ef1c:	e3500000 	cmp	r0, #0
    ef20:	1a000003 	bne	ef34 <USBDeviceInitialize+0x60>
    ef24:	e3a020a8 	mov	r2, #168	; 0xa8
    ef28:	e59f13f0 	ldr	r1, [pc, #1008]	; f320 <USBDeviceInitialize+0x44c>
    ef2c:	e59f03f8 	ldr	r0, [pc, #1016]	; f32c <USBDeviceInitialize+0x458>
    ef30:	eb002a55 	bl	1988c <uspi_assertion_failed>
    ef34:	e5943004 	ldr	r3, [r4, #4]
    ef38:	e3530000 	cmp	r3, #0
    ef3c:	1a000003 	bne	ef50 <USBDeviceInitialize+0x7c>
    ef40:	e3a020aa 	mov	r2, #170	; 0xaa
    ef44:	e59f13d4 	ldr	r1, [pc, #980]	; f320 <USBDeviceInitialize+0x44c>
    ef48:	e59f03e0 	ldr	r0, [pc, #992]	; f330 <USBDeviceInitialize+0x45c>
    ef4c:	eb002a4e 	bl	1988c <uspi_assertion_failed>
    ef50:	e594300c 	ldr	r3, [r4, #12]
    ef54:	e3530000 	cmp	r3, #0
    ef58:	1a000003 	bne	ef6c <USBDeviceInitialize+0x98>
    ef5c:	e3a020ab 	mov	r2, #171	; 0xab
    ef60:	e59f13b8 	ldr	r1, [pc, #952]	; f320 <USBDeviceInitialize+0x44c>
    ef64:	e59f03c8 	ldr	r0, [pc, #968]	; f334 <USBDeviceInitialize+0x460>
    ef68:	eb002a47 	bl	1988c <uspi_assertion_failed>
    ef6c:	e594100c 	ldr	r1, [r4, #12]
    ef70:	e5940004 	ldr	r0, [r4, #4]
    ef74:	e3a03080 	mov	r3, #128	; 0x80
    ef78:	e58d3008 	str	r3, [sp, #8]
    ef7c:	e3a03008 	mov	r3, #8
    ef80:	e58d3004 	str	r3, [sp, #4]
    ef84:	e5943014 	ldr	r3, [r4, #20]
    ef88:	e58d3000 	str	r3, [sp]
    ef8c:	e3a03000 	mov	r3, #0
    ef90:	e3a02001 	mov	r2, #1
    ef94:	ebfff320 	bl	bc1c <DWHCIDeviceGetDescriptor>
    ef98:	e3500008 	cmp	r0, #8
    ef9c:	0a000008 	beq	efc4 <USBDeviceInitialize+0xf0>
    efa0:	e59f2390 	ldr	r2, [pc, #912]	; f338 <USBDeviceInitialize+0x464>
    efa4:	e3a01001 	mov	r1, #1
    efa8:	e59f038c 	ldr	r0, [pc, #908]	; f33c <USBDeviceInitialize+0x468>
    efac:	eb002a24 	bl	19844 <LogWrite>
    efb0:	e5940014 	ldr	r0, [r4, #20]
    efb4:	eb002276 	bl	17994 <free>
    efb8:	e3a05000 	mov	r5, #0
    efbc:	e5845014 	str	r5, [r4, #20]
    efc0:	ea0000d3 	b	f314 <USBDeviceInitialize+0x440>
    efc4:	e5943014 	ldr	r3, [r4, #20]
    efc8:	e5d32000 	ldrb	r2, [r3]
    efcc:	e3520012 	cmp	r2, #18
    efd0:	1a000002 	bne	efe0 <USBDeviceInitialize+0x10c>
    efd4:	e5d32001 	ldrb	r2, [r3, #1]
    efd8:	e3520001 	cmp	r2, #1
    efdc:	0a000008 	beq	f004 <USBDeviceInitialize+0x130>
    efe0:	e59f2358 	ldr	r2, [pc, #856]	; f340 <USBDeviceInitialize+0x46c>
    efe4:	e3a01001 	mov	r1, #1
    efe8:	e59f034c 	ldr	r0, [pc, #844]	; f33c <USBDeviceInitialize+0x468>
    efec:	eb002a14 	bl	19844 <LogWrite>
    eff0:	e5940014 	ldr	r0, [r4, #20]
    eff4:	eb002266 	bl	17994 <free>
    eff8:	e3a05000 	mov	r5, #0
    effc:	e5845014 	str	r5, [r4, #20]
    f000:	ea0000c3 	b	f314 <USBDeviceInitialize+0x440>
    f004:	e5d31007 	ldrb	r1, [r3, #7]
    f008:	e594000c 	ldr	r0, [r4, #12]
    f00c:	eb0001c7 	bl	f730 <USBEndpointSetMaxPacketSize>
    f010:	e594100c 	ldr	r1, [r4, #12]
    f014:	e5940004 	ldr	r0, [r4, #4]
    f018:	e3a03080 	mov	r3, #128	; 0x80
    f01c:	e58d3008 	str	r3, [sp, #8]
    f020:	e3a03012 	mov	r3, #18
    f024:	e58d3004 	str	r3, [sp, #4]
    f028:	e5943014 	ldr	r3, [r4, #20]
    f02c:	e58d3000 	str	r3, [sp]
    f030:	e3a03000 	mov	r3, #0
    f034:	e3a02001 	mov	r2, #1
    f038:	ebfff2f7 	bl	bc1c <DWHCIDeviceGetDescriptor>
    f03c:	e3500012 	cmp	r0, #18
    f040:	0a000008 	beq	f068 <USBDeviceInitialize+0x194>
    f044:	e59f22f8 	ldr	r2, [pc, #760]	; f344 <USBDeviceInitialize+0x470>
    f048:	e3a01001 	mov	r1, #1
    f04c:	e59f02e8 	ldr	r0, [pc, #744]	; f33c <USBDeviceInitialize+0x468>
    f050:	eb0029fb 	bl	19844 <LogWrite>
    f054:	e5940014 	ldr	r0, [r4, #20]
    f058:	eb00224d 	bl	17994 <free>
    f05c:	e3a05000 	mov	r5, #0
    f060:	e5845014 	str	r5, [r4, #20]
    f064:	ea0000aa 	b	f314 <USBDeviceInitialize+0x440>
    f068:	e59f32d8 	ldr	r3, [pc, #728]	; f348 <USBDeviceInitialize+0x474>
    f06c:	e5d36000 	ldrb	r6, [r3]
    f070:	e2862001 	add	r2, r6, #1
    f074:	e5c32000 	strb	r2, [r3]
    f078:	e3160080 	tst	r6, #128	; 0x80
    f07c:	0a000005 	beq	f098 <USBDeviceInitialize+0x1c4>
    f080:	e59f22c4 	ldr	r2, [pc, #708]	; f34c <USBDeviceInitialize+0x478>
    f084:	e3a01001 	mov	r1, #1
    f088:	e59f02ac 	ldr	r0, [pc, #684]	; f33c <USBDeviceInitialize+0x468>
    f08c:	eb0029ec 	bl	19844 <LogWrite>
    f090:	e3a05000 	mov	r5, #0
    f094:	ea00009e 	b	f314 <USBDeviceInitialize+0x440>
    f098:	e1a02006 	mov	r2, r6
    f09c:	e594100c 	ldr	r1, [r4, #12]
    f0a0:	e5940004 	ldr	r0, [r4, #4]
    f0a4:	ebfff2f8 	bl	bc8c <DWHCIDeviceSetAddress>
    f0a8:	e2505000 	subs	r5, r0, #0
    f0ac:	1a000005 	bne	f0c8 <USBDeviceInitialize+0x1f4>
    f0b0:	e1a03006 	mov	r3, r6
    f0b4:	e59f2294 	ldr	r2, [pc, #660]	; f350 <USBDeviceInitialize+0x47c>
    f0b8:	e3a01001 	mov	r1, #1
    f0bc:	e59f0278 	ldr	r0, [pc, #632]	; f33c <USBDeviceInitialize+0x468>
    f0c0:	eb0029df 	bl	19844 <LogWrite>
    f0c4:	ea000092 	b	f314 <USBDeviceInitialize+0x440>
    f0c8:	e1a01006 	mov	r1, r6
    f0cc:	e1a00004 	mov	r0, r4
    f0d0:	ebffff6a 	bl	ee80 <USBDeviceSetAddress>
    f0d4:	e5943014 	ldr	r3, [r4, #20]
    f0d8:	e5d3200e 	ldrb	r2, [r3, #14]
    f0dc:	e3520000 	cmp	r2, #0
    f0e0:	1a000002 	bne	f0f0 <USBDeviceInitialize+0x21c>
    f0e4:	e5d3300f 	ldrb	r3, [r3, #15]
    f0e8:	e3530000 	cmp	r3, #0
    f0ec:	0a000011 	beq	f138 <USBDeviceInitialize+0x264>
    f0f0:	e2845020 	add	r5, r4, #32
    f0f4:	e1a00005 	mov	r0, r5
    f0f8:	eb0019c4 	bl	15810 <USBStringGetLanguageID>
    f0fc:	e1a06000 	mov	r6, r0
    f100:	e5943014 	ldr	r3, [r4, #20]
    f104:	e5d3100e 	ldrb	r1, [r3, #14]
    f108:	e3510000 	cmp	r1, #0
    f10c:	0a000002 	beq	f11c <USBDeviceInitialize+0x248>
    f110:	e1a02000 	mov	r2, r0
    f114:	e1a00005 	mov	r0, r5
    f118:	eb0018fe 	bl	15518 <USBStringGetFromDescriptor>
    f11c:	e5943014 	ldr	r3, [r4, #20]
    f120:	e5d3100f 	ldrb	r1, [r3, #15]
    f124:	e3510000 	cmp	r1, #0
    f128:	0a000002 	beq	f138 <USBDeviceInitialize+0x264>
    f12c:	e1a02006 	mov	r2, r6
    f130:	e284002c 	add	r0, r4, #44	; 0x2c
    f134:	eb0018f7 	bl	15518 <USBStringGetFromDescriptor>
    f138:	e5943018 	ldr	r3, [r4, #24]
    f13c:	e3530000 	cmp	r3, #0
    f140:	0a000003 	beq	f154 <USBDeviceInitialize+0x280>
    f144:	e3a020fd 	mov	r2, #253	; 0xfd
    f148:	e59f11d0 	ldr	r1, [pc, #464]	; f320 <USBDeviceInitialize+0x44c>
    f14c:	e59f0200 	ldr	r0, [pc, #512]	; f354 <USBDeviceInitialize+0x480>
    f150:	eb0029cd 	bl	1988c <uspi_assertion_failed>
    f154:	e3a00009 	mov	r0, #9
    f158:	eb0021a4 	bl	177f0 <malloc>
    f15c:	e5840018 	str	r0, [r4, #24]
    f160:	e3500000 	cmp	r0, #0
    f164:	1a000003 	bne	f178 <USBDeviceInitialize+0x2a4>
    f168:	e3a020ff 	mov	r2, #255	; 0xff
    f16c:	e59f11ac 	ldr	r1, [pc, #428]	; f320 <USBDeviceInitialize+0x44c>
    f170:	e59f01e0 	ldr	r0, [pc, #480]	; f358 <USBDeviceInitialize+0x484>
    f174:	eb0029c4 	bl	1988c <uspi_assertion_failed>
    f178:	e594100c 	ldr	r1, [r4, #12]
    f17c:	e5940004 	ldr	r0, [r4, #4]
    f180:	e3a03080 	mov	r3, #128	; 0x80
    f184:	e58d3008 	str	r3, [sp, #8]
    f188:	e3a03009 	mov	r3, #9
    f18c:	e58d3004 	str	r3, [sp, #4]
    f190:	e5943018 	ldr	r3, [r4, #24]
    f194:	e58d3000 	str	r3, [sp]
    f198:	e3a03000 	mov	r3, #0
    f19c:	e3a02002 	mov	r2, #2
    f1a0:	ebfff29d 	bl	bc1c <DWHCIDeviceGetDescriptor>
    f1a4:	e3500009 	cmp	r0, #9
    f1a8:	0a000008 	beq	f1d0 <USBDeviceInitialize+0x2fc>
    f1ac:	e59f21a8 	ldr	r2, [pc, #424]	; f35c <USBDeviceInitialize+0x488>
    f1b0:	e3a01001 	mov	r1, #1
    f1b4:	e59f0180 	ldr	r0, [pc, #384]	; f33c <USBDeviceInitialize+0x468>
    f1b8:	eb0029a1 	bl	19844 <LogWrite>
    f1bc:	e5940018 	ldr	r0, [r4, #24]
    f1c0:	eb0021f3 	bl	17994 <free>
    f1c4:	e3a05000 	mov	r5, #0
    f1c8:	e5845018 	str	r5, [r4, #24]
    f1cc:	ea000050 	b	f314 <USBDeviceInitialize+0x440>
    f1d0:	e5940018 	ldr	r0, [r4, #24]
    f1d4:	e5d03000 	ldrb	r3, [r0]
    f1d8:	e3530009 	cmp	r3, #9
    f1dc:	1a000007 	bne	f200 <USBDeviceInitialize+0x32c>
    f1e0:	e5d03001 	ldrb	r3, [r0, #1]
    f1e4:	e3530002 	cmp	r3, #2
    f1e8:	1a000004 	bne	f200 <USBDeviceInitialize+0x32c>
    f1ec:	e5d03002 	ldrb	r3, [r0, #2]
    f1f0:	e5d05003 	ldrb	r5, [r0, #3]
    f1f4:	e1835405 	orr	r5, r3, r5, lsl #8
    f1f8:	e3550c02 	cmp	r5, #512	; 0x200
    f1fc:	9a000008 	bls	f224 <USBDeviceInitialize+0x350>
    f200:	e59f2158 	ldr	r2, [pc, #344]	; f360 <USBDeviceInitialize+0x48c>
    f204:	e3a01001 	mov	r1, #1
    f208:	e59f012c 	ldr	r0, [pc, #300]	; f33c <USBDeviceInitialize+0x468>
    f20c:	eb00298c 	bl	19844 <LogWrite>
    f210:	e5940018 	ldr	r0, [r4, #24]
    f214:	eb0021de 	bl	17994 <free>
    f218:	e3a05000 	mov	r5, #0
    f21c:	e5845018 	str	r5, [r4, #24]
    f220:	ea00003b 	b	f314 <USBDeviceInitialize+0x440>
    f224:	eb0021da 	bl	17994 <free>
    f228:	e1a00005 	mov	r0, r5
    f22c:	eb00216f 	bl	177f0 <malloc>
    f230:	e5840018 	str	r0, [r4, #24]
    f234:	e3500000 	cmp	r0, #0
    f238:	1a000003 	bne	f24c <USBDeviceInitialize+0x378>
    f23c:	e59f2120 	ldr	r2, [pc, #288]	; f364 <USBDeviceInitialize+0x490>
    f240:	e59f10d8 	ldr	r1, [pc, #216]	; f320 <USBDeviceInitialize+0x44c>
    f244:	e59f010c 	ldr	r0, [pc, #268]	; f358 <USBDeviceInitialize+0x484>
    f248:	eb00298f 	bl	1988c <uspi_assertion_failed>
    f24c:	e594100c 	ldr	r1, [r4, #12]
    f250:	e5940004 	ldr	r0, [r4, #4]
    f254:	e3a03080 	mov	r3, #128	; 0x80
    f258:	e58d3008 	str	r3, [sp, #8]
    f25c:	e58d5004 	str	r5, [sp, #4]
    f260:	e5943018 	ldr	r3, [r4, #24]
    f264:	e58d3000 	str	r3, [sp]
    f268:	e3a03000 	mov	r3, #0
    f26c:	e3a02002 	mov	r2, #2
    f270:	ebfff269 	bl	bc1c <DWHCIDeviceGetDescriptor>
    f274:	e1500005 	cmp	r0, r5
    f278:	0a000008 	beq	f2a0 <USBDeviceInitialize+0x3cc>
    f27c:	e59f20e4 	ldr	r2, [pc, #228]	; f368 <USBDeviceInitialize+0x494>
    f280:	e3a01001 	mov	r1, #1
    f284:	e59f00b0 	ldr	r0, [pc, #176]	; f33c <USBDeviceInitialize+0x468>
    f288:	eb00296d 	bl	19844 <LogWrite>
    f28c:	e5940018 	ldr	r0, [r4, #24]
    f290:	eb0021bf 	bl	17994 <free>
    f294:	e3a05000 	mov	r5, #0
    f298:	e5845018 	str	r5, [r4, #24]
    f29c:	ea00001c 	b	f314 <USBDeviceInitialize+0x440>
    f2a0:	e594301c 	ldr	r3, [r4, #28]
    f2a4:	e3530000 	cmp	r3, #0
    f2a8:	0a000003 	beq	f2bc <USBDeviceInitialize+0x3e8>
    f2ac:	e59f20b8 	ldr	r2, [pc, #184]	; f36c <USBDeviceInitialize+0x498>
    f2b0:	e59f1068 	ldr	r1, [pc, #104]	; f320 <USBDeviceInitialize+0x44c>
    f2b4:	e59f00b4 	ldr	r0, [pc, #180]	; f370 <USBDeviceInitialize+0x49c>
    f2b8:	eb002973 	bl	1988c <uspi_assertion_failed>
    f2bc:	e3a00018 	mov	r0, #24
    f2c0:	eb00214a 	bl	177f0 <malloc>
    f2c4:	e584001c 	str	r0, [r4, #28]
    f2c8:	e3500000 	cmp	r0, #0
    f2cc:	1a000003 	bne	f2e0 <USBDeviceInitialize+0x40c>
    f2d0:	e3a02f4d 	mov	r2, #308	; 0x134
    f2d4:	e59f1044 	ldr	r1, [pc, #68]	; f320 <USBDeviceInitialize+0x44c>
    f2d8:	e59f0094 	ldr	r0, [pc, #148]	; f374 <USBDeviceInitialize+0x4a0>
    f2dc:	eb00296a 	bl	1988c <uspi_assertion_failed>
    f2e0:	e1a02005 	mov	r2, r5
    f2e4:	e5941018 	ldr	r1, [r4, #24]
    f2e8:	e594001c 	ldr	r0, [r4, #28]
    f2ec:	eb001b47 	bl	16010 <USBConfigurationParser>
    f2f0:	e594001c 	ldr	r0, [r4, #28]
    f2f4:	eb001bb7 	bl	161d8 <USBConfigurationParserIsValid>
    f2f8:	e2505000 	subs	r5, r0, #0
    f2fc:	13a05001 	movne	r5, #1
    f300:	1a000003 	bne	f314 <USBDeviceInitialize+0x440>
    f304:	e59f1030 	ldr	r1, [pc, #48]	; f33c <USBDeviceInitialize+0x468>
    f308:	e1a00004 	mov	r0, r4
    f30c:	ebfffec4 	bl	ee24 <USBDeviceConfigurationError>
    f310:	eaffffff 	b	f314 <USBDeviceInitialize+0x440>
    f314:	e1a00005 	mov	r0, r5
    f318:	e28dd010 	add	sp, sp, #16
    f31c:	e8bd8070 	pop	{r4, r5, r6, pc}
    f320:	0001bca4 	.word	0x0001bca4
    f324:	0001b4d8 	.word	0x0001b4d8
    f328:	0001be2c 	.word	0x0001be2c
    f32c:	0001bd44 	.word	0x0001bd44
    f330:	0001bcb0 	.word	0x0001bcb0
    f334:	0001bcc4 	.word	0x0001bcc4
    f338:	0001be48 	.word	0x0001be48
    f33c:	0001bc9c 	.word	0x0001bc9c
    f340:	0001be70 	.word	0x0001be70
    f344:	0001be8c 	.word	0x0001be8c
    f348:	00008880 	.word	0x00008880
    f34c:	0001beac 	.word	0x0001beac
    f350:	0001bec0 	.word	0x0001bec0
    f354:	0001bed8 	.word	0x0001bed8
    f358:	0001bd88 	.word	0x0001bd88
    f35c:	0001bef4 	.word	0x0001bef4
    f360:	0001bf20 	.word	0x0001bf20
    f364:	0000011f 	.word	0x0000011f
    f368:	0001bf44 	.word	0x0001bf44
    f36c:	00000132 	.word	0x00000132
    f370:	0001bf68 	.word	0x0001bf68
    f374:	0001bda4 	.word	0x0001bda4

0000f378 <USBEndpoint>:
    f378:	e92d4070 	push	{r4, r5, r6, lr}
    f37c:	e1a05001 	mov	r5, r1
    f380:	e2504000 	subs	r4, r0, #0
    f384:	1a000003 	bne	f398 <USBEndpoint+0x20>
    f388:	e3a02019 	mov	r2, #25
    f38c:	e59f1048 	ldr	r1, [pc, #72]	; f3dc <USBEndpoint+0x64>
    f390:	e59f0048 	ldr	r0, [pc, #72]	; f3e0 <USBEndpoint+0x68>
    f394:	eb00293c 	bl	1988c <uspi_assertion_failed>
    f398:	e5845000 	str	r5, [r4]
    f39c:	e3a03000 	mov	r3, #0
    f3a0:	e5c43004 	strb	r3, [r4, #4]
    f3a4:	e5c43005 	strb	r3, [r4, #5]
    f3a8:	e5843008 	str	r3, [r4, #8]
    f3ac:	e3a02008 	mov	r2, #8
    f3b0:	e584200c 	str	r2, [r4, #12]
    f3b4:	e3a02001 	mov	r2, #1
    f3b8:	e5842010 	str	r2, [r4, #16]
    f3bc:	e5c43014 	strb	r3, [r4, #20]
    f3c0:	e1550003 	cmp	r5, r3
    f3c4:	18bd8070 	popne	{r4, r5, r6, pc}
    f3c8:	e3a02022 	mov	r2, #34	; 0x22
    f3cc:	e59f1008 	ldr	r1, [pc, #8]	; f3dc <USBEndpoint+0x64>
    f3d0:	e59f000c 	ldr	r0, [pc, #12]	; f3e4 <USBEndpoint+0x6c>
    f3d4:	eb00292c 	bl	1988c <uspi_assertion_failed>
    f3d8:	e8bd8070 	pop	{r4, r5, r6, pc}
    f3dc:	0001bf84 	.word	0x0001bf84
    f3e0:	0001b4d8 	.word	0x0001b4d8
    f3e4:	0001bb9c 	.word	0x0001bb9c

0000f3e8 <USBEndpoint2>:
    f3e8:	e92d4070 	push	{r4, r5, r6, lr}
    f3ec:	e1a06001 	mov	r6, r1
    f3f0:	e1a04002 	mov	r4, r2
    f3f4:	e2505000 	subs	r5, r0, #0
    f3f8:	1a000003 	bne	f40c <USBEndpoint2+0x24>
    f3fc:	e3a02027 	mov	r2, #39	; 0x27
    f400:	e59f1170 	ldr	r1, [pc, #368]	; f578 <USBEndpoint2+0x190>
    f404:	e59f0170 	ldr	r0, [pc, #368]	; f57c <USBEndpoint2+0x194>
    f408:	eb00291f 	bl	1988c <uspi_assertion_failed>
    f40c:	e5856000 	str	r6, [r5]
    f410:	e3a03001 	mov	r3, #1
    f414:	e5853010 	str	r3, [r5, #16]
    f418:	e3560000 	cmp	r6, #0
    f41c:	1a000003 	bne	f430 <USBEndpoint2+0x48>
    f420:	e3a0202b 	mov	r2, #43	; 0x2b
    f424:	e59f114c 	ldr	r1, [pc, #332]	; f578 <USBEndpoint2+0x190>
    f428:	e59f0150 	ldr	r0, [pc, #336]	; f580 <USBEndpoint2+0x198>
    f42c:	eb002916 	bl	1988c <uspi_assertion_failed>
    f430:	e3540000 	cmp	r4, #0
    f434:	1a000003 	bne	f448 <USBEndpoint2+0x60>
    f438:	e3a0202d 	mov	r2, #45	; 0x2d
    f43c:	e59f1134 	ldr	r1, [pc, #308]	; f578 <USBEndpoint2+0x190>
    f440:	e59f013c 	ldr	r0, [pc, #316]	; f584 <USBEndpoint2+0x19c>
    f444:	eb002910 	bl	1988c <uspi_assertion_failed>
    f448:	e5d43000 	ldrb	r3, [r4]
    f44c:	e2433007 	sub	r3, r3, #7
    f450:	e31300fd 	tst	r3, #253	; 0xfd
    f454:	0a000003 	beq	f468 <USBEndpoint2+0x80>
    f458:	e3a0202e 	mov	r2, #46	; 0x2e
    f45c:	e59f1114 	ldr	r1, [pc, #276]	; f578 <USBEndpoint2+0x190>
    f460:	e59f0120 	ldr	r0, [pc, #288]	; f588 <USBEndpoint2+0x1a0>
    f464:	eb002908 	bl	1988c <uspi_assertion_failed>
    f468:	e5d43001 	ldrb	r3, [r4, #1]
    f46c:	e3530005 	cmp	r3, #5
    f470:	0a000003 	beq	f484 <USBEndpoint2+0x9c>
    f474:	e3a0202f 	mov	r2, #47	; 0x2f
    f478:	e59f10f8 	ldr	r1, [pc, #248]	; f578 <USBEndpoint2+0x190>
    f47c:	e59f0108 	ldr	r0, [pc, #264]	; f58c <USBEndpoint2+0x1a4>
    f480:	eb002901 	bl	1988c <uspi_assertion_failed>
    f484:	e5d43003 	ldrb	r3, [r4, #3]
    f488:	e2033003 	and	r3, r3, #3
    f48c:	e3530002 	cmp	r3, #2
    f490:	0a000002 	beq	f4a0 <USBEndpoint2+0xb8>
    f494:	e3530003 	cmp	r3, #3
    f498:	0a000004 	beq	f4b0 <USBEndpoint2+0xc8>
    f49c:	ea000008 	b	f4c4 <USBEndpoint2+0xdc>
    f4a0:	e3a03001 	mov	r3, #1
    f4a4:	e5c53005 	strb	r3, [r5, #5]
    f4a8:	e5c53014 	strb	r3, [r5, #20]
    f4ac:	ea000009 	b	f4d8 <USBEndpoint2+0xf0>
    f4b0:	e3a03002 	mov	r3, #2
    f4b4:	e5c53005 	strb	r3, [r5, #5]
    f4b8:	e3a03001 	mov	r3, #1
    f4bc:	e5c53014 	strb	r3, [r5, #20]
    f4c0:	ea000004 	b	f4d8 <USBEndpoint2+0xf0>
    f4c4:	e3a0203e 	mov	r2, #62	; 0x3e
    f4c8:	e59f10a8 	ldr	r1, [pc, #168]	; f578 <USBEndpoint2+0x190>
    f4cc:	e59f00bc 	ldr	r0, [pc, #188]	; f590 <USBEndpoint2+0x1a8>
    f4d0:	eb0028ed 	bl	1988c <uspi_assertion_failed>
    f4d4:	e8bd8070 	pop	{r4, r5, r6, pc}
    f4d8:	e5d43002 	ldrb	r3, [r4, #2]
    f4dc:	e203300f 	and	r3, r3, #15
    f4e0:	e5c53004 	strb	r3, [r5, #4]
    f4e4:	e1d430d2 	ldrsb	r3, [r4, #2]
    f4e8:	e1a03fa3 	lsr	r3, r3, #31
    f4ec:	e5853008 	str	r3, [r5, #8]
    f4f0:	e5d43004 	ldrb	r3, [r4, #4]
    f4f4:	e5d42005 	ldrb	r2, [r4, #5]
    f4f8:	e1833402 	orr	r3, r3, r2, lsl #8
    f4fc:	e585300c 	str	r3, [r5, #12]
    f500:	e5d53005 	ldrb	r3, [r5, #5]
    f504:	e3530002 	cmp	r3, #2
    f508:	18bd8070 	popne	{r4, r5, r6, pc}
    f50c:	e5d44006 	ldrb	r4, [r4, #6]
    f510:	e3540000 	cmp	r4, #0
    f514:	0a000011 	beq	f560 <USBEndpoint2+0x178>
    f518:	e5950000 	ldr	r0, [r5]
    f51c:	ebfffdb2 	bl	ebec <USBDeviceGetSpeed>
    f520:	e3500002 	cmp	r0, #2
    f524:	0a000001 	beq	f530 <USBEndpoint2+0x148>
    f528:	e5854010 	str	r4, [r5, #16]
    f52c:	e8bd8070 	pop	{r4, r5, r6, pc}
    f530:	e3540010 	cmp	r4, #16
    f534:	23a04010 	movcs	r4, #16
    f538:	e2444001 	sub	r4, r4, #1
    f53c:	e3a03001 	mov	r3, #1
    f540:	e1a04413 	lsl	r4, r3, r4
    f544:	e1a041a4 	lsr	r4, r4, #3
    f548:	e5854010 	str	r4, [r5, #16]
    f54c:	e3540000 	cmp	r4, #0
    f550:	18bd8070 	popne	{r4, r5, r6, pc}
    f554:	e3a03001 	mov	r3, #1
    f558:	e5853010 	str	r3, [r5, #16]
    f55c:	e8bd8070 	pop	{r4, r5, r6, pc}
    f560:	e5950000 	ldr	r0, [r5]
    f564:	ebfffda0 	bl	ebec <USBDeviceGetSpeed>
    f568:	e3500002 	cmp	r0, #2
    f56c:	13a04001 	movne	r4, #1
    f570:	1affffec 	bne	f528 <USBEndpoint2+0x140>
    f574:	eafffff6 	b	f554 <USBEndpoint2+0x16c>
    f578:	0001bf84 	.word	0x0001bf84
    f57c:	0001b4d8 	.word	0x0001b4d8
    f580:	0001bb9c 	.word	0x0001bb9c
    f584:	0001b4a8 	.word	0x0001b4a8
    f588:	0001bf94 	.word	0x0001bf94
    f58c:	0001bff0 	.word	0x0001bff0
    f590:	0001d8fc 	.word	0x0001d8fc

0000f594 <USBEndpointCopy>:
    f594:	e92d4070 	push	{r4, r5, r6, lr}
    f598:	e1a05001 	mov	r5, r1
    f59c:	e1a06002 	mov	r6, r2
    f5a0:	e2504000 	subs	r4, r0, #0
    f5a4:	1a000003 	bne	f5b8 <USBEndpointCopy+0x24>
    f5a8:	e3a02068 	mov	r2, #104	; 0x68
    f5ac:	e59f106c 	ldr	r1, [pc, #108]	; f620 <USBEndpointCopy+0x8c>
    f5b0:	e59f006c 	ldr	r0, [pc, #108]	; f624 <USBEndpointCopy+0x90>
    f5b4:	eb0028b4 	bl	1988c <uspi_assertion_failed>
    f5b8:	e3550000 	cmp	r5, #0
    f5bc:	1a000003 	bne	f5d0 <USBEndpointCopy+0x3c>
    f5c0:	e3a0206a 	mov	r2, #106	; 0x6a
    f5c4:	e59f1054 	ldr	r1, [pc, #84]	; f620 <USBEndpointCopy+0x8c>
    f5c8:	e59f0058 	ldr	r0, [pc, #88]	; f628 <USBEndpointCopy+0x94>
    f5cc:	eb0028ae 	bl	1988c <uspi_assertion_failed>
    f5d0:	e5846000 	str	r6, [r4]
    f5d4:	e3560000 	cmp	r6, #0
    f5d8:	1a000003 	bne	f5ec <USBEndpointCopy+0x58>
    f5dc:	e3a0206d 	mov	r2, #109	; 0x6d
    f5e0:	e59f1038 	ldr	r1, [pc, #56]	; f620 <USBEndpointCopy+0x8c>
    f5e4:	e59f0040 	ldr	r0, [pc, #64]	; f62c <USBEndpointCopy+0x98>
    f5e8:	eb0028a7 	bl	1988c <uspi_assertion_failed>
    f5ec:	e5d53004 	ldrb	r3, [r5, #4]
    f5f0:	e5c43004 	strb	r3, [r4, #4]
    f5f4:	e5d53005 	ldrb	r3, [r5, #5]
    f5f8:	e5c43005 	strb	r3, [r4, #5]
    f5fc:	e5953008 	ldr	r3, [r5, #8]
    f600:	e5843008 	str	r3, [r4, #8]
    f604:	e595300c 	ldr	r3, [r5, #12]
    f608:	e584300c 	str	r3, [r4, #12]
    f60c:	e5953010 	ldr	r3, [r5, #16]
    f610:	e5843010 	str	r3, [r4, #16]
    f614:	e5d53014 	ldrb	r3, [r5, #20]
    f618:	e5c43014 	strb	r3, [r4, #20]
    f61c:	e8bd8070 	pop	{r4, r5, r6, pc}
    f620:	0001bf84 	.word	0x0001bf84
    f624:	0001b4d8 	.word	0x0001b4d8
    f628:	0001c020 	.word	0x0001c020
    f62c:	0001bb9c 	.word	0x0001bb9c

0000f630 <_USBEndpoint>:
    f630:	e92d4010 	push	{r4, lr}
    f634:	e2504000 	subs	r4, r0, #0
    f638:	1a000003 	bne	f64c <_USBEndpoint+0x1c>
    f63c:	e3a02079 	mov	r2, #121	; 0x79
    f640:	e59f1010 	ldr	r1, [pc, #16]	; f658 <_USBEndpoint+0x28>
    f644:	e59f0010 	ldr	r0, [pc, #16]	; f65c <_USBEndpoint+0x2c>
    f648:	eb00288f 	bl	1988c <uspi_assertion_failed>
    f64c:	e3a03000 	mov	r3, #0
    f650:	e5843000 	str	r3, [r4]
    f654:	e8bd8010 	pop	{r4, pc}
    f658:	0001bf84 	.word	0x0001bf84
    f65c:	0001b4d8 	.word	0x0001b4d8

0000f660 <USBEndpointGetDevice>:
    f660:	e92d4010 	push	{r4, lr}
    f664:	e2504000 	subs	r4, r0, #0
    f668:	1a000003 	bne	f67c <USBEndpointGetDevice+0x1c>
    f66c:	e3a0207f 	mov	r2, #127	; 0x7f
    f670:	e59f1028 	ldr	r1, [pc, #40]	; f6a0 <USBEndpointGetDevice+0x40>
    f674:	e59f0028 	ldr	r0, [pc, #40]	; f6a4 <USBEndpointGetDevice+0x44>
    f678:	eb002883 	bl	1988c <uspi_assertion_failed>
    f67c:	e5943000 	ldr	r3, [r4]
    f680:	e3530000 	cmp	r3, #0
    f684:	1a000003 	bne	f698 <USBEndpointGetDevice+0x38>
    f688:	e3a02080 	mov	r2, #128	; 0x80
    f68c:	e59f100c 	ldr	r1, [pc, #12]	; f6a0 <USBEndpointGetDevice+0x40>
    f690:	e59f0010 	ldr	r0, [pc, #16]	; f6a8 <USBEndpointGetDevice+0x48>
    f694:	eb00287c 	bl	1988c <uspi_assertion_failed>
    f698:	e5940000 	ldr	r0, [r4]
    f69c:	e8bd8010 	pop	{r4, pc}
    f6a0:	0001bf84 	.word	0x0001bf84
    f6a4:	0001b4d8 	.word	0x0001b4d8
    f6a8:	0001bb9c 	.word	0x0001bb9c

0000f6ac <USBEndpointGetNumber>:
    f6ac:	e92d4010 	push	{r4, lr}
    f6b0:	e2504000 	subs	r4, r0, #0
    f6b4:	1a000003 	bne	f6c8 <USBEndpointGetNumber+0x1c>
    f6b8:	e3a02086 	mov	r2, #134	; 0x86
    f6bc:	e59f100c 	ldr	r1, [pc, #12]	; f6d0 <USBEndpointGetNumber+0x24>
    f6c0:	e59f000c 	ldr	r0, [pc, #12]	; f6d4 <USBEndpointGetNumber+0x28>
    f6c4:	eb002870 	bl	1988c <uspi_assertion_failed>
    f6c8:	e5d40004 	ldrb	r0, [r4, #4]
    f6cc:	e8bd8010 	pop	{r4, pc}
    f6d0:	0001bf84 	.word	0x0001bf84
    f6d4:	0001b4d8 	.word	0x0001b4d8

0000f6d8 <USBEndpointGetType>:
    f6d8:	e92d4010 	push	{r4, lr}
    f6dc:	e2504000 	subs	r4, r0, #0
    f6e0:	1a000003 	bne	f6f4 <USBEndpointGetType+0x1c>
    f6e4:	e3a0208c 	mov	r2, #140	; 0x8c
    f6e8:	e59f100c 	ldr	r1, [pc, #12]	; f6fc <USBEndpointGetType+0x24>
    f6ec:	e59f000c 	ldr	r0, [pc, #12]	; f700 <USBEndpointGetType+0x28>
    f6f0:	eb002865 	bl	1988c <uspi_assertion_failed>
    f6f4:	e5d40005 	ldrb	r0, [r4, #5]
    f6f8:	e8bd8010 	pop	{r4, pc}
    f6fc:	0001bf84 	.word	0x0001bf84
    f700:	0001b4d8 	.word	0x0001b4d8

0000f704 <USBEndpointIsDirectionIn>:
    f704:	e92d4010 	push	{r4, lr}
    f708:	e2504000 	subs	r4, r0, #0
    f70c:	1a000003 	bne	f720 <USBEndpointIsDirectionIn+0x1c>
    f710:	e3a02092 	mov	r2, #146	; 0x92
    f714:	e59f100c 	ldr	r1, [pc, #12]	; f728 <USBEndpointIsDirectionIn+0x24>
    f718:	e59f000c 	ldr	r0, [pc, #12]	; f72c <USBEndpointIsDirectionIn+0x28>
    f71c:	eb00285a 	bl	1988c <uspi_assertion_failed>
    f720:	e5940008 	ldr	r0, [r4, #8]
    f724:	e8bd8010 	pop	{r4, pc}
    f728:	0001bf84 	.word	0x0001bf84
    f72c:	0001b4d8 	.word	0x0001b4d8

0000f730 <USBEndpointSetMaxPacketSize>:
    f730:	e92d4070 	push	{r4, r5, r6, lr}
    f734:	e1a05001 	mov	r5, r1
    f738:	e2504000 	subs	r4, r0, #0
    f73c:	1a000003 	bne	f750 <USBEndpointSetMaxPacketSize+0x20>
    f740:	e3a02098 	mov	r2, #152	; 0x98
    f744:	e59f100c 	ldr	r1, [pc, #12]	; f758 <USBEndpointSetMaxPacketSize+0x28>
    f748:	e59f000c 	ldr	r0, [pc, #12]	; f75c <USBEndpointSetMaxPacketSize+0x2c>
    f74c:	eb00284e 	bl	1988c <uspi_assertion_failed>
    f750:	e584500c 	str	r5, [r4, #12]
    f754:	e8bd8070 	pop	{r4, r5, r6, pc}
    f758:	0001bf84 	.word	0x0001bf84
    f75c:	0001b4d8 	.word	0x0001b4d8

0000f760 <USBEndpointGetMaxPacketSize>:
    f760:	e92d4010 	push	{r4, lr}
    f764:	e2504000 	subs	r4, r0, #0
    f768:	1a000003 	bne	f77c <USBEndpointGetMaxPacketSize+0x1c>
    f76c:	e3a0209e 	mov	r2, #158	; 0x9e
    f770:	e59f100c 	ldr	r1, [pc, #12]	; f784 <USBEndpointGetMaxPacketSize+0x24>
    f774:	e59f000c 	ldr	r0, [pc, #12]	; f788 <USBEndpointGetMaxPacketSize+0x28>
    f778:	eb002843 	bl	1988c <uspi_assertion_failed>
    f77c:	e594000c 	ldr	r0, [r4, #12]
    f780:	e8bd8010 	pop	{r4, pc}
    f784:	0001bf84 	.word	0x0001bf84
    f788:	0001b4d8 	.word	0x0001b4d8

0000f78c <USBEndpointGetInterval>:
    f78c:	e92d4010 	push	{r4, lr}
    f790:	e2504000 	subs	r4, r0, #0
    f794:	1a000003 	bne	f7a8 <USBEndpointGetInterval+0x1c>
    f798:	e3a020a4 	mov	r2, #164	; 0xa4
    f79c:	e59f1028 	ldr	r1, [pc, #40]	; f7cc <USBEndpointGetInterval+0x40>
    f7a0:	e59f0028 	ldr	r0, [pc, #40]	; f7d0 <USBEndpointGetInterval+0x44>
    f7a4:	eb002838 	bl	1988c <uspi_assertion_failed>
    f7a8:	e5d43005 	ldrb	r3, [r4, #5]
    f7ac:	e3530002 	cmp	r3, #2
    f7b0:	0a000003 	beq	f7c4 <USBEndpointGetInterval+0x38>
    f7b4:	e3a020a5 	mov	r2, #165	; 0xa5
    f7b8:	e59f100c 	ldr	r1, [pc, #12]	; f7cc <USBEndpointGetInterval+0x40>
    f7bc:	e59f0010 	ldr	r0, [pc, #16]	; f7d4 <USBEndpointGetInterval+0x48>
    f7c0:	eb002831 	bl	1988c <uspi_assertion_failed>
    f7c4:	e5940010 	ldr	r0, [r4, #16]
    f7c8:	e8bd8010 	pop	{r4, pc}
    f7cc:	0001bf84 	.word	0x0001bf84
    f7d0:	0001b4d8 	.word	0x0001b4d8
    f7d4:	0001c030 	.word	0x0001c030

0000f7d8 <USBEndpointGetNextPID>:
    f7d8:	e92d4070 	push	{r4, r5, r6, lr}
    f7dc:	e1a05001 	mov	r5, r1
    f7e0:	e2504000 	subs	r4, r0, #0
    f7e4:	1a000003 	bne	f7f8 <USBEndpointGetNextPID+0x20>
    f7e8:	e3a020ac 	mov	r2, #172	; 0xac
    f7ec:	e59f1040 	ldr	r1, [pc, #64]	; f834 <USBEndpointGetNextPID+0x5c>
    f7f0:	e59f0040 	ldr	r0, [pc, #64]	; f838 <USBEndpointGetNextPID+0x60>
    f7f4:	eb002824 	bl	1988c <uspi_assertion_failed>
    f7f8:	e3550000 	cmp	r5, #0
    f7fc:	0a000008 	beq	f824 <USBEndpointGetNextPID+0x4c>
    f800:	e5d43005 	ldrb	r3, [r4, #5]
    f804:	e3530000 	cmp	r3, #0
    f808:	0a000007 	beq	f82c <USBEndpointGetNextPID+0x54>
    f80c:	e3a020af 	mov	r2, #175	; 0xaf
    f810:	e59f101c 	ldr	r1, [pc, #28]	; f834 <USBEndpointGetNextPID+0x5c>
    f814:	e59f0020 	ldr	r0, [pc, #32]	; f83c <USBEndpointGetNextPID+0x64>
    f818:	eb00281b 	bl	1988c <uspi_assertion_failed>
    f81c:	e3a00002 	mov	r0, #2
    f820:	e8bd8070 	pop	{r4, r5, r6, pc}
    f824:	e5d40014 	ldrb	r0, [r4, #20]
    f828:	e8bd8070 	pop	{r4, r5, r6, pc}
    f82c:	e3a00002 	mov	r0, #2
    f830:	e8bd8070 	pop	{r4, r5, r6, pc}
    f834:	0001bf84 	.word	0x0001bf84
    f838:	0001b4d8 	.word	0x0001b4d8
    f83c:	0001c058 	.word	0x0001c058

0000f840 <USBEndpointSkipPID>:
    f840:	e92d4070 	push	{r4, r5, r6, lr}
    f844:	e1a06001 	mov	r6, r1
    f848:	e1a05002 	mov	r5, r2
    f84c:	e2504000 	subs	r4, r0, #0
    f850:	1a000003 	bne	f864 <USBEndpointSkipPID+0x24>
    f854:	e3a020b9 	mov	r2, #185	; 0xb9
    f858:	e59f10ac 	ldr	r1, [pc, #172]	; f90c <USBEndpointSkipPID+0xcc>
    f85c:	e59f00ac 	ldr	r0, [pc, #172]	; f910 <USBEndpointSkipPID+0xd0>
    f860:	eb002809 	bl	1988c <uspi_assertion_failed>
    f864:	e5d43005 	ldrb	r3, [r4, #5]
    f868:	e3530002 	cmp	r3, #2
    f86c:	9a000003 	bls	f880 <USBEndpointSkipPID+0x40>
    f870:	e3a020bc 	mov	r2, #188	; 0xbc
    f874:	e59f1090 	ldr	r1, [pc, #144]	; f90c <USBEndpointSkipPID+0xcc>
    f878:	e59f0094 	ldr	r0, [pc, #148]	; f914 <USBEndpointSkipPID+0xd4>
    f87c:	eb002802 	bl	1988c <uspi_assertion_failed>
    f880:	e3550000 	cmp	r5, #0
    f884:	1a000016 	bne	f8e4 <USBEndpointSkipPID+0xa4>
    f888:	e5d43014 	ldrb	r3, [r4, #20]
    f88c:	e3530001 	cmp	r3, #1
    f890:	0a000006 	beq	f8b0 <USBEndpointSkipPID+0x70>
    f894:	3a000002 	bcc	f8a4 <USBEndpointSkipPID+0x64>
    f898:	e3530002 	cmp	r3, #2
    f89c:	0a000007 	beq	f8c0 <USBEndpointSkipPID+0x80>
    f8a0:	ea00000a 	b	f8d0 <USBEndpointSkipPID+0x90>
    f8a4:	e3a03002 	mov	r3, #2
    f8a8:	e5c43014 	strb	r3, [r4, #20]
    f8ac:	e8bd8070 	pop	{r4, r5, r6, pc}
    f8b0:	e3160001 	tst	r6, #1
    f8b4:	13a03002 	movne	r3, #2
    f8b8:	15c43014 	strbne	r3, [r4, #20]
    f8bc:	e8bd8070 	pop	{r4, r5, r6, pc}
    f8c0:	e3160001 	tst	r6, #1
    f8c4:	13a03001 	movne	r3, #1
    f8c8:	15c43014 	strbne	r3, [r4, #20]
    f8cc:	e8bd8070 	pop	{r4, r5, r6, pc}
    f8d0:	e3a020d5 	mov	r2, #213	; 0xd5
    f8d4:	e59f1030 	ldr	r1, [pc, #48]	; f90c <USBEndpointSkipPID+0xcc>
    f8d8:	e59f0038 	ldr	r0, [pc, #56]	; f918 <USBEndpointSkipPID+0xd8>
    f8dc:	eb0027ea 	bl	1988c <uspi_assertion_failed>
    f8e0:	e8bd8070 	pop	{r4, r5, r6, pc}
    f8e4:	e5d43005 	ldrb	r3, [r4, #5]
    f8e8:	e3530000 	cmp	r3, #0
    f8ec:	0a000003 	beq	f900 <USBEndpointSkipPID+0xc0>
    f8f0:	e3a020db 	mov	r2, #219	; 0xdb
    f8f4:	e59f1010 	ldr	r1, [pc, #16]	; f90c <USBEndpointSkipPID+0xcc>
    f8f8:	e59f001c 	ldr	r0, [pc, #28]	; f91c <USBEndpointSkipPID+0xdc>
    f8fc:	eb0027e2 	bl	1988c <uspi_assertion_failed>
    f900:	e3a03000 	mov	r3, #0
    f904:	e5c43014 	strb	r3, [r4, #20]
    f908:	e8bd8070 	pop	{r4, r5, r6, pc}
    f90c:	0001bf84 	.word	0x0001bf84
    f910:	0001b4d8 	.word	0x0001b4d8
    f914:	0001c080 	.word	0x0001c080
    f918:	0001d8fc 	.word	0x0001d8fc
    f91c:	0001c058 	.word	0x0001c058

0000f920 <USBEndpointResetPID>:
    f920:	e92d4010 	push	{r4, lr}
    f924:	e2504000 	subs	r4, r0, #0
    f928:	1a000003 	bne	f93c <USBEndpointResetPID+0x1c>
    f92c:	e3a020e3 	mov	r2, #227	; 0xe3
    f930:	e59f102c 	ldr	r1, [pc, #44]	; f964 <USBEndpointResetPID+0x44>
    f934:	e59f002c 	ldr	r0, [pc, #44]	; f968 <USBEndpointResetPID+0x48>
    f938:	eb0027d3 	bl	1988c <uspi_assertion_failed>
    f93c:	e5d43005 	ldrb	r3, [r4, #5]
    f940:	e3530001 	cmp	r3, #1
    f944:	0a000003 	beq	f958 <USBEndpointResetPID+0x38>
    f948:	e3a020e4 	mov	r2, #228	; 0xe4
    f94c:	e59f1010 	ldr	r1, [pc, #16]	; f964 <USBEndpointResetPID+0x44>
    f950:	e59f0014 	ldr	r0, [pc, #20]	; f96c <USBEndpointResetPID+0x4c>
    f954:	eb0027cc 	bl	1988c <uspi_assertion_failed>
    f958:	e3a03001 	mov	r3, #1
    f95c:	e5c43014 	strb	r3, [r4, #20]
    f960:	e8bd8010 	pop	{r4, pc}
    f964:	0001bf84 	.word	0x0001bf84
    f968:	0001b4d8 	.word	0x0001b4d8
    f96c:	0001c0f4 	.word	0x0001c0f4

0000f970 <USBRequest>:
    f970:	e92d41f0 	push	{r4, r5, r6, r7, r8, lr}
    f974:	e1a05001 	mov	r5, r1
    f978:	e1a07002 	mov	r7, r2
    f97c:	e1a06003 	mov	r6, r3
    f980:	e2504000 	subs	r4, r0, #0
    f984:	1a000003 	bne	f998 <USBRequest+0x28>
    f988:	e3a02019 	mov	r2, #25
    f98c:	e59f1074 	ldr	r1, [pc, #116]	; fa08 <USBRequest+0x98>
    f990:	e59f0074 	ldr	r0, [pc, #116]	; fa0c <USBRequest+0x9c>
    f994:	eb0027bc 	bl	1988c <uspi_assertion_failed>
    f998:	e5845000 	str	r5, [r4]
    f99c:	e59d3018 	ldr	r3, [sp, #24]
    f9a0:	e5843004 	str	r3, [r4, #4]
    f9a4:	e5847008 	str	r7, [r4, #8]
    f9a8:	e584600c 	str	r6, [r4, #12]
    f9ac:	e3a03000 	mov	r3, #0
    f9b0:	e5843010 	str	r3, [r4, #16]
    f9b4:	e5843014 	str	r3, [r4, #20]
    f9b8:	e5843018 	str	r3, [r4, #24]
    f9bc:	e584301c 	str	r3, [r4, #28]
    f9c0:	e5843020 	str	r3, [r4, #32]
    f9c4:	e1550003 	cmp	r5, r3
    f9c8:	1a000003 	bne	f9dc <USBRequest+0x6c>
    f9cc:	e3a02025 	mov	r2, #37	; 0x25
    f9d0:	e59f1030 	ldr	r1, [pc, #48]	; fa08 <USBRequest+0x98>
    f9d4:	e59f0034 	ldr	r0, [pc, #52]	; fa10 <USBRequest+0xa0>
    f9d8:	eb0027ab 	bl	1988c <uspi_assertion_failed>
    f9dc:	e5943008 	ldr	r3, [r4, #8]
    f9e0:	e3530000 	cmp	r3, #0
    f9e4:	18bd81f0 	popne	{r4, r5, r6, r7, r8, pc}
    f9e8:	e594300c 	ldr	r3, [r4, #12]
    f9ec:	e3530000 	cmp	r3, #0
    f9f0:	08bd81f0 	popeq	{r4, r5, r6, r7, r8, pc}
    f9f4:	e3a02026 	mov	r2, #38	; 0x26
    f9f8:	e59f1008 	ldr	r1, [pc, #8]	; fa08 <USBRequest+0x98>
    f9fc:	e59f0010 	ldr	r0, [pc, #16]	; fa14 <USBRequest+0xa4>
    fa00:	eb0027a1 	bl	1988c <uspi_assertion_failed>
    fa04:	e8bd81f0 	pop	{r4, r5, r6, r7, r8, pc}
    fa08:	0001c118 	.word	0x0001c118
    fa0c:	0001b4d8 	.word	0x0001b4d8
    fa10:	0001bb70 	.word	0x0001bb70
    fa14:	0001c128 	.word	0x0001c128

0000fa18 <_USBRequest>:
    fa18:	e92d4010 	push	{r4, lr}
    fa1c:	e2504000 	subs	r4, r0, #0
    fa20:	1a000003 	bne	fa34 <_USBRequest+0x1c>
    fa24:	e3a0202b 	mov	r2, #43	; 0x2b
    fa28:	e59f101c 	ldr	r1, [pc, #28]	; fa4c <_USBRequest+0x34>
    fa2c:	e59f001c 	ldr	r0, [pc, #28]	; fa50 <_USBRequest+0x38>
    fa30:	eb002795 	bl	1988c <uspi_assertion_failed>
    fa34:	e3a03000 	mov	r3, #0
    fa38:	e5843000 	str	r3, [r4]
    fa3c:	e5843004 	str	r3, [r4, #4]
    fa40:	e5843008 	str	r3, [r4, #8]
    fa44:	e5843018 	str	r3, [r4, #24]
    fa48:	e8bd8010 	pop	{r4, pc}
    fa4c:	0001c118 	.word	0x0001c118
    fa50:	0001b4d8 	.word	0x0001b4d8

0000fa54 <USBRequestGetEndpoint>:
    fa54:	e92d4010 	push	{r4, lr}
    fa58:	e2504000 	subs	r4, r0, #0
    fa5c:	1a000003 	bne	fa70 <USBRequestGetEndpoint+0x1c>
    fa60:	e3a02034 	mov	r2, #52	; 0x34
    fa64:	e59f1028 	ldr	r1, [pc, #40]	; fa94 <USBRequestGetEndpoint+0x40>
    fa68:	e59f0028 	ldr	r0, [pc, #40]	; fa98 <USBRequestGetEndpoint+0x44>
    fa6c:	eb002786 	bl	1988c <uspi_assertion_failed>
    fa70:	e5943000 	ldr	r3, [r4]
    fa74:	e3530000 	cmp	r3, #0
    fa78:	1a000003 	bne	fa8c <USBRequestGetEndpoint+0x38>
    fa7c:	e3a02035 	mov	r2, #53	; 0x35
    fa80:	e59f100c 	ldr	r1, [pc, #12]	; fa94 <USBRequestGetEndpoint+0x40>
    fa84:	e59f0010 	ldr	r0, [pc, #16]	; fa9c <USBRequestGetEndpoint+0x48>
    fa88:	eb00277f 	bl	1988c <uspi_assertion_failed>
    fa8c:	e5940000 	ldr	r0, [r4]
    fa90:	e8bd8010 	pop	{r4, pc}
    fa94:	0001c118 	.word	0x0001c118
    fa98:	0001b4d8 	.word	0x0001b4d8
    fa9c:	0001bb70 	.word	0x0001bb70

0000faa0 <USBRequestSetStatus>:
    faa0:	e92d4070 	push	{r4, r5, r6, lr}
    faa4:	e1a05001 	mov	r5, r1
    faa8:	e2504000 	subs	r4, r0, #0
    faac:	1a000003 	bne	fac0 <USBRequestSetStatus+0x20>
    fab0:	e3a0203b 	mov	r2, #59	; 0x3b
    fab4:	e59f100c 	ldr	r1, [pc, #12]	; fac8 <USBRequestSetStatus+0x28>
    fab8:	e59f000c 	ldr	r0, [pc, #12]	; facc <USBRequestSetStatus+0x2c>
    fabc:	eb002772 	bl	1988c <uspi_assertion_failed>
    fac0:	e5845010 	str	r5, [r4, #16]
    fac4:	e8bd8070 	pop	{r4, r5, r6, pc}
    fac8:	0001c118 	.word	0x0001c118
    facc:	0001b4d8 	.word	0x0001b4d8

0000fad0 <USBRequestSetResultLen>:
    fad0:	e92d4070 	push	{r4, r5, r6, lr}
    fad4:	e1a05001 	mov	r5, r1
    fad8:	e2504000 	subs	r4, r0, #0
    fadc:	1a000003 	bne	faf0 <USBRequestSetResultLen+0x20>
    fae0:	e3a02041 	mov	r2, #65	; 0x41
    fae4:	e59f100c 	ldr	r1, [pc, #12]	; faf8 <USBRequestSetResultLen+0x28>
    fae8:	e59f000c 	ldr	r0, [pc, #12]	; fafc <USBRequestSetResultLen+0x2c>
    faec:	eb002766 	bl	1988c <uspi_assertion_failed>
    faf0:	e5845014 	str	r5, [r4, #20]
    faf4:	e8bd8070 	pop	{r4, r5, r6, pc}
    faf8:	0001c118 	.word	0x0001c118
    fafc:	0001b4d8 	.word	0x0001b4d8

0000fb00 <USBRequestGetStatus>:
    fb00:	e92d4010 	push	{r4, lr}
    fb04:	e2504000 	subs	r4, r0, #0
    fb08:	1a000003 	bne	fb1c <USBRequestGetStatus+0x1c>
    fb0c:	e3a02047 	mov	r2, #71	; 0x47
    fb10:	e59f100c 	ldr	r1, [pc, #12]	; fb24 <USBRequestGetStatus+0x24>
    fb14:	e59f000c 	ldr	r0, [pc, #12]	; fb28 <USBRequestGetStatus+0x28>
    fb18:	eb00275b 	bl	1988c <uspi_assertion_failed>
    fb1c:	e5940010 	ldr	r0, [r4, #16]
    fb20:	e8bd8010 	pop	{r4, pc}
    fb24:	0001c118 	.word	0x0001c118
    fb28:	0001b4d8 	.word	0x0001b4d8

0000fb2c <USBRequestGetResultLength>:
    fb2c:	e92d4010 	push	{r4, lr}
    fb30:	e2504000 	subs	r4, r0, #0
    fb34:	1a000003 	bne	fb48 <USBRequestGetResultLength+0x1c>
    fb38:	e3a0204d 	mov	r2, #77	; 0x4d
    fb3c:	e59f1028 	ldr	r1, [pc, #40]	; fb6c <USBRequestGetResultLength+0x40>
    fb40:	e59f0028 	ldr	r0, [pc, #40]	; fb70 <USBRequestGetResultLength+0x44>
    fb44:	eb002750 	bl	1988c <uspi_assertion_failed>
    fb48:	e5943010 	ldr	r3, [r4, #16]
    fb4c:	e3530000 	cmp	r3, #0
    fb50:	1a000003 	bne	fb64 <USBRequestGetResultLength+0x38>
    fb54:	e3a0204e 	mov	r2, #78	; 0x4e
    fb58:	e59f100c 	ldr	r1, [pc, #12]	; fb6c <USBRequestGetResultLength+0x40>
    fb5c:	e59f0010 	ldr	r0, [pc, #16]	; fb74 <USBRequestGetResultLength+0x48>
    fb60:	eb002749 	bl	1988c <uspi_assertion_failed>
    fb64:	e5940014 	ldr	r0, [r4, #20]
    fb68:	e8bd8010 	pop	{r4, pc}
    fb6c:	0001c118 	.word	0x0001c118
    fb70:	0001b4d8 	.word	0x0001b4d8
    fb74:	0001c158 	.word	0x0001c158

0000fb78 <USBRequestGetSetupData>:
    fb78:	e92d4010 	push	{r4, lr}
    fb7c:	e2504000 	subs	r4, r0, #0
    fb80:	1a000003 	bne	fb94 <USBRequestGetSetupData+0x1c>
    fb84:	e3a02055 	mov	r2, #85	; 0x55
    fb88:	e59f1048 	ldr	r1, [pc, #72]	; fbd8 <USBRequestGetSetupData+0x60>
    fb8c:	e59f0048 	ldr	r0, [pc, #72]	; fbdc <USBRequestGetSetupData+0x64>
    fb90:	eb00273d 	bl	1988c <uspi_assertion_failed>
    fb94:	e5940000 	ldr	r0, [r4]
    fb98:	ebfffece 	bl	f6d8 <USBEndpointGetType>
    fb9c:	e3500000 	cmp	r0, #0
    fba0:	0a000003 	beq	fbb4 <USBRequestGetSetupData+0x3c>
    fba4:	e3a02056 	mov	r2, #86	; 0x56
    fba8:	e59f1028 	ldr	r1, [pc, #40]	; fbd8 <USBRequestGetSetupData+0x60>
    fbac:	e59f002c 	ldr	r0, [pc, #44]	; fbe0 <USBRequestGetSetupData+0x68>
    fbb0:	eb002735 	bl	1988c <uspi_assertion_failed>
    fbb4:	e5943004 	ldr	r3, [r4, #4]
    fbb8:	e3530000 	cmp	r3, #0
    fbbc:	1a000003 	bne	fbd0 <USBRequestGetSetupData+0x58>
    fbc0:	e3a02057 	mov	r2, #87	; 0x57
    fbc4:	e59f100c 	ldr	r1, [pc, #12]	; fbd8 <USBRequestGetSetupData+0x60>
    fbc8:	e59f0014 	ldr	r0, [pc, #20]	; fbe4 <USBRequestGetSetupData+0x6c>
    fbcc:	eb00272e 	bl	1988c <uspi_assertion_failed>
    fbd0:	e5940004 	ldr	r0, [r4, #4]
    fbd4:	e8bd8010 	pop	{r4, pc}
    fbd8:	0001c118 	.word	0x0001c118
    fbdc:	0001b4d8 	.word	0x0001b4d8
    fbe0:	0001c16c 	.word	0x0001c16c
    fbe4:	0001c1ac 	.word	0x0001c1ac

0000fbe8 <USBRequestGetBuffer>:
    fbe8:	e92d4010 	push	{r4, lr}
    fbec:	e2504000 	subs	r4, r0, #0
    fbf0:	1a000003 	bne	fc04 <USBRequestGetBuffer+0x1c>
    fbf4:	e3a0205e 	mov	r2, #94	; 0x5e
    fbf8:	e59f1034 	ldr	r1, [pc, #52]	; fc34 <USBRequestGetBuffer+0x4c>
    fbfc:	e59f0034 	ldr	r0, [pc, #52]	; fc38 <USBRequestGetBuffer+0x50>
    fc00:	eb002721 	bl	1988c <uspi_assertion_failed>
    fc04:	e5943008 	ldr	r3, [r4, #8]
    fc08:	e3530000 	cmp	r3, #0
    fc0c:	1a000006 	bne	fc2c <USBRequestGetBuffer+0x44>
    fc10:	e594300c 	ldr	r3, [r4, #12]
    fc14:	e3530000 	cmp	r3, #0
    fc18:	0a000003 	beq	fc2c <USBRequestGetBuffer+0x44>
    fc1c:	e3a02060 	mov	r2, #96	; 0x60
    fc20:	e59f100c 	ldr	r1, [pc, #12]	; fc34 <USBRequestGetBuffer+0x4c>
    fc24:	e59f0010 	ldr	r0, [pc, #16]	; fc3c <USBRequestGetBuffer+0x54>
    fc28:	eb002717 	bl	1988c <uspi_assertion_failed>
    fc2c:	e5940008 	ldr	r0, [r4, #8]
    fc30:	e8bd8010 	pop	{r4, pc}
    fc34:	0001c118 	.word	0x0001c118
    fc38:	0001b4d8 	.word	0x0001b4d8
    fc3c:	0001c128 	.word	0x0001c128

0000fc40 <USBRequestGetBufLen>:
    fc40:	e92d4010 	push	{r4, lr}
    fc44:	e2504000 	subs	r4, r0, #0
    fc48:	1a000003 	bne	fc5c <USBRequestGetBufLen+0x1c>
    fc4c:	e3a02067 	mov	r2, #103	; 0x67
    fc50:	e59f100c 	ldr	r1, [pc, #12]	; fc64 <USBRequestGetBufLen+0x24>
    fc54:	e59f000c 	ldr	r0, [pc, #12]	; fc68 <USBRequestGetBufLen+0x28>
    fc58:	eb00270b 	bl	1988c <uspi_assertion_failed>
    fc5c:	e594000c 	ldr	r0, [r4, #12]
    fc60:	e8bd8010 	pop	{r4, pc}
    fc64:	0001c118 	.word	0x0001c118
    fc68:	0001b4d8 	.word	0x0001b4d8

0000fc6c <USBRequestSetCompletionRoutine>:
    fc6c:	e92d41f0 	push	{r4, r5, r6, r7, r8, lr}
    fc70:	e1a05001 	mov	r5, r1
    fc74:	e1a07002 	mov	r7, r2
    fc78:	e1a06003 	mov	r6, r3
    fc7c:	e2504000 	subs	r4, r0, #0
    fc80:	1a000003 	bne	fc94 <USBRequestSetCompletionRoutine+0x28>
    fc84:	e3a0206d 	mov	r2, #109	; 0x6d
    fc88:	e59f102c 	ldr	r1, [pc, #44]	; fcbc <USBRequestSetCompletionRoutine+0x50>
    fc8c:	e59f002c 	ldr	r0, [pc, #44]	; fcc0 <USBRequestSetCompletionRoutine+0x54>
    fc90:	eb0026fd 	bl	1988c <uspi_assertion_failed>
    fc94:	e5845018 	str	r5, [r4, #24]
    fc98:	e584701c 	str	r7, [r4, #28]
    fc9c:	e5846020 	str	r6, [r4, #32]
    fca0:	e3550000 	cmp	r5, #0
    fca4:	18bd81f0 	popne	{r4, r5, r6, r7, r8, pc}
    fca8:	e3a02072 	mov	r2, #114	; 0x72
    fcac:	e59f1008 	ldr	r1, [pc, #8]	; fcbc <USBRequestSetCompletionRoutine+0x50>
    fcb0:	e59f000c 	ldr	r0, [pc, #12]	; fcc4 <USBRequestSetCompletionRoutine+0x58>
    fcb4:	eb0026f4 	bl	1988c <uspi_assertion_failed>
    fcb8:	e8bd81f0 	pop	{r4, r5, r6, r7, r8, pc}
    fcbc:	0001c118 	.word	0x0001c118
    fcc0:	0001b4d8 	.word	0x0001b4d8
    fcc4:	0001c1c8 	.word	0x0001c1c8

0000fcc8 <USBRequestCallCompletionRoutine>:
    fcc8:	e92d4010 	push	{r4, lr}
    fccc:	e2504000 	subs	r4, r0, #0
    fcd0:	1a000003 	bne	fce4 <USBRequestCallCompletionRoutine+0x1c>
    fcd4:	e3a02077 	mov	r2, #119	; 0x77
    fcd8:	e59f1038 	ldr	r1, [pc, #56]	; fd18 <USBRequestCallCompletionRoutine+0x50>
    fcdc:	e59f0038 	ldr	r0, [pc, #56]	; fd1c <USBRequestCallCompletionRoutine+0x54>
    fce0:	eb0026e9 	bl	1988c <uspi_assertion_failed>
    fce4:	e5943018 	ldr	r3, [r4, #24]
    fce8:	e3530000 	cmp	r3, #0
    fcec:	1a000003 	bne	fd00 <USBRequestCallCompletionRoutine+0x38>
    fcf0:	e3a02078 	mov	r2, #120	; 0x78
    fcf4:	e59f101c 	ldr	r1, [pc, #28]	; fd18 <USBRequestCallCompletionRoutine+0x50>
    fcf8:	e59f0020 	ldr	r0, [pc, #32]	; fd20 <USBRequestCallCompletionRoutine+0x58>
    fcfc:	eb0026e2 	bl	1988c <uspi_assertion_failed>
    fd00:	e5943018 	ldr	r3, [r4, #24]
    fd04:	e5942020 	ldr	r2, [r4, #32]
    fd08:	e594101c 	ldr	r1, [r4, #28]
    fd0c:	e1a00004 	mov	r0, r4
    fd10:	e12fff33 	blx	r3
    fd14:	e8bd8010 	pop	{r4, pc}
    fd18:	0001c118 	.word	0x0001c118
    fd1c:	0001b4d8 	.word	0x0001b4d8
    fd20:	0001c1c8 	.word	0x0001c1c8

0000fd24 <DeviceNameService>:
    fd24:	e92d4010 	push	{r4, lr}
    fd28:	e2504000 	subs	r4, r0, #0
    fd2c:	1a000003 	bne	fd40 <DeviceNameService+0x1c>
    fd30:	e3a0201d 	mov	r2, #29
    fd34:	e59f1038 	ldr	r1, [pc, #56]	; fd74 <DeviceNameService+0x50>
    fd38:	e59f0038 	ldr	r0, [pc, #56]	; fd78 <DeviceNameService+0x54>
    fd3c:	eb0026d2 	bl	1988c <uspi_assertion_failed>
    fd40:	e3a03000 	mov	r3, #0
    fd44:	e5843000 	str	r3, [r4]
    fd48:	e59f302c 	ldr	r3, [pc, #44]	; fd7c <DeviceNameService+0x58>
    fd4c:	e5933000 	ldr	r3, [r3]
    fd50:	e3530000 	cmp	r3, #0
    fd54:	0a000003 	beq	fd68 <DeviceNameService+0x44>
    fd58:	e3a02021 	mov	r2, #33	; 0x21
    fd5c:	e59f1010 	ldr	r1, [pc, #16]	; fd74 <DeviceNameService+0x50>
    fd60:	e59f0018 	ldr	r0, [pc, #24]	; fd80 <DeviceNameService+0x5c>
    fd64:	eb0026c8 	bl	1988c <uspi_assertion_failed>
    fd68:	e59f300c 	ldr	r3, [pc, #12]	; fd7c <DeviceNameService+0x58>
    fd6c:	e5834000 	str	r4, [r3]
    fd70:	e8bd8010 	pop	{r4, pc}
    fd74:	0001c1ec 	.word	0x0001c1ec
    fd78:	0001b4d8 	.word	0x0001b4d8
    fd7c:	00008924 	.word	0x00008924
    fd80:	0001c200 	.word	0x0001c200

0000fd84 <_DeviceNameService>:
    fd84:	e92d47f0 	push	{r4, r5, r6, r7, r8, r9, sl, lr}
    fd88:	e2504000 	subs	r4, r0, #0
    fd8c:	1a000003 	bne	fda0 <_DeviceNameService+0x1c>
    fd90:	e3a02027 	mov	r2, #39	; 0x27
    fd94:	e59f1084 	ldr	r1, [pc, #132]	; fe20 <_DeviceNameService+0x9c>
    fd98:	e59f0084 	ldr	r0, [pc, #132]	; fe24 <_DeviceNameService+0xa0>
    fd9c:	eb0026ba 	bl	1988c <uspi_assertion_failed>
    fda0:	e5943000 	ldr	r3, [r4]
    fda4:	e3530000 	cmp	r3, #0
    fda8:	0a000018 	beq	fe10 <_DeviceNameService+0x8c>
    fdac:	e59f906c 	ldr	r9, [pc, #108]	; fe20 <_DeviceNameService+0x9c>
    fdb0:	e59f8070 	ldr	r8, [pc, #112]	; fe28 <_DeviceNameService+0xa4>
    fdb4:	e3a0702d 	mov	r7, #45	; 0x2d
    fdb8:	e3a06000 	mov	r6, #0
    fdbc:	e5935000 	ldr	r5, [r3]
    fdc0:	e5933004 	ldr	r3, [r3, #4]
    fdc4:	e3530000 	cmp	r3, #0
    fdc8:	1a000003 	bne	fddc <_DeviceNameService+0x58>
    fdcc:	e1a02007 	mov	r2, r7
    fdd0:	e1a01009 	mov	r1, r9
    fdd4:	e1a00008 	mov	r0, r8
    fdd8:	eb0026ab 	bl	1988c <uspi_assertion_failed>
    fddc:	e5943000 	ldr	r3, [r4]
    fde0:	e5930004 	ldr	r0, [r3, #4]
    fde4:	eb001eea 	bl	17994 <free>
    fde8:	e5943000 	ldr	r3, [r4]
    fdec:	e5836004 	str	r6, [r3, #4]
    fdf0:	e5943000 	ldr	r3, [r4]
    fdf4:	e5836008 	str	r6, [r3, #8]
    fdf8:	e5940000 	ldr	r0, [r4]
    fdfc:	eb001ee4 	bl	17994 <free>
    fe00:	e5845000 	str	r5, [r4]
    fe04:	e1a03005 	mov	r3, r5
    fe08:	e3550000 	cmp	r5, #0
    fe0c:	1affffea 	bne	fdbc <_DeviceNameService+0x38>
    fe10:	e3a02000 	mov	r2, #0
    fe14:	e59f3010 	ldr	r3, [pc, #16]	; fe2c <_DeviceNameService+0xa8>
    fe18:	e5832000 	str	r2, [r3]
    fe1c:	e8bd87f0 	pop	{r4, r5, r6, r7, r8, r9, sl, pc}
    fe20:	0001c1ec 	.word	0x0001c1ec
    fe24:	0001b4d8 	.word	0x0001b4d8
    fe28:	0001c210 	.word	0x0001c210
    fe2c:	00008924 	.word	0x00008924

0000fe30 <DeviceNameServiceAddDevice>:
    fe30:	e92d41f0 	push	{r4, r5, r6, r7, r8, lr}
    fe34:	e1a05001 	mov	r5, r1
    fe38:	e1a07002 	mov	r7, r2
    fe3c:	e1a08003 	mov	r8, r3
    fe40:	e2506000 	subs	r6, r0, #0
    fe44:	1a000003 	bne	fe58 <DeviceNameServiceAddDevice+0x28>
    fe48:	e3a0203d 	mov	r2, #61	; 0x3d
    fe4c:	e59f10a4 	ldr	r1, [pc, #164]	; fef8 <DeviceNameServiceAddDevice+0xc8>
    fe50:	e59f00a4 	ldr	r0, [pc, #164]	; fefc <DeviceNameServiceAddDevice+0xcc>
    fe54:	eb00268c 	bl	1988c <uspi_assertion_failed>
    fe58:	e3a00010 	mov	r0, #16
    fe5c:	eb001e63 	bl	177f0 <malloc>
    fe60:	e2504000 	subs	r4, r0, #0
    fe64:	1a000003 	bne	fe78 <DeviceNameServiceAddDevice+0x48>
    fe68:	e3a02040 	mov	r2, #64	; 0x40
    fe6c:	e59f1084 	ldr	r1, [pc, #132]	; fef8 <DeviceNameServiceAddDevice+0xc8>
    fe70:	e59f0088 	ldr	r0, [pc, #136]	; ff00 <DeviceNameServiceAddDevice+0xd0>
    fe74:	eb002684 	bl	1988c <uspi_assertion_failed>
    fe78:	e3550000 	cmp	r5, #0
    fe7c:	1a000003 	bne	fe90 <DeviceNameServiceAddDevice+0x60>
    fe80:	e3a02042 	mov	r2, #66	; 0x42
    fe84:	e59f106c 	ldr	r1, [pc, #108]	; fef8 <DeviceNameServiceAddDevice+0xc8>
    fe88:	e59f0074 	ldr	r0, [pc, #116]	; ff04 <DeviceNameServiceAddDevice+0xd4>
    fe8c:	eb00267e 	bl	1988c <uspi_assertion_failed>
    fe90:	e1a00005 	mov	r0, r5
    fe94:	eb0006f8 	bl	11a7c <uspi_strlen>
    fe98:	e2800001 	add	r0, r0, #1
    fe9c:	eb001e53 	bl	177f0 <malloc>
    fea0:	e5840004 	str	r0, [r4, #4]
    fea4:	e3500000 	cmp	r0, #0
    fea8:	1a000003 	bne	febc <DeviceNameServiceAddDevice+0x8c>
    feac:	e3a02044 	mov	r2, #68	; 0x44
    feb0:	e59f1040 	ldr	r1, [pc, #64]	; fef8 <DeviceNameServiceAddDevice+0xc8>
    feb4:	e59f004c 	ldr	r0, [pc, #76]	; ff08 <DeviceNameServiceAddDevice+0xd8>
    feb8:	eb002673 	bl	1988c <uspi_assertion_failed>
    febc:	e1a01005 	mov	r1, r5
    fec0:	e5940004 	ldr	r0, [r4, #4]
    fec4:	eb00071e 	bl	11b44 <uspi_strcpy>
    fec8:	e3570000 	cmp	r7, #0
    fecc:	1a000003 	bne	fee0 <DeviceNameServiceAddDevice+0xb0>
    fed0:	e3a02047 	mov	r2, #71	; 0x47
    fed4:	e59f101c 	ldr	r1, [pc, #28]	; fef8 <DeviceNameServiceAddDevice+0xc8>
    fed8:	e59f002c 	ldr	r0, [pc, #44]	; ff0c <DeviceNameServiceAddDevice+0xdc>
    fedc:	eb00266a 	bl	1988c <uspi_assertion_failed>
    fee0:	e5847008 	str	r7, [r4, #8]
    fee4:	e584800c 	str	r8, [r4, #12]
    fee8:	e5963000 	ldr	r3, [r6]
    feec:	e5843000 	str	r3, [r4]
    fef0:	e5864000 	str	r4, [r6]
    fef4:	e8bd81f0 	pop	{r4, r5, r6, r7, r8, pc}
    fef8:	0001c1ec 	.word	0x0001c1ec
    fefc:	0001b4d8 	.word	0x0001b4d8
    ff00:	0001b4b4 	.word	0x0001b4b4
    ff04:	0001c220 	.word	0x0001c220
    ff08:	0001c22c 	.word	0x0001c22c
    ff0c:	0001bd34 	.word	0x0001bd34

0000ff10 <DeviceNameServiceGetDevice>:
    ff10:	e92d47f0 	push	{r4, r5, r6, r7, r8, r9, sl, lr}
    ff14:	e1a05001 	mov	r5, r1
    ff18:	e1a06002 	mov	r6, r2
    ff1c:	e2504000 	subs	r4, r0, #0
    ff20:	1a000003 	bne	ff34 <DeviceNameServiceGetDevice+0x24>
    ff24:	e3a02052 	mov	r2, #82	; 0x52
    ff28:	e59f10b0 	ldr	r1, [pc, #176]	; ffe0 <DeviceNameServiceGetDevice+0xd0>
    ff2c:	e59f00b0 	ldr	r0, [pc, #176]	; ffe4 <DeviceNameServiceGetDevice+0xd4>
    ff30:	eb002655 	bl	1988c <uspi_assertion_failed>
    ff34:	e3550000 	cmp	r5, #0
    ff38:	1a000003 	bne	ff4c <DeviceNameServiceGetDevice+0x3c>
    ff3c:	e3a02053 	mov	r2, #83	; 0x53
    ff40:	e59f1098 	ldr	r1, [pc, #152]	; ffe0 <DeviceNameServiceGetDevice+0xd0>
    ff44:	e59f009c 	ldr	r0, [pc, #156]	; ffe8 <DeviceNameServiceGetDevice+0xd8>
    ff48:	eb00264f 	bl	1988c <uspi_assertion_failed>
    ff4c:	e5944000 	ldr	r4, [r4]
    ff50:	e3540000 	cmp	r4, #0
    ff54:	0a00001f 	beq	ffd8 <DeviceNameServiceGetDevice+0xc8>
    ff58:	e59f9080 	ldr	r9, [pc, #128]	; ffe0 <DeviceNameServiceGetDevice+0xd0>
    ff5c:	e59f8088 	ldr	r8, [pc, #136]	; ffec <DeviceNameServiceGetDevice+0xdc>
    ff60:	e3a07058 	mov	r7, #88	; 0x58
    ff64:	e5943004 	ldr	r3, [r4, #4]
    ff68:	e3530000 	cmp	r3, #0
    ff6c:	1a000003 	bne	ff80 <DeviceNameServiceGetDevice+0x70>
    ff70:	e1a02007 	mov	r2, r7
    ff74:	e1a01009 	mov	r1, r9
    ff78:	e1a00008 	mov	r0, r8
    ff7c:	eb002642 	bl	1988c <uspi_assertion_failed>
    ff80:	e5941004 	ldr	r1, [r4, #4]
    ff84:	e1a00005 	mov	r0, r5
    ff88:	eb0006c7 	bl	11aac <uspi_strcmp>
    ff8c:	e3500000 	cmp	r0, #0
    ff90:	1a00000b 	bne	ffc4 <DeviceNameServiceGetDevice+0xb4>
    ff94:	e594300c 	ldr	r3, [r4, #12]
    ff98:	e1530006 	cmp	r3, r6
    ff9c:	1a000008 	bne	ffc4 <DeviceNameServiceGetDevice+0xb4>
    ffa0:	e5943008 	ldr	r3, [r4, #8]
    ffa4:	e3530000 	cmp	r3, #0
    ffa8:	1a000003 	bne	ffbc <DeviceNameServiceGetDevice+0xac>
    ffac:	e3a0205c 	mov	r2, #92	; 0x5c
    ffb0:	e59f1028 	ldr	r1, [pc, #40]	; ffe0 <DeviceNameServiceGetDevice+0xd0>
    ffb4:	e59f0034 	ldr	r0, [pc, #52]	; fff0 <DeviceNameServiceGetDevice+0xe0>
    ffb8:	eb002633 	bl	1988c <uspi_assertion_failed>
    ffbc:	e5940008 	ldr	r0, [r4, #8]
    ffc0:	e8bd87f0 	pop	{r4, r5, r6, r7, r8, r9, sl, pc}
    ffc4:	e5944000 	ldr	r4, [r4]
    ffc8:	e3540000 	cmp	r4, #0
    ffcc:	1affffe4 	bne	ff64 <DeviceNameServiceGetDevice+0x54>
    ffd0:	e3a00000 	mov	r0, #0
    ffd4:	e8bd87f0 	pop	{r4, r5, r6, r7, r8, r9, sl, pc}
    ffd8:	e3a00000 	mov	r0, #0
    ffdc:	e8bd87f0 	pop	{r4, r5, r6, r7, r8, r9, sl, pc}
    ffe0:	0001c1ec 	.word	0x0001c1ec
    ffe4:	0001b4d8 	.word	0x0001b4d8
    ffe8:	0001c220 	.word	0x0001c220
    ffec:	0001c22c 	.word	0x0001c22c
    fff0:	0001c240 	.word	0x0001c240

0000fff4 <DeviceNameServiceGet>:
    fff4:	e59f3034 	ldr	r3, [pc, #52]	; 10030 <DeviceNameServiceGet+0x3c>
    fff8:	e5933000 	ldr	r3, [r3]
    fffc:	e3530000 	cmp	r3, #0
   10000:	1a000007 	bne	10024 <DeviceNameServiceGet+0x30>
   10004:	e92d4010 	push	{r4, lr}
   10008:	e3a02068 	mov	r2, #104	; 0x68
   1000c:	e59f1020 	ldr	r1, [pc, #32]	; 10034 <DeviceNameServiceGet+0x40>
   10010:	e59f0020 	ldr	r0, [pc, #32]	; 10038 <DeviceNameServiceGet+0x44>
   10014:	eb00261c 	bl	1988c <uspi_assertion_failed>
   10018:	e59f3010 	ldr	r3, [pc, #16]	; 10030 <DeviceNameServiceGet+0x3c>
   1001c:	e5930000 	ldr	r0, [r3]
   10020:	e8bd8010 	pop	{r4, pc}
   10024:	e59f3004 	ldr	r3, [pc, #4]	; 10030 <DeviceNameServiceGet+0x3c>
   10028:	e5930000 	ldr	r0, [r3]
   1002c:	e12fff1e 	bx	lr
   10030:	00008924 	.word	0x00008924
   10034:	0001c1ec 	.word	0x0001c1ec
   10038:	0001c254 	.word	0x0001c254

0001003c <MACAddress>:
   1003c:	e92d4010 	push	{r4, lr}
   10040:	e2504000 	subs	r4, r0, #0
   10044:	1a000003 	bne	10058 <MACAddress+0x1c>
   10048:	e3a0201a 	mov	r2, #26
   1004c:	e59f1010 	ldr	r1, [pc, #16]	; 10064 <MACAddress+0x28>
   10050:	e59f0010 	ldr	r0, [pc, #16]	; 10068 <MACAddress+0x2c>
   10054:	eb00260c 	bl	1988c <uspi_assertion_failed>
   10058:	e3a03000 	mov	r3, #0
   1005c:	e5843000 	str	r3, [r4]
   10060:	e8bd8010 	pop	{r4, pc}
   10064:	0001c264 	.word	0x0001c264
   10068:	0001b4d8 	.word	0x0001b4d8

0001006c <_MACAddress>:
   1006c:	e92d4010 	push	{r4, lr}
   10070:	e2504000 	subs	r4, r0, #0
   10074:	1a000003 	bne	10088 <_MACAddress+0x1c>
   10078:	e3a02028 	mov	r2, #40	; 0x28
   1007c:	e59f1010 	ldr	r1, [pc, #16]	; 10094 <_MACAddress+0x28>
   10080:	e59f0010 	ldr	r0, [pc, #16]	; 10098 <_MACAddress+0x2c>
   10084:	eb002600 	bl	1988c <uspi_assertion_failed>
   10088:	e3a03000 	mov	r3, #0
   1008c:	e5843000 	str	r3, [r4]
   10090:	e8bd8010 	pop	{r4, pc}
   10094:	0001c264 	.word	0x0001c264
   10098:	0001b4d8 	.word	0x0001b4d8

0001009c <MACAddressSet>:
   1009c:	e92d4070 	push	{r4, r5, r6, lr}
   100a0:	e1a05001 	mov	r5, r1
   100a4:	e2504000 	subs	r4, r0, #0
   100a8:	1a000003 	bne	100bc <MACAddressSet+0x20>
   100ac:	e3a02037 	mov	r2, #55	; 0x37
   100b0:	e59f1038 	ldr	r1, [pc, #56]	; 100f0 <MACAddressSet+0x54>
   100b4:	e59f0038 	ldr	r0, [pc, #56]	; 100f4 <MACAddressSet+0x58>
   100b8:	eb0025f3 	bl	1988c <uspi_assertion_failed>
   100bc:	e3550000 	cmp	r5, #0
   100c0:	1a000003 	bne	100d4 <MACAddressSet+0x38>
   100c4:	e3a02038 	mov	r2, #56	; 0x38
   100c8:	e59f1020 	ldr	r1, [pc, #32]	; 100f0 <MACAddressSet+0x54>
   100cc:	e59f0024 	ldr	r0, [pc, #36]	; 100f8 <MACAddressSet+0x5c>
   100d0:	eb0025ed 	bl	1988c <uspi_assertion_failed>
   100d4:	e3a02006 	mov	r2, #6
   100d8:	e1a01005 	mov	r1, r5
   100dc:	e2840004 	add	r0, r4, #4
   100e0:	eb00063e 	bl	119e0 <uspi_memcpy>
   100e4:	e3a03001 	mov	r3, #1
   100e8:	e5843000 	str	r3, [r4]
   100ec:	e8bd8070 	pop	{r4, r5, r6, pc}
   100f0:	0001c264 	.word	0x0001c264
   100f4:	0001b4d8 	.word	0x0001b4d8
   100f8:	0001c274 	.word	0x0001c274

000100fc <MACAddress2>:
   100fc:	e92d4070 	push	{r4, r5, r6, lr}
   10100:	e1a05001 	mov	r5, r1
   10104:	e2504000 	subs	r4, r0, #0
   10108:	1a000003 	bne	1011c <MACAddress2+0x20>
   1010c:	e3a02021 	mov	r2, #33	; 0x21
   10110:	e59f1014 	ldr	r1, [pc, #20]	; 1012c <MACAddress2+0x30>
   10114:	e59f0014 	ldr	r0, [pc, #20]	; 10130 <MACAddress2+0x34>
   10118:	eb0025db 	bl	1988c <uspi_assertion_failed>
   1011c:	e1a01005 	mov	r1, r5
   10120:	e1a00004 	mov	r0, r4
   10124:	ebffffdc 	bl	1009c <MACAddressSet>
   10128:	e8bd8070 	pop	{r4, r5, r6, pc}
   1012c:	0001c264 	.word	0x0001c264
   10130:	0001b4d8 	.word	0x0001b4d8

00010134 <MACAddressSetBroadcast>:
   10134:	e92d4010 	push	{r4, lr}
   10138:	e2504000 	subs	r4, r0, #0
   1013c:	1a000003 	bne	10150 <MACAddressSetBroadcast+0x1c>
   10140:	e3a02040 	mov	r2, #64	; 0x40
   10144:	e59f1020 	ldr	r1, [pc, #32]	; 1016c <MACAddressSetBroadcast+0x38>
   10148:	e59f0020 	ldr	r0, [pc, #32]	; 10170 <MACAddressSetBroadcast+0x3c>
   1014c:	eb0025ce 	bl	1988c <uspi_assertion_failed>
   10150:	e3a02006 	mov	r2, #6
   10154:	e3a010ff 	mov	r1, #255	; 0xff
   10158:	e2840004 	add	r0, r4, #4
   1015c:	eb000617 	bl	119c0 <uspi_memset>
   10160:	e3a03001 	mov	r3, #1
   10164:	e5843000 	str	r3, [r4]
   10168:	e8bd8010 	pop	{r4, pc}
   1016c:	0001c264 	.word	0x0001c264
   10170:	0001b4d8 	.word	0x0001b4d8

00010174 <MACAddressGet>:
   10174:	e92d4010 	push	{r4, lr}
   10178:	e2504000 	subs	r4, r0, #0
   1017c:	1a000003 	bne	10190 <MACAddressGet+0x1c>
   10180:	e3a02048 	mov	r2, #72	; 0x48
   10184:	e59f1028 	ldr	r1, [pc, #40]	; 101b4 <MACAddressGet+0x40>
   10188:	e59f0028 	ldr	r0, [pc, #40]	; 101b8 <MACAddressGet+0x44>
   1018c:	eb0025be 	bl	1988c <uspi_assertion_failed>
   10190:	e5943000 	ldr	r3, [r4]
   10194:	e3530000 	cmp	r3, #0
   10198:	1a000003 	bne	101ac <MACAddressGet+0x38>
   1019c:	e3a02049 	mov	r2, #73	; 0x49
   101a0:	e59f100c 	ldr	r1, [pc, #12]	; 101b4 <MACAddressGet+0x40>
   101a4:	e59f0010 	ldr	r0, [pc, #16]	; 101bc <MACAddressGet+0x48>
   101a8:	eb0025b7 	bl	1988c <uspi_assertion_failed>
   101ac:	e2840004 	add	r0, r4, #4
   101b0:	e8bd8010 	pop	{r4, pc}
   101b4:	0001c264 	.word	0x0001c264
   101b8:	0001b4d8 	.word	0x0001b4d8
   101bc:	0001ba60 	.word	0x0001ba60

000101c0 <MACAddressIsEqual>:
   101c0:	e92d4070 	push	{r4, r5, r6, lr}
   101c4:	e1a05001 	mov	r5, r1
   101c8:	e2504000 	subs	r4, r0, #0
   101cc:	1a000003 	bne	101e0 <MACAddressIsEqual+0x20>
   101d0:	e3a0202f 	mov	r2, #47	; 0x2f
   101d4:	e59f1044 	ldr	r1, [pc, #68]	; 10220 <MACAddressIsEqual+0x60>
   101d8:	e59f0044 	ldr	r0, [pc, #68]	; 10224 <MACAddressIsEqual+0x64>
   101dc:	eb0025aa 	bl	1988c <uspi_assertion_failed>
   101e0:	e5943000 	ldr	r3, [r4]
   101e4:	e3530000 	cmp	r3, #0
   101e8:	1a000003 	bne	101fc <MACAddressIsEqual+0x3c>
   101ec:	e3a02030 	mov	r2, #48	; 0x30
   101f0:	e59f1028 	ldr	r1, [pc, #40]	; 10220 <MACAddressIsEqual+0x60>
   101f4:	e59f002c 	ldr	r0, [pc, #44]	; 10228 <MACAddressIsEqual+0x68>
   101f8:	eb0025a3 	bl	1988c <uspi_assertion_failed>
   101fc:	e1a00005 	mov	r0, r5
   10200:	ebffffdb 	bl	10174 <MACAddressGet>
   10204:	e3a02006 	mov	r2, #6
   10208:	e1a01000 	mov	r1, r0
   1020c:	e2840004 	add	r0, r4, #4
   10210:	eb0005fb 	bl	11a04 <uspi_memcmp>
   10214:	e16f0f10 	clz	r0, r0
   10218:	e1a002a0 	lsr	r0, r0, #5
   1021c:	e8bd8070 	pop	{r4, r5, r6, pc}
   10220:	0001c264 	.word	0x0001c264
   10224:	0001b4d8 	.word	0x0001b4d8
   10228:	0001ba60 	.word	0x0001ba60

0001022c <MACAddressCopyTo>:
   1022c:	e92d4070 	push	{r4, r5, r6, lr}
   10230:	e1a04001 	mov	r4, r1
   10234:	e2505000 	subs	r5, r0, #0
   10238:	1a000003 	bne	1024c <MACAddressCopyTo+0x20>
   1023c:	e3a02050 	mov	r2, #80	; 0x50
   10240:	e59f104c 	ldr	r1, [pc, #76]	; 10294 <MACAddressCopyTo+0x68>
   10244:	e59f004c 	ldr	r0, [pc, #76]	; 10298 <MACAddressCopyTo+0x6c>
   10248:	eb00258f 	bl	1988c <uspi_assertion_failed>
   1024c:	e5953000 	ldr	r3, [r5]
   10250:	e3530000 	cmp	r3, #0
   10254:	1a000003 	bne	10268 <MACAddressCopyTo+0x3c>
   10258:	e3a02051 	mov	r2, #81	; 0x51
   1025c:	e59f1030 	ldr	r1, [pc, #48]	; 10294 <MACAddressCopyTo+0x68>
   10260:	e59f0034 	ldr	r0, [pc, #52]	; 1029c <MACAddressCopyTo+0x70>
   10264:	eb002588 	bl	1988c <uspi_assertion_failed>
   10268:	e3540000 	cmp	r4, #0
   1026c:	1a000003 	bne	10280 <MACAddressCopyTo+0x54>
   10270:	e3a02052 	mov	r2, #82	; 0x52
   10274:	e59f1018 	ldr	r1, [pc, #24]	; 10294 <MACAddressCopyTo+0x68>
   10278:	e59f0020 	ldr	r0, [pc, #32]	; 102a0 <MACAddressCopyTo+0x74>
   1027c:	eb002582 	bl	1988c <uspi_assertion_failed>
   10280:	e3a02006 	mov	r2, #6
   10284:	e2851004 	add	r1, r5, #4
   10288:	e1a00004 	mov	r0, r4
   1028c:	eb0005d3 	bl	119e0 <uspi_memcpy>
   10290:	e8bd8070 	pop	{r4, r5, r6, pc}
   10294:	0001c264 	.word	0x0001c264
   10298:	0001b4d8 	.word	0x0001b4d8
   1029c:	0001ba60 	.word	0x0001ba60
   102a0:	0001c564 	.word	0x0001c564

000102a4 <MACAddressIsBroadcast>:
   102a4:	e92d4010 	push	{r4, lr}
   102a8:	e2504000 	subs	r4, r0, #0
   102ac:	1a000003 	bne	102c0 <MACAddressIsBroadcast+0x1c>
   102b0:	e3a02059 	mov	r2, #89	; 0x59
   102b4:	e59f1060 	ldr	r1, [pc, #96]	; 1031c <MACAddressIsBroadcast+0x78>
   102b8:	e59f0060 	ldr	r0, [pc, #96]	; 10320 <MACAddressIsBroadcast+0x7c>
   102bc:	eb002572 	bl	1988c <uspi_assertion_failed>
   102c0:	e5943000 	ldr	r3, [r4]
   102c4:	e3530000 	cmp	r3, #0
   102c8:	1a000003 	bne	102dc <MACAddressIsBroadcast+0x38>
   102cc:	e3a0205a 	mov	r2, #90	; 0x5a
   102d0:	e59f1044 	ldr	r1, [pc, #68]	; 1031c <MACAddressIsBroadcast+0x78>
   102d4:	e59f0048 	ldr	r0, [pc, #72]	; 10324 <MACAddressIsBroadcast+0x80>
   102d8:	eb00256b 	bl	1988c <uspi_assertion_failed>
   102dc:	e5d43004 	ldrb	r3, [r4, #4]
   102e0:	e35300ff 	cmp	r3, #255	; 0xff
   102e4:	1a000008 	bne	1030c <MACAddressIsBroadcast+0x68>
   102e8:	e2843004 	add	r3, r4, #4
   102ec:	e2844009 	add	r4, r4, #9
   102f0:	e5f32001 	ldrb	r2, [r3, #1]!
   102f4:	e35200ff 	cmp	r2, #255	; 0xff
   102f8:	1a000005 	bne	10314 <MACAddressIsBroadcast+0x70>
   102fc:	e1530004 	cmp	r3, r4
   10300:	1afffffa 	bne	102f0 <MACAddressIsBroadcast+0x4c>
   10304:	e3a00001 	mov	r0, #1
   10308:	e8bd8010 	pop	{r4, pc}
   1030c:	e3a00000 	mov	r0, #0
   10310:	e8bd8010 	pop	{r4, pc}
   10314:	e3a00000 	mov	r0, #0
   10318:	e8bd8010 	pop	{r4, pc}
   1031c:	0001c264 	.word	0x0001c264
   10320:	0001b4d8 	.word	0x0001b4d8
   10324:	0001ba60 	.word	0x0001ba60

00010328 <MACAddressGetSize>:
   10328:	e3a00006 	mov	r0, #6
   1032c:	e12fff1e 	bx	lr

00010330 <MACAddressFormat>:
   10330:	e92d4030 	push	{r4, r5, lr}
   10334:	e24dd014 	sub	sp, sp, #20
   10338:	e1a05001 	mov	r5, r1
   1033c:	e2504000 	subs	r4, r0, #0
   10340:	1a000003 	bne	10354 <MACAddressFormat+0x24>
   10344:	e3a0206e 	mov	r2, #110	; 0x6e
   10348:	e59f1074 	ldr	r1, [pc, #116]	; 103c4 <MACAddressFormat+0x94>
   1034c:	e59f0074 	ldr	r0, [pc, #116]	; 103c8 <MACAddressFormat+0x98>
   10350:	eb00254d 	bl	1988c <uspi_assertion_failed>
   10354:	e5943000 	ldr	r3, [r4]
   10358:	e3530000 	cmp	r3, #0
   1035c:	1a000003 	bne	10370 <MACAddressFormat+0x40>
   10360:	e3a0206f 	mov	r2, #111	; 0x6f
   10364:	e59f1058 	ldr	r1, [pc, #88]	; 103c4 <MACAddressFormat+0x94>
   10368:	e59f005c 	ldr	r0, [pc, #92]	; 103cc <MACAddressFormat+0x9c>
   1036c:	eb002546 	bl	1988c <uspi_assertion_failed>
   10370:	e3550000 	cmp	r5, #0
   10374:	1a000003 	bne	10388 <MACAddressFormat+0x58>
   10378:	e3a02071 	mov	r2, #113	; 0x71
   1037c:	e59f1040 	ldr	r1, [pc, #64]	; 103c4 <MACAddressFormat+0x94>
   10380:	e59f0048 	ldr	r0, [pc, #72]	; 103d0 <MACAddressFormat+0xa0>
   10384:	eb002540 	bl	1988c <uspi_assertion_failed>
   10388:	e5d43005 	ldrb	r3, [r4, #5]
   1038c:	e5d42004 	ldrb	r2, [r4, #4]
   10390:	e5d41009 	ldrb	r1, [r4, #9]
   10394:	e58d100c 	str	r1, [sp, #12]
   10398:	e5d41008 	ldrb	r1, [r4, #8]
   1039c:	e58d1008 	str	r1, [sp, #8]
   103a0:	e5d41007 	ldrb	r1, [r4, #7]
   103a4:	e58d1004 	str	r1, [sp, #4]
   103a8:	e5d41006 	ldrb	r1, [r4, #6]
   103ac:	e58d1000 	str	r1, [sp]
   103b0:	e59f101c 	ldr	r1, [pc, #28]	; 103d4 <MACAddressFormat+0xa4>
   103b4:	e1a00005 	mov	r0, r5
   103b8:	eb00056c 	bl	11970 <StringFormat>
   103bc:	e28dd014 	add	sp, sp, #20
   103c0:	e8bd8030 	pop	{r4, r5, pc}
   103c4:	0001c264 	.word	0x0001c264
   103c8:	0001b4d8 	.word	0x0001b4d8
   103cc:	0001ba60 	.word	0x0001ba60
   103d0:	0001bdc0 	.word	0x0001bdc0
   103d4:	0001c284 	.word	0x0001c284

000103d8 <SMSC951xDevice>:
   103d8:	e92d4070 	push	{r4, r5, r6, lr}
   103dc:	e1a05001 	mov	r5, r1
   103e0:	e2504000 	subs	r4, r0, #0
   103e4:	1a000003 	bne	103f8 <SMSC951xDevice+0x20>
   103e8:	e3a02088 	mov	r2, #136	; 0x88
   103ec:	e59f1050 	ldr	r1, [pc, #80]	; 10444 <SMSC951xDevice+0x6c>
   103f0:	e59f0050 	ldr	r0, [pc, #80]	; 10448 <SMSC951xDevice+0x70>
   103f4:	eb002524 	bl	1988c <uspi_assertion_failed>
   103f8:	e1a01005 	mov	r1, r5
   103fc:	e1a00004 	mov	r0, r4
   10400:	ebfff8dc 	bl	e778 <USBDeviceCopy>
   10404:	e59f3040 	ldr	r3, [pc, #64]	; 1044c <SMSC951xDevice+0x74>
   10408:	e5843000 	str	r3, [r4]
   1040c:	e3a03000 	mov	r3, #0
   10410:	e5843038 	str	r3, [r4, #56]	; 0x38
   10414:	e584303c 	str	r3, [r4, #60]	; 0x3c
   10418:	e584304c 	str	r3, [r4, #76]	; 0x4c
   1041c:	e3a00d19 	mov	r0, #1600	; 0x640
   10420:	eb001cf2 	bl	177f0 <malloc>
   10424:	e584004c 	str	r0, [r4, #76]	; 0x4c
   10428:	e3500000 	cmp	r0, #0
   1042c:	18bd8070 	popne	{r4, r5, r6, pc}
   10430:	e3a02092 	mov	r2, #146	; 0x92
   10434:	e59f1008 	ldr	r1, [pc, #8]	; 10444 <SMSC951xDevice+0x6c>
   10438:	e59f0010 	ldr	r0, [pc, #16]	; 10450 <SMSC951xDevice+0x78>
   1043c:	eb002512 	bl	1988c <uspi_assertion_failed>
   10440:	e8bd8070 	pop	{r4, r5, r6, pc}
   10444:	0001c2b0 	.word	0x0001c2b0
   10448:	0001b4d8 	.word	0x0001b4d8
   1044c:	0001085c 	.word	0x0001085c
   10450:	0001c2bc 	.word	0x0001c2bc

00010454 <_SMSC951xDevice>:
   10454:	e92d4010 	push	{r4, lr}
   10458:	e2504000 	subs	r4, r0, #0
   1045c:	1a000003 	bne	10470 <_SMSC951xDevice+0x1c>
   10460:	e3a02097 	mov	r2, #151	; 0x97
   10464:	e59f1068 	ldr	r1, [pc, #104]	; 104d4 <_SMSC951xDevice+0x80>
   10468:	e59f0068 	ldr	r0, [pc, #104]	; 104d8 <_SMSC951xDevice+0x84>
   1046c:	eb002506 	bl	1988c <uspi_assertion_failed>
   10470:	e594004c 	ldr	r0, [r4, #76]	; 0x4c
   10474:	e3500000 	cmp	r0, #0
   10478:	0a000002 	beq	10488 <_SMSC951xDevice+0x34>
   1047c:	eb001d44 	bl	17994 <free>
   10480:	e3a03000 	mov	r3, #0
   10484:	e584304c 	str	r3, [r4, #76]	; 0x4c
   10488:	e594003c 	ldr	r0, [r4, #60]	; 0x3c
   1048c:	e3500000 	cmp	r0, #0
   10490:	0a000004 	beq	104a8 <_SMSC951xDevice+0x54>
   10494:	ebfffc65 	bl	f630 <_USBEndpoint>
   10498:	e594003c 	ldr	r0, [r4, #60]	; 0x3c
   1049c:	eb001d3c 	bl	17994 <free>
   104a0:	e3a03000 	mov	r3, #0
   104a4:	e584303c 	str	r3, [r4, #60]	; 0x3c
   104a8:	e5940038 	ldr	r0, [r4, #56]	; 0x38
   104ac:	e3500000 	cmp	r0, #0
   104b0:	0a000004 	beq	104c8 <_SMSC951xDevice+0x74>
   104b4:	ebfffc5d 	bl	f630 <_USBEndpoint>
   104b8:	e5940038 	ldr	r0, [r4, #56]	; 0x38
   104bc:	eb001d34 	bl	17994 <free>
   104c0:	e3a03000 	mov	r3, #0
   104c4:	e5843038 	str	r3, [r4, #56]	; 0x38
   104c8:	e1a00004 	mov	r0, r4
   104cc:	ebfff91d 	bl	e948 <_USBDevice>
   104d0:	e8bd8010 	pop	{r4, pc}
   104d4:	0001c2b0 	.word	0x0001c2b0
   104d8:	0001b4d8 	.word	0x0001b4d8

000104dc <SMSC951xDeviceGetMACAddress>:
   104dc:	e92d4010 	push	{r4, lr}
   104e0:	e2504000 	subs	r4, r0, #0
   104e4:	1a000003 	bne	104f8 <SMSC951xDeviceGetMACAddress+0x1c>
   104e8:	e59f2010 	ldr	r2, [pc, #16]	; 10500 <SMSC951xDeviceGetMACAddress+0x24>
   104ec:	e59f1010 	ldr	r1, [pc, #16]	; 10504 <SMSC951xDeviceGetMACAddress+0x28>
   104f0:	e59f0010 	ldr	r0, [pc, #16]	; 10508 <SMSC951xDeviceGetMACAddress+0x2c>
   104f4:	eb0024e4 	bl	1988c <uspi_assertion_failed>
   104f8:	e2840040 	add	r0, r4, #64	; 0x40
   104fc:	e8bd8010 	pop	{r4, pc}
   10500:	00000149 	.word	0x00000149
   10504:	0001c2b0 	.word	0x0001c2b0
   10508:	0001b4d8 	.word	0x0001b4d8

0001050c <SMSC951xDeviceSendFrame>:
   1050c:	e92d4070 	push	{r4, r5, r6, lr}
   10510:	e1a06001 	mov	r6, r1
   10514:	e1a05002 	mov	r5, r2
   10518:	e2504000 	subs	r4, r0, #0
   1051c:	1a000003 	bne	10530 <SMSC951xDeviceSendFrame+0x24>
   10520:	e3a02e15 	mov	r2, #336	; 0x150
   10524:	e59f10b4 	ldr	r1, [pc, #180]	; 105e0 <SMSC951xDeviceSendFrame+0xd4>
   10528:	e59f00b4 	ldr	r0, [pc, #180]	; 105e4 <SMSC951xDeviceSendFrame+0xd8>
   1052c:	eb0024d6 	bl	1988c <uspi_assertion_failed>
   10530:	e59f30b0 	ldr	r3, [pc, #176]	; 105e8 <SMSC951xDeviceSendFrame+0xdc>
   10534:	e1550003 	cmp	r5, r3
   10538:	8a000026 	bhi	105d8 <SMSC951xDeviceSendFrame+0xcc>
   1053c:	e594304c 	ldr	r3, [r4, #76]	; 0x4c
   10540:	e3530000 	cmp	r3, #0
   10544:	1a000003 	bne	10558 <SMSC951xDeviceSendFrame+0x4c>
   10548:	e59f209c 	ldr	r2, [pc, #156]	; 105ec <SMSC951xDeviceSendFrame+0xe0>
   1054c:	e59f108c 	ldr	r1, [pc, #140]	; 105e0 <SMSC951xDeviceSendFrame+0xd4>
   10550:	e59f0098 	ldr	r0, [pc, #152]	; 105f0 <SMSC951xDeviceSendFrame+0xe4>
   10554:	eb0024cc 	bl	1988c <uspi_assertion_failed>
   10558:	e3560000 	cmp	r6, #0
   1055c:	1a000003 	bne	10570 <SMSC951xDeviceSendFrame+0x64>
   10560:	e3a02f56 	mov	r2, #344	; 0x158
   10564:	e59f1074 	ldr	r1, [pc, #116]	; 105e0 <SMSC951xDeviceSendFrame+0xd4>
   10568:	e59f0084 	ldr	r0, [pc, #132]	; 105f4 <SMSC951xDeviceSendFrame+0xe8>
   1056c:	eb0024c6 	bl	1988c <uspi_assertion_failed>
   10570:	e594004c 	ldr	r0, [r4, #76]	; 0x4c
   10574:	e1a02005 	mov	r2, r5
   10578:	e1a01006 	mov	r1, r6
   1057c:	e2800008 	add	r0, r0, #8
   10580:	eb000516 	bl	119e0 <uspi_memcpy>
   10584:	e594304c 	ldr	r3, [r4, #76]	; 0x4c
   10588:	e3852a03 	orr	r2, r5, #12288	; 0x3000
   1058c:	e5832000 	str	r2, [r3]
   10590:	e594304c 	ldr	r3, [r4, #76]	; 0x4c
   10594:	e5835004 	str	r5, [r3, #4]
   10598:	e594303c 	ldr	r3, [r4, #60]	; 0x3c
   1059c:	e3530000 	cmp	r3, #0
   105a0:	1a000003 	bne	105b4 <SMSC951xDeviceSendFrame+0xa8>
   105a4:	e59f204c 	ldr	r2, [pc, #76]	; 105f8 <SMSC951xDeviceSendFrame+0xec>
   105a8:	e59f1030 	ldr	r1, [pc, #48]	; 105e0 <SMSC951xDeviceSendFrame+0xd4>
   105ac:	e59f0048 	ldr	r0, [pc, #72]	; 105fc <SMSC951xDeviceSendFrame+0xf0>
   105b0:	eb0024b5 	bl	1988c <uspi_assertion_failed>
   105b4:	e1a00004 	mov	r0, r4
   105b8:	ebfff9c4 	bl	ecd0 <USBDeviceGetHost>
   105bc:	e2853008 	add	r3, r5, #8
   105c0:	e594204c 	ldr	r2, [r4, #76]	; 0x4c
   105c4:	e594103c 	ldr	r1, [r4, #60]	; 0x3c
   105c8:	ebffedeb 	bl	bd7c <DWHCIDeviceTransfer>
   105cc:	e1e00000 	mvn	r0, r0
   105d0:	e1a00fa0 	lsr	r0, r0, #31
   105d4:	e8bd8070 	pop	{r4, r5, r6, pc}
   105d8:	e3a00000 	mov	r0, #0
   105dc:	e8bd8070 	pop	{r4, r5, r6, pc}
   105e0:	0001c2b0 	.word	0x0001c2b0
   105e4:	0001b4d8 	.word	0x0001b4d8
   105e8:	00000637 	.word	0x00000637
   105ec:	00000157 	.word	0x00000157
   105f0:	0001c2bc 	.word	0x0001c2bc
   105f4:	0001c564 	.word	0x0001c564
   105f8:	0000015e 	.word	0x0000015e
   105fc:	0001c2d4 	.word	0x0001c2d4

00010600 <SMSC951xDeviceReceiveFrame>:
   10600:	e92d4070 	push	{r4, r5, r6, lr}
   10604:	e24dd030 	sub	sp, sp, #48	; 0x30
   10608:	e1a04001 	mov	r4, r1
   1060c:	e1a06002 	mov	r6, r2
   10610:	e2505000 	subs	r5, r0, #0
   10614:	1a000003 	bne	10628 <SMSC951xDeviceReceiveFrame+0x28>
   10618:	e3a02f59 	mov	r2, #356	; 0x164
   1061c:	e59f116c 	ldr	r1, [pc, #364]	; 10790 <SMSC951xDeviceReceiveFrame+0x190>
   10620:	e59f016c 	ldr	r0, [pc, #364]	; 10794 <SMSC951xDeviceReceiveFrame+0x194>
   10624:	eb002498 	bl	1988c <uspi_assertion_failed>
   10628:	e5953038 	ldr	r3, [r5, #56]	; 0x38
   1062c:	e3530000 	cmp	r3, #0
   10630:	1a000003 	bne	10644 <SMSC951xDeviceReceiveFrame+0x44>
   10634:	e59f215c 	ldr	r2, [pc, #348]	; 10798 <SMSC951xDeviceReceiveFrame+0x198>
   10638:	e59f1150 	ldr	r1, [pc, #336]	; 10790 <SMSC951xDeviceReceiveFrame+0x190>
   1063c:	e59f0158 	ldr	r0, [pc, #344]	; 1079c <SMSC951xDeviceReceiveFrame+0x19c>
   10640:	eb002491 	bl	1988c <uspi_assertion_failed>
   10644:	e3540000 	cmp	r4, #0
   10648:	1a000003 	bne	1065c <SMSC951xDeviceReceiveFrame+0x5c>
   1064c:	e59f214c 	ldr	r2, [pc, #332]	; 107a0 <SMSC951xDeviceReceiveFrame+0x1a0>
   10650:	e59f1138 	ldr	r1, [pc, #312]	; 10790 <SMSC951xDeviceReceiveFrame+0x190>
   10654:	e59f0148 	ldr	r0, [pc, #328]	; 107a4 <SMSC951xDeviceReceiveFrame+0x1a4>
   10658:	eb00248b 	bl	1988c <uspi_assertion_failed>
   1065c:	e5951038 	ldr	r1, [r5, #56]	; 0x38
   10660:	e3a03000 	mov	r3, #0
   10664:	e58d3000 	str	r3, [sp]
   10668:	e3a03d19 	mov	r3, #1600	; 0x640
   1066c:	e1a02004 	mov	r2, r4
   10670:	e28d000c 	add	r0, sp, #12
   10674:	ebfffcbd 	bl	f970 <USBRequest>
   10678:	e1a00005 	mov	r0, r5
   1067c:	ebfff993 	bl	ecd0 <USBDeviceGetHost>
   10680:	e28d100c 	add	r1, sp, #12
   10684:	ebffec91 	bl	b8d0 <DWHCIDeviceSubmitBlockingRequest>
   10688:	e2505000 	subs	r5, r0, #0
   1068c:	1a000002 	bne	1069c <SMSC951xDeviceReceiveFrame+0x9c>
   10690:	e28d000c 	add	r0, sp, #12
   10694:	ebfffcdf 	bl	fa18 <_USBRequest>
   10698:	ea000039 	b	10784 <SMSC951xDeviceReceiveFrame+0x184>
   1069c:	e28d000c 	add	r0, sp, #12
   106a0:	ebfffd21 	bl	fb2c <USBRequestGetResultLength>
   106a4:	e3500003 	cmp	r0, #3
   106a8:	8a000003 	bhi	106bc <SMSC951xDeviceReceiveFrame+0xbc>
   106ac:	e28d000c 	add	r0, sp, #12
   106b0:	ebfffcd8 	bl	fa18 <_USBRequest>
   106b4:	e3a05000 	mov	r5, #0
   106b8:	ea000031 	b	10784 <SMSC951xDeviceReceiveFrame+0x184>
   106bc:	e5943000 	ldr	r3, [r4]
   106c0:	e59f20e0 	ldr	r2, [pc, #224]	; 107a8 <SMSC951xDeviceReceiveFrame+0x1a8>
   106c4:	e0022003 	and	r2, r2, r3
   106c8:	e3520000 	cmp	r2, #0
   106cc:	0a000007 	beq	106f0 <SMSC951xDeviceReceiveFrame+0xf0>
   106d0:	e59f20d4 	ldr	r2, [pc, #212]	; 107ac <SMSC951xDeviceReceiveFrame+0x1ac>
   106d4:	e3a01002 	mov	r1, #2
   106d8:	e59f00d0 	ldr	r0, [pc, #208]	; 107b0 <SMSC951xDeviceReceiveFrame+0x1b0>
   106dc:	eb002458 	bl	19844 <LogWrite>
   106e0:	e28d000c 	add	r0, sp, #12
   106e4:	ebfffccb 	bl	fa18 <_USBRequest>
   106e8:	e3a05000 	mov	r5, #0
   106ec:	ea000024 	b	10784 <SMSC951xDeviceReceiveFrame+0x184>
   106f0:	e59f20bc 	ldr	r2, [pc, #188]	; 107b4 <SMSC951xDeviceReceiveFrame+0x1b4>
   106f4:	e0022003 	and	r2, r2, r3
   106f8:	e1a05822 	lsr	r5, r2, #16
   106fc:	e2400004 	sub	r0, r0, #4
   10700:	e1550000 	cmp	r5, r0
   10704:	0a000003 	beq	10718 <SMSC951xDeviceReceiveFrame+0x118>
   10708:	e59f20a8 	ldr	r2, [pc, #168]	; 107b8 <SMSC951xDeviceReceiveFrame+0x1b8>
   1070c:	e59f107c 	ldr	r1, [pc, #124]	; 10790 <SMSC951xDeviceReceiveFrame+0x190>
   10710:	e59f00a4 	ldr	r0, [pc, #164]	; 107bc <SMSC951xDeviceReceiveFrame+0x1bc>
   10714:	eb00245c 	bl	1988c <uspi_assertion_failed>
   10718:	e3550004 	cmp	r5, #4
   1071c:	8a000010 	bhi	10764 <SMSC951xDeviceReceiveFrame+0x164>
   10720:	e59f2098 	ldr	r2, [pc, #152]	; 107c0 <SMSC951xDeviceReceiveFrame+0x1c0>
   10724:	e59f1064 	ldr	r1, [pc, #100]	; 10790 <SMSC951xDeviceReceiveFrame+0x190>
   10728:	e59f0094 	ldr	r0, [pc, #148]	; 107c4 <SMSC951xDeviceReceiveFrame+0x1c4>
   1072c:	eb002456 	bl	1988c <uspi_assertion_failed>
   10730:	e28d000c 	add	r0, sp, #12
   10734:	ebfffcb7 	bl	fa18 <_USBRequest>
   10738:	e3a05000 	mov	r5, #0
   1073c:	ea000010 	b	10784 <SMSC951xDeviceReceiveFrame+0x184>
   10740:	e59f2080 	ldr	r2, [pc, #128]	; 107c8 <SMSC951xDeviceReceiveFrame+0x1c8>
   10744:	e59f1044 	ldr	r1, [pc, #68]	; 10790 <SMSC951xDeviceReceiveFrame+0x190>
   10748:	e59f007c 	ldr	r0, [pc, #124]	; 107cc <SMSC951xDeviceReceiveFrame+0x1cc>
   1074c:	eb00244e 	bl	1988c <uspi_assertion_failed>
   10750:	e5865000 	str	r5, [r6]
   10754:	e28d000c 	add	r0, sp, #12
   10758:	ebfffcae 	bl	fa18 <_USBRequest>
   1075c:	e3a05001 	mov	r5, #1
   10760:	ea000007 	b	10784 <SMSC951xDeviceReceiveFrame+0x184>
   10764:	e2455004 	sub	r5, r5, #4
   10768:	e1a02005 	mov	r2, r5
   1076c:	e2841004 	add	r1, r4, #4
   10770:	e1a00004 	mov	r0, r4
   10774:	eb000499 	bl	119e0 <uspi_memcpy>
   10778:	e3560000 	cmp	r6, #0
   1077c:	1afffff3 	bne	10750 <SMSC951xDeviceReceiveFrame+0x150>
   10780:	eaffffee 	b	10740 <SMSC951xDeviceReceiveFrame+0x140>
   10784:	e1a00005 	mov	r0, r5
   10788:	e28dd030 	add	sp, sp, #48	; 0x30
   1078c:	e8bd8070 	pop	{r4, r5, r6, pc}
   10790:	0001c2b0 	.word	0x0001c2b0
   10794:	0001b4d8 	.word	0x0001b4d8
   10798:	00000166 	.word	0x00000166
   1079c:	0001c2f4 	.word	0x0001c2f4
   107a0:	00000167 	.word	0x00000167
   107a4:	0001c564 	.word	0x0001c564
   107a8:	400090de 	.word	0x400090de
   107ac:	0001c314 	.word	0x0001c314
   107b0:	0001c2a4 	.word	0x0001c2a4
   107b4:	3fff0000 	.word	0x3fff0000
   107b8:	00000185 	.word	0x00000185
   107bc:	0001c32c 	.word	0x0001c32c
   107c0:	00000186 	.word	0x00000186
   107c4:	0001c34c 	.word	0x0001c34c
   107c8:	00000193 	.word	0x00000193
   107cc:	0001c360 	.word	0x0001c360

000107d0 <SMSC951xDeviceWriteReg>:
   107d0:	e92d4070 	push	{r4, r5, r6, lr}
   107d4:	e24dd018 	sub	sp, sp, #24
   107d8:	e1a04001 	mov	r4, r1
   107dc:	e58d2014 	str	r2, [sp, #20]
   107e0:	e2505000 	subs	r5, r0, #0
   107e4:	1a000003 	bne	107f8 <SMSC951xDeviceWriteReg+0x28>
   107e8:	e59f2060 	ldr	r2, [pc, #96]	; 10850 <SMSC951xDeviceWriteReg+0x80>
   107ec:	e59f1060 	ldr	r1, [pc, #96]	; 10854 <SMSC951xDeviceWriteReg+0x84>
   107f0:	e59f0060 	ldr	r0, [pc, #96]	; 10858 <SMSC951xDeviceWriteReg+0x88>
   107f4:	eb002424 	bl	1988c <uspi_assertion_failed>
   107f8:	e1a00005 	mov	r0, r5
   107fc:	ebfff933 	bl	ecd0 <USBDeviceGetHost>
   10800:	e1a06000 	mov	r6, r0
   10804:	e1a00005 	mov	r0, r5
   10808:	ebfff91b 	bl	ec7c <USBDeviceGetEndpoint0>
   1080c:	e3a03004 	mov	r3, #4
   10810:	e58d300c 	str	r3, [sp, #12]
   10814:	e28d3014 	add	r3, sp, #20
   10818:	e58d3008 	str	r3, [sp, #8]
   1081c:	e6ff4074 	uxth	r4, r4
   10820:	e58d4004 	str	r4, [sp, #4]
   10824:	e3a03000 	mov	r3, #0
   10828:	e58d3000 	str	r3, [sp]
   1082c:	e3a030a0 	mov	r3, #160	; 0xa0
   10830:	e3a02040 	mov	r2, #64	; 0x40
   10834:	e1a01000 	mov	r1, r0
   10838:	e1a00006 	mov	r0, r6
   1083c:	ebffecbb 	bl	bb30 <DWHCIDeviceControlMessage>
   10840:	e1e00000 	mvn	r0, r0
   10844:	e1a00fa0 	lsr	r0, r0, #31
   10848:	e28dd018 	add	sp, sp, #24
   1084c:	e8bd8070 	pop	{r4, r5, r6, pc}
   10850:	0000019d 	.word	0x0000019d
   10854:	0001c2b0 	.word	0x0001c2b0
   10858:	0001b4d8 	.word	0x0001b4d8

0001085c <SMSC951xDeviceConfigure>:
   1085c:	e92d4ff0 	push	{r4, r5, r6, r7, r8, r9, sl, fp, lr}
   10860:	e24dd02c 	sub	sp, sp, #44	; 0x2c
   10864:	e2504000 	subs	r4, r0, #0
   10868:	1a000003 	bne	1087c <SMSC951xDeviceConfigure+0x20>
   1086c:	e3a020b3 	mov	r2, #179	; 0xb3
   10870:	e59f13b4 	ldr	r1, [pc, #948]	; 10c2c <SMSC951xDeviceConfigure+0x3d0>
   10874:	e59f03b4 	ldr	r0, [pc, #948]	; 10c30 <SMSC951xDeviceConfigure+0x3d4>
   10878:	eb002403 	bl	1988c <uspi_assertion_failed>
   1087c:	e28d0020 	add	r0, sp, #32
   10880:	eb0023d3 	bl	197d4 <GetMACAddress>
   10884:	e2506000 	subs	r6, r0, #0
   10888:	0a000016 	beq	108e8 <SMSC951xDeviceConfigure+0x8c>
   1088c:	e2845040 	add	r5, r4, #64	; 0x40
   10890:	e28d1020 	add	r1, sp, #32
   10894:	e1a00005 	mov	r0, r5
   10898:	ebfffdff 	bl	1009c <MACAddressSet>
   1089c:	e28d0014 	add	r0, sp, #20
   108a0:	eb0001a5 	bl	10f3c <String>
   108a4:	e28d1014 	add	r1, sp, #20
   108a8:	e1a00005 	mov	r0, r5
   108ac:	ebfffe9f 	bl	10330 <MACAddressFormat>
   108b0:	e28d0014 	add	r0, sp, #20
   108b4:	eb0001d0 	bl	10ffc <StringGet>
   108b8:	e1a03000 	mov	r3, r0
   108bc:	e59f2370 	ldr	r2, [pc, #880]	; 10c34 <SMSC951xDeviceConfigure+0x3d8>
   108c0:	e3a01004 	mov	r1, #4
   108c4:	e59f036c 	ldr	r0, [pc, #876]	; 10c38 <SMSC951xDeviceConfigure+0x3dc>
   108c8:	eb0023dd 	bl	19844 <LogWrite>
   108cc:	e1a06004 	mov	r6, r4
   108d0:	e3a01002 	mov	r1, #2
   108d4:	e1a00004 	mov	r0, r4
   108d8:	ebfff939 	bl	edc4 <USBDeviceGetDescriptor>
   108dc:	e3500000 	cmp	r0, #0
   108e0:	1a000005 	bne	108fc <SMSC951xDeviceConfigure+0xa0>
   108e4:	ea000007 	b	10908 <SMSC951xDeviceConfigure+0xac>
   108e8:	e59f234c 	ldr	r2, [pc, #844]	; 10c3c <SMSC951xDeviceConfigure+0x3e0>
   108ec:	e3a01001 	mov	r1, #1
   108f0:	e59f0340 	ldr	r0, [pc, #832]	; 10c38 <SMSC951xDeviceConfigure+0x3dc>
   108f4:	eb0023d2 	bl	19844 <LogWrite>
   108f8:	ea0000c8 	b	10c20 <SMSC951xDeviceConfigure+0x3c4>
   108fc:	e5d03004 	ldrb	r3, [r0, #4]
   10900:	e3530001 	cmp	r3, #1
   10904:	0a000006 	beq	10924 <SMSC951xDeviceConfigure+0xc8>
   10908:	e59f1328 	ldr	r1, [pc, #808]	; 10c38 <SMSC951xDeviceConfigure+0x3dc>
   1090c:	e1a00004 	mov	r0, r4
   10910:	ebfff943 	bl	ee24 <USBDeviceConfigurationError>
   10914:	e28d0014 	add	r0, sp, #20
   10918:	eb0001a7 	bl	10fbc <_String>
   1091c:	e3a06000 	mov	r6, #0
   10920:	ea0000be 	b	10c20 <SMSC951xDeviceConfigure+0x3c4>
   10924:	e3a01004 	mov	r1, #4
   10928:	e1a00004 	mov	r0, r4
   1092c:	ebfff924 	bl	edc4 <USBDeviceGetDescriptor>
   10930:	e3500000 	cmp	r0, #0
   10934:	0a000008 	beq	1095c <SMSC951xDeviceConfigure+0x100>
   10938:	e5d03002 	ldrb	r3, [r0, #2]
   1093c:	e3530000 	cmp	r3, #0
   10940:	1a000005 	bne	1095c <SMSC951xDeviceConfigure+0x100>
   10944:	e5d03003 	ldrb	r3, [r0, #3]
   10948:	e3530000 	cmp	r3, #0
   1094c:	1a000002 	bne	1095c <SMSC951xDeviceConfigure+0x100>
   10950:	e5d03004 	ldrb	r3, [r0, #4]
   10954:	e3530003 	cmp	r3, #3
   10958:	0a00003e 	beq	10a58 <SMSC951xDeviceConfigure+0x1fc>
   1095c:	e59f12d4 	ldr	r1, [pc, #724]	; 10c38 <SMSC951xDeviceConfigure+0x3dc>
   10960:	e1a00004 	mov	r0, r4
   10964:	ebfff92e 	bl	ee24 <USBDeviceConfigurationError>
   10968:	e28d0014 	add	r0, sp, #20
   1096c:	eb000192 	bl	10fbc <_String>
   10970:	e3a06000 	mov	r6, #0
   10974:	ea0000a9 	b	10c20 <SMSC951xDeviceConfigure+0x3c4>
   10978:	e5d03003 	ldrb	r3, [r0, #3]
   1097c:	e203303f 	and	r3, r3, #63	; 0x3f
   10980:	e3530002 	cmp	r3, #2
   10984:	1a000037 	bne	10a68 <SMSC951xDeviceConfigure+0x20c>
   10988:	e1a07000 	mov	r7, r0
   1098c:	e1d030d2 	ldrsb	r3, [r0, #2]
   10990:	e3530000 	cmp	r3, #0
   10994:	aa000017 	bge	109f8 <SMSC951xDeviceConfigure+0x19c>
   10998:	e5943038 	ldr	r3, [r4, #56]	; 0x38
   1099c:	e3530000 	cmp	r3, #0
   109a0:	0a000006 	beq	109c0 <SMSC951xDeviceConfigure+0x164>
   109a4:	e59f128c 	ldr	r1, [pc, #652]	; 10c38 <SMSC951xDeviceConfigure+0x3dc>
   109a8:	e1a00004 	mov	r0, r4
   109ac:	ebfff91c 	bl	ee24 <USBDeviceConfigurationError>
   109b0:	e28d0014 	add	r0, sp, #20
   109b4:	eb000180 	bl	10fbc <_String>
   109b8:	e3a06000 	mov	r6, #0
   109bc:	ea000097 	b	10c20 <SMSC951xDeviceConfigure+0x3c4>
   109c0:	e1a00009 	mov	r0, r9
   109c4:	eb001b89 	bl	177f0 <malloc>
   109c8:	e5840038 	str	r0, [r4, #56]	; 0x38
   109cc:	e3500000 	cmp	r0, #0
   109d0:	1a000003 	bne	109e4 <SMSC951xDeviceConfigure+0x188>
   109d4:	e3a020f0 	mov	r2, #240	; 0xf0
   109d8:	e1a0100a 	mov	r1, sl
   109dc:	e59f025c 	ldr	r0, [pc, #604]	; 10c40 <SMSC951xDeviceConfigure+0x3e4>
   109e0:	eb0023a9 	bl	1988c <uspi_assertion_failed>
   109e4:	e1a02007 	mov	r2, r7
   109e8:	e1a01006 	mov	r1, r6
   109ec:	e5940038 	ldr	r0, [r4, #56]	; 0x38
   109f0:	ebfffa7c 	bl	f3e8 <USBEndpoint2>
   109f4:	ea00001b 	b	10a68 <SMSC951xDeviceConfigure+0x20c>
   109f8:	e594303c 	ldr	r3, [r4, #60]	; 0x3c
   109fc:	e3530000 	cmp	r3, #0
   10a00:	0a000006 	beq	10a20 <SMSC951xDeviceConfigure+0x1c4>
   10a04:	e59f122c 	ldr	r1, [pc, #556]	; 10c38 <SMSC951xDeviceConfigure+0x3dc>
   10a08:	e1a00004 	mov	r0, r4
   10a0c:	ebfff904 	bl	ee24 <USBDeviceConfigurationError>
   10a10:	e28d0014 	add	r0, sp, #20
   10a14:	eb000168 	bl	10fbc <_String>
   10a18:	e3a06000 	mov	r6, #0
   10a1c:	ea00007f 	b	10c20 <SMSC951xDeviceConfigure+0x3c4>
   10a20:	e1a00009 	mov	r0, r9
   10a24:	eb001b71 	bl	177f0 <malloc>
   10a28:	e584003c 	str	r0, [r4, #60]	; 0x3c
   10a2c:	e3500000 	cmp	r0, #0
   10a30:	1a000003 	bne	10a44 <SMSC951xDeviceConfigure+0x1e8>
   10a34:	e3a020ff 	mov	r2, #255	; 0xff
   10a38:	e1a0100a 	mov	r1, sl
   10a3c:	e1a0000b 	mov	r0, fp
   10a40:	eb002391 	bl	1988c <uspi_assertion_failed>
   10a44:	e1a02007 	mov	r2, r7
   10a48:	e1a01006 	mov	r1, r6
   10a4c:	e594003c 	ldr	r0, [r4, #60]	; 0x3c
   10a50:	ebfffa64 	bl	f3e8 <USBEndpoint2>
   10a54:	ea000003 	b	10a68 <SMSC951xDeviceConfigure+0x20c>
   10a58:	e3a08005 	mov	r8, #5
   10a5c:	e3a09018 	mov	r9, #24
   10a60:	e59fa1c4 	ldr	sl, [pc, #452]	; 10c2c <SMSC951xDeviceConfigure+0x3d0>
   10a64:	e59fb1d8 	ldr	fp, [pc, #472]	; 10c44 <SMSC951xDeviceConfigure+0x3e8>
   10a68:	e1a01008 	mov	r1, r8
   10a6c:	e1a00006 	mov	r0, r6
   10a70:	ebfff8d3 	bl	edc4 <USBDeviceGetDescriptor>
   10a74:	e3500000 	cmp	r0, #0
   10a78:	1affffbe 	bne	10978 <SMSC951xDeviceConfigure+0x11c>
   10a7c:	e5943038 	ldr	r3, [r4, #56]	; 0x38
   10a80:	e3530000 	cmp	r3, #0
   10a84:	0a000002 	beq	10a94 <SMSC951xDeviceConfigure+0x238>
   10a88:	e594303c 	ldr	r3, [r4, #60]	; 0x3c
   10a8c:	e3530000 	cmp	r3, #0
   10a90:	1a000006 	bne	10ab0 <SMSC951xDeviceConfigure+0x254>
   10a94:	e59f119c 	ldr	r1, [pc, #412]	; 10c38 <SMSC951xDeviceConfigure+0x3dc>
   10a98:	e1a00004 	mov	r0, r4
   10a9c:	ebfff8e0 	bl	ee24 <USBDeviceConfigurationError>
   10aa0:	e28d0014 	add	r0, sp, #20
   10aa4:	eb000144 	bl	10fbc <_String>
   10aa8:	e3a06000 	mov	r6, #0
   10aac:	ea00005b 	b	10c20 <SMSC951xDeviceConfigure+0x3c4>
   10ab0:	e1a00004 	mov	r0, r4
   10ab4:	ebfff6b9 	bl	e5a0 <USBDeviceConfigure>
   10ab8:	e2506000 	subs	r6, r0, #0
   10abc:	1a000006 	bne	10adc <SMSC951xDeviceConfigure+0x280>
   10ac0:	e59f2180 	ldr	r2, [pc, #384]	; 10c48 <SMSC951xDeviceConfigure+0x3ec>
   10ac4:	e3a01001 	mov	r1, #1
   10ac8:	e59f0168 	ldr	r0, [pc, #360]	; 10c38 <SMSC951xDeviceConfigure+0x3dc>
   10acc:	eb00235c 	bl	19844 <LogWrite>
   10ad0:	e28d0014 	add	r0, sp, #20
   10ad4:	eb000138 	bl	10fbc <_String>
   10ad8:	ea000050 	b	10c20 <SMSC951xDeviceConfigure+0x3c4>
   10adc:	e28d100c 	add	r1, sp, #12
   10ae0:	e1a00005 	mov	r0, r5
   10ae4:	ebfffdd0 	bl	1022c <MACAddressCopyTo>
   10ae8:	e5dd600c 	ldrb	r6, [sp, #12]
   10aec:	e5dd700d 	ldrb	r7, [sp, #13]
   10af0:	e5dd800e 	ldrb	r8, [sp, #14]
   10af4:	e5dd500f 	ldrb	r5, [sp, #15]
   10af8:	e5dd2011 	ldrb	r2, [sp, #17]
   10afc:	e5dd3010 	ldrb	r3, [sp, #16]
   10b00:	e1832402 	orr	r2, r3, r2, lsl #8
   10b04:	e3a01f41 	mov	r1, #260	; 0x104
   10b08:	e1a00004 	mov	r0, r4
   10b0c:	ebffff2f 	bl	107d0 <SMSC951xDeviceWriteReg>
   10b10:	e3500000 	cmp	r0, #0
   10b14:	0a000008 	beq	10b3c <SMSC951xDeviceConfigure+0x2e0>
   10b18:	e1a03c05 	lsl	r3, r5, #24
   10b1c:	e1833808 	orr	r3, r3, r8, lsl #16
   10b20:	e1832006 	orr	r2, r3, r6
   10b24:	e1822407 	orr	r2, r2, r7, lsl #8
   10b28:	e3a01f42 	mov	r1, #264	; 0x108
   10b2c:	e1a00004 	mov	r0, r4
   10b30:	ebffff26 	bl	107d0 <SMSC951xDeviceWriteReg>
   10b34:	e3500000 	cmp	r0, #0
   10b38:	1a000007 	bne	10b5c <SMSC951xDeviceConfigure+0x300>
   10b3c:	e59f2108 	ldr	r2, [pc, #264]	; 10c4c <SMSC951xDeviceConfigure+0x3f0>
   10b40:	e3a01001 	mov	r1, #1
   10b44:	e59f00ec 	ldr	r0, [pc, #236]	; 10c38 <SMSC951xDeviceConfigure+0x3dc>
   10b48:	eb00233d 	bl	19844 <LogWrite>
   10b4c:	e28d0014 	add	r0, sp, #20
   10b50:	eb000119 	bl	10fbc <_String>
   10b54:	e3a06000 	mov	r6, #0
   10b58:	ea000030 	b	10c20 <SMSC951xDeviceConfigure+0x3c4>
   10b5c:	e59f20ec 	ldr	r2, [pc, #236]	; 10c50 <SMSC951xDeviceConfigure+0x3f4>
   10b60:	e3a01024 	mov	r1, #36	; 0x24
   10b64:	e1a00004 	mov	r0, r4
   10b68:	ebffff18 	bl	107d0 <SMSC951xDeviceWriteReg>
   10b6c:	e3500000 	cmp	r0, #0
   10b70:	0a00000b 	beq	10ba4 <SMSC951xDeviceConfigure+0x348>
   10b74:	e59f20d8 	ldr	r2, [pc, #216]	; 10c54 <SMSC951xDeviceConfigure+0x3f8>
   10b78:	e3a01c01 	mov	r1, #256	; 0x100
   10b7c:	e1a00004 	mov	r0, r4
   10b80:	ebffff12 	bl	107d0 <SMSC951xDeviceWriteReg>
   10b84:	e3500000 	cmp	r0, #0
   10b88:	0a000005 	beq	10ba4 <SMSC951xDeviceConfigure+0x348>
   10b8c:	e3a02004 	mov	r2, #4
   10b90:	e3a01010 	mov	r1, #16
   10b94:	e1a00004 	mov	r0, r4
   10b98:	ebffff0c 	bl	107d0 <SMSC951xDeviceWriteReg>
   10b9c:	e3500000 	cmp	r0, #0
   10ba0:	1a000007 	bne	10bc4 <SMSC951xDeviceConfigure+0x368>
   10ba4:	e59f20ac 	ldr	r2, [pc, #172]	; 10c58 <SMSC951xDeviceConfigure+0x3fc>
   10ba8:	e3a01001 	mov	r1, #1
   10bac:	e59f0084 	ldr	r0, [pc, #132]	; 10c38 <SMSC951xDeviceConfigure+0x3dc>
   10bb0:	eb002323 	bl	19844 <LogWrite>
   10bb4:	e28d0014 	add	r0, sp, #20
   10bb8:	eb0000ff 	bl	10fbc <_String>
   10bbc:	e3a06000 	mov	r6, #0
   10bc0:	ea000016 	b	10c20 <SMSC951xDeviceConfigure+0x3c4>
   10bc4:	e1a0000d 	mov	r0, sp
   10bc8:	eb0000db 	bl	10f3c <String>
   10bcc:	e59f3088 	ldr	r3, [pc, #136]	; 10c5c <SMSC951xDeviceConfigure+0x400>
   10bd0:	e5932000 	ldr	r2, [r3]
   10bd4:	e2821001 	add	r1, r2, #1
   10bd8:	e5831000 	str	r1, [r3]
   10bdc:	e59f107c 	ldr	r1, [pc, #124]	; 10c60 <SMSC951xDeviceConfigure+0x404>
   10be0:	e1a0000d 	mov	r0, sp
   10be4:	eb000361 	bl	11970 <StringFormat>
   10be8:	ebfffd01 	bl	fff4 <DeviceNameServiceGet>
   10bec:	e1a05000 	mov	r5, r0
   10bf0:	e1a0000d 	mov	r0, sp
   10bf4:	eb000100 	bl	10ffc <StringGet>
   10bf8:	e3a03000 	mov	r3, #0
   10bfc:	e1a02004 	mov	r2, r4
   10c00:	e1a01000 	mov	r1, r0
   10c04:	e1a00005 	mov	r0, r5
   10c08:	ebfffc88 	bl	fe30 <DeviceNameServiceAddDevice>
   10c0c:	e1a0000d 	mov	r0, sp
   10c10:	eb0000e9 	bl	10fbc <_String>
   10c14:	e28d0014 	add	r0, sp, #20
   10c18:	eb0000e7 	bl	10fbc <_String>
   10c1c:	e3a06001 	mov	r6, #1
   10c20:	e1a00006 	mov	r0, r6
   10c24:	e28dd02c 	add	sp, sp, #44	; 0x2c
   10c28:	e8bd8ff0 	pop	{r4, r5, r6, r7, r8, r9, sl, fp, pc}
   10c2c:	0001c2b0 	.word	0x0001c2b0
   10c30:	0001b4d8 	.word	0x0001b4d8
   10c34:	0001c374 	.word	0x0001c374
   10c38:	0001c2a4 	.word	0x0001c2a4
   10c3c:	0001c388 	.word	0x0001c388
   10c40:	0001c3a0 	.word	0x0001c3a0
   10c44:	0001c3bc 	.word	0x0001c3bc
   10c48:	0001c3d8 	.word	0x0001c3d8
   10c4c:	0001c3f4 	.word	0x0001c3f4
   10c50:	01110000 	.word	0x01110000
   10c54:	0080000c 	.word	0x0080000c
   10c58:	0001c40c 	.word	0x0001c40c
   10c5c:	00008928 	.word	0x00008928
   10c60:	0001c420 	.word	0x0001c420

00010c64 <SMSC951xDeviceReadReg>:
   10c64:	e92d40f0 	push	{r4, r5, r6, r7, lr}
   10c68:	e24dd014 	sub	sp, sp, #20
   10c6c:	e1a04001 	mov	r4, r1
   10c70:	e1a07002 	mov	r7, r2
   10c74:	e2505000 	subs	r5, r0, #0
   10c78:	1a000003 	bne	10c8c <SMSC951xDeviceReadReg+0x28>
   10c7c:	e59f2060 	ldr	r2, [pc, #96]	; 10ce4 <SMSC951xDeviceReadReg+0x80>
   10c80:	e59f1060 	ldr	r1, [pc, #96]	; 10ce8 <SMSC951xDeviceReadReg+0x84>
   10c84:	e59f0060 	ldr	r0, [pc, #96]	; 10cec <SMSC951xDeviceReadReg+0x88>
   10c88:	eb0022ff 	bl	1988c <uspi_assertion_failed>
   10c8c:	e1a00005 	mov	r0, r5
   10c90:	ebfff80e 	bl	ecd0 <USBDeviceGetHost>
   10c94:	e1a06000 	mov	r6, r0
   10c98:	e1a00005 	mov	r0, r5
   10c9c:	ebfff7f6 	bl	ec7c <USBDeviceGetEndpoint0>
   10ca0:	e3a03004 	mov	r3, #4
   10ca4:	e58d300c 	str	r3, [sp, #12]
   10ca8:	e58d7008 	str	r7, [sp, #8]
   10cac:	e6ff4074 	uxth	r4, r4
   10cb0:	e58d4004 	str	r4, [sp, #4]
   10cb4:	e3a03000 	mov	r3, #0
   10cb8:	e58d3000 	str	r3, [sp]
   10cbc:	e3a030a1 	mov	r3, #161	; 0xa1
   10cc0:	e3a020c0 	mov	r2, #192	; 0xc0
   10cc4:	e1a01000 	mov	r1, r0
   10cc8:	e1a00006 	mov	r0, r6
   10ccc:	ebffeb97 	bl	bb30 <DWHCIDeviceControlMessage>
   10cd0:	e3500004 	cmp	r0, #4
   10cd4:	13a00000 	movne	r0, #0
   10cd8:	03a00001 	moveq	r0, #1
   10cdc:	e28dd014 	add	sp, sp, #20
   10ce0:	e8bd80f0 	pop	{r4, r5, r6, r7, pc}
   10ce4:	000001a7 	.word	0x000001a7
   10ce8:	0001c2b0 	.word	0x0001c2b0
   10cec:	0001b4d8 	.word	0x0001b4d8

00010cf0 <SMSC951xDeviceDumpReg>:
   10cf0:	e92d4070 	push	{r4, r5, r6, lr}
   10cf4:	e24dd010 	sub	sp, sp, #16
   10cf8:	e1a06001 	mov	r6, r1
   10cfc:	e1a04002 	mov	r4, r2
   10d00:	e2505000 	subs	r5, r0, #0
   10d04:	1a000003 	bne	10d18 <SMSC951xDeviceDumpReg+0x28>
   10d08:	e59f2058 	ldr	r2, [pc, #88]	; 10d68 <SMSC951xDeviceDumpReg+0x78>
   10d0c:	e59f1058 	ldr	r1, [pc, #88]	; 10d6c <SMSC951xDeviceDumpReg+0x7c>
   10d10:	e59f0058 	ldr	r0, [pc, #88]	; 10d70 <SMSC951xDeviceDumpReg+0x80>
   10d14:	eb0022dc 	bl	1988c <uspi_assertion_failed>
   10d18:	e28d200c 	add	r2, sp, #12
   10d1c:	e1a01004 	mov	r1, r4
   10d20:	e1a00005 	mov	r0, r5
   10d24:	ebffffce 	bl	10c64 <SMSC951xDeviceReadReg>
   10d28:	e3500000 	cmp	r0, #0
   10d2c:	1a000005 	bne	10d48 <SMSC951xDeviceDumpReg+0x58>
   10d30:	e1a03004 	mov	r3, r4
   10d34:	e59f2038 	ldr	r2, [pc, #56]	; 10d74 <SMSC951xDeviceDumpReg+0x84>
   10d38:	e3a01001 	mov	r1, #1
   10d3c:	e59f0034 	ldr	r0, [pc, #52]	; 10d78 <SMSC951xDeviceDumpReg+0x88>
   10d40:	eb0022bf 	bl	19844 <LogWrite>
   10d44:	ea000005 	b	10d60 <SMSC951xDeviceDumpReg+0x70>
   10d48:	e58d6000 	str	r6, [sp]
   10d4c:	e59d300c 	ldr	r3, [sp, #12]
   10d50:	e59f2024 	ldr	r2, [pc, #36]	; 10d7c <SMSC951xDeviceDumpReg+0x8c>
   10d54:	e3a01004 	mov	r1, #4
   10d58:	e59f0018 	ldr	r0, [pc, #24]	; 10d78 <SMSC951xDeviceDumpReg+0x88>
   10d5c:	eb0022b8 	bl	19844 <LogWrite>
   10d60:	e28dd010 	add	sp, sp, #16
   10d64:	e8bd8070 	pop	{r4, r5, r6, pc}
   10d68:	000001b3 	.word	0x000001b3
   10d6c:	0001c2b0 	.word	0x0001c2b0
   10d70:	0001b4d8 	.word	0x0001b4d8
   10d74:	0001c428 	.word	0x0001c428
   10d78:	0001c2a4 	.word	0x0001c2a4
   10d7c:	0001c444 	.word	0x0001c444

00010d80 <SMSC951xDeviceDumpRegs>:
   10d80:	e92d4010 	push	{r4, lr}
   10d84:	e2504000 	subs	r4, r0, #0
   10d88:	1a000003 	bne	10d9c <SMSC951xDeviceDumpRegs+0x1c>
   10d8c:	e59f214c 	ldr	r2, [pc, #332]	; 10ee0 <SMSC951xDeviceDumpRegs+0x160>
   10d90:	e59f114c 	ldr	r1, [pc, #332]	; 10ee4 <SMSC951xDeviceDumpRegs+0x164>
   10d94:	e59f014c 	ldr	r0, [pc, #332]	; 10ee8 <SMSC951xDeviceDumpRegs+0x168>
   10d98:	eb0022bb 	bl	1988c <uspi_assertion_failed>
   10d9c:	e3a02000 	mov	r2, #0
   10da0:	e59f1144 	ldr	r1, [pc, #324]	; 10eec <SMSC951xDeviceDumpRegs+0x16c>
   10da4:	e1a00004 	mov	r0, r4
   10da8:	ebffffd0 	bl	10cf0 <SMSC951xDeviceDumpReg>
   10dac:	e3a02008 	mov	r2, #8
   10db0:	e59f1138 	ldr	r1, [pc, #312]	; 10ef0 <SMSC951xDeviceDumpRegs+0x170>
   10db4:	e1a00004 	mov	r0, r4
   10db8:	ebffffcc 	bl	10cf0 <SMSC951xDeviceDumpReg>
   10dbc:	e3a0200c 	mov	r2, #12
   10dc0:	e59f112c 	ldr	r1, [pc, #300]	; 10ef4 <SMSC951xDeviceDumpRegs+0x174>
   10dc4:	e1a00004 	mov	r0, r4
   10dc8:	ebffffc8 	bl	10cf0 <SMSC951xDeviceDumpReg>
   10dcc:	e3a02010 	mov	r2, #16
   10dd0:	e59f1120 	ldr	r1, [pc, #288]	; 10ef8 <SMSC951xDeviceDumpRegs+0x178>
   10dd4:	e1a00004 	mov	r0, r4
   10dd8:	ebffffc4 	bl	10cf0 <SMSC951xDeviceDumpReg>
   10ddc:	e3a02014 	mov	r2, #20
   10de0:	e59f1114 	ldr	r1, [pc, #276]	; 10efc <SMSC951xDeviceDumpRegs+0x17c>
   10de4:	e1a00004 	mov	r0, r4
   10de8:	ebffffc0 	bl	10cf0 <SMSC951xDeviceDumpReg>
   10dec:	e3a02018 	mov	r2, #24
   10df0:	e59f1108 	ldr	r1, [pc, #264]	; 10f00 <SMSC951xDeviceDumpRegs+0x180>
   10df4:	e1a00004 	mov	r0, r4
   10df8:	ebffffbc 	bl	10cf0 <SMSC951xDeviceDumpReg>
   10dfc:	e3a02020 	mov	r2, #32
   10e00:	e59f10fc 	ldr	r1, [pc, #252]	; 10f04 <SMSC951xDeviceDumpRegs+0x184>
   10e04:	e1a00004 	mov	r0, r4
   10e08:	ebffffb8 	bl	10cf0 <SMSC951xDeviceDumpReg>
   10e0c:	e3a02024 	mov	r2, #36	; 0x24
   10e10:	e59f10f0 	ldr	r1, [pc, #240]	; 10f08 <SMSC951xDeviceDumpRegs+0x188>
   10e14:	e1a00004 	mov	r0, r4
   10e18:	ebffffb4 	bl	10cf0 <SMSC951xDeviceDumpReg>
   10e1c:	e3a02028 	mov	r2, #40	; 0x28
   10e20:	e59f10e4 	ldr	r1, [pc, #228]	; 10f0c <SMSC951xDeviceDumpRegs+0x18c>
   10e24:	e1a00004 	mov	r0, r4
   10e28:	ebffffb0 	bl	10cf0 <SMSC951xDeviceDumpReg>
   10e2c:	e3a0202c 	mov	r2, #44	; 0x2c
   10e30:	e59f10d8 	ldr	r1, [pc, #216]	; 10f10 <SMSC951xDeviceDumpRegs+0x190>
   10e34:	e1a00004 	mov	r0, r4
   10e38:	ebffffac 	bl	10cf0 <SMSC951xDeviceDumpReg>
   10e3c:	e3a02038 	mov	r2, #56	; 0x38
   10e40:	e59f10cc 	ldr	r1, [pc, #204]	; 10f14 <SMSC951xDeviceDumpRegs+0x194>
   10e44:	e1a00004 	mov	r0, r4
   10e48:	ebffffa8 	bl	10cf0 <SMSC951xDeviceDumpReg>
   10e4c:	e3a02068 	mov	r2, #104	; 0x68
   10e50:	e59f10c0 	ldr	r1, [pc, #192]	; 10f18 <SMSC951xDeviceDumpRegs+0x198>
   10e54:	e1a00004 	mov	r0, r4
   10e58:	ebffffa4 	bl	10cf0 <SMSC951xDeviceDumpReg>
   10e5c:	e3a0206c 	mov	r2, #108	; 0x6c
   10e60:	e59f10b4 	ldr	r1, [pc, #180]	; 10f1c <SMSC951xDeviceDumpRegs+0x19c>
   10e64:	e1a00004 	mov	r0, r4
   10e68:	ebffffa0 	bl	10cf0 <SMSC951xDeviceDumpReg>
   10e6c:	e3a02c01 	mov	r2, #256	; 0x100
   10e70:	e59f10a8 	ldr	r1, [pc, #168]	; 10f20 <SMSC951xDeviceDumpRegs+0x1a0>
   10e74:	e1a00004 	mov	r0, r4
   10e78:	ebffff9c 	bl	10cf0 <SMSC951xDeviceDumpReg>
   10e7c:	e3a02f41 	mov	r2, #260	; 0x104
   10e80:	e59f109c 	ldr	r1, [pc, #156]	; 10f24 <SMSC951xDeviceDumpRegs+0x1a4>
   10e84:	e1a00004 	mov	r0, r4
   10e88:	ebffff98 	bl	10cf0 <SMSC951xDeviceDumpReg>
   10e8c:	e3a02f42 	mov	r2, #264	; 0x108
   10e90:	e59f1090 	ldr	r1, [pc, #144]	; 10f28 <SMSC951xDeviceDumpRegs+0x1a8>
   10e94:	e1a00004 	mov	r0, r4
   10e98:	ebffff94 	bl	10cf0 <SMSC951xDeviceDumpReg>
   10e9c:	e3a02f43 	mov	r2, #268	; 0x10c
   10ea0:	e59f1084 	ldr	r1, [pc, #132]	; 10f2c <SMSC951xDeviceDumpRegs+0x1ac>
   10ea4:	e1a00004 	mov	r0, r4
   10ea8:	ebffff90 	bl	10cf0 <SMSC951xDeviceDumpReg>
   10eac:	e3a02e11 	mov	r2, #272	; 0x110
   10eb0:	e59f1078 	ldr	r1, [pc, #120]	; 10f30 <SMSC951xDeviceDumpRegs+0x1b0>
   10eb4:	e1a00004 	mov	r0, r4
   10eb8:	ebffff8c 	bl	10cf0 <SMSC951xDeviceDumpReg>
   10ebc:	e3a02f47 	mov	r2, #284	; 0x11c
   10ec0:	e59f106c 	ldr	r1, [pc, #108]	; 10f34 <SMSC951xDeviceDumpRegs+0x1b4>
   10ec4:	e1a00004 	mov	r0, r4
   10ec8:	ebffff88 	bl	10cf0 <SMSC951xDeviceDumpReg>
   10ecc:	e3a02f4b 	mov	r2, #300	; 0x12c
   10ed0:	e59f1060 	ldr	r1, [pc, #96]	; 10f38 <SMSC951xDeviceDumpRegs+0x1b8>
   10ed4:	e1a00004 	mov	r0, r4
   10ed8:	ebffff84 	bl	10cf0 <SMSC951xDeviceDumpReg>
   10edc:	e8bd8010 	pop	{r4, pc}
   10ee0:	000001c2 	.word	0x000001c2
   10ee4:	0001c2b0 	.word	0x0001c2b0
   10ee8:	0001b4d8 	.word	0x0001b4d8
   10eec:	0001c44c 	.word	0x0001c44c
   10ef0:	0001c454 	.word	0x0001c454
   10ef4:	0001c45c 	.word	0x0001c45c
   10ef8:	0001c464 	.word	0x0001c464
   10efc:	0001c46c 	.word	0x0001c46c
   10f00:	0001c474 	.word	0x0001c474
   10f04:	0001c480 	.word	0x0001c480
   10f08:	0001c488 	.word	0x0001c488
   10f0c:	0001c48c 	.word	0x0001c48c
   10f10:	0001c498 	.word	0x0001c498
   10f14:	0001c4a0 	.word	0x0001c4a0
   10f18:	0001c4ac 	.word	0x0001c4ac
   10f1c:	0001c4b8 	.word	0x0001c4b8
   10f20:	0001c4c4 	.word	0x0001c4c4
   10f24:	0001c4cc 	.word	0x0001c4cc
   10f28:	0001c4d4 	.word	0x0001c4d4
   10f2c:	0001c4dc 	.word	0x0001c4dc
   10f30:	0001c4e4 	.word	0x0001c4e4
   10f34:	0001c4ec 	.word	0x0001c4ec
   10f38:	0001c4f4 	.word	0x0001c4f4

00010f3c <String>:
   10f3c:	e92d4010 	push	{r4, lr}
   10f40:	e2504000 	subs	r4, r0, #0
   10f44:	1a000003 	bne	10f58 <String+0x1c>
   10f48:	e3a02023 	mov	r2, #35	; 0x23
   10f4c:	e59f1014 	ldr	r1, [pc, #20]	; 10f68 <String+0x2c>
   10f50:	e59f0014 	ldr	r0, [pc, #20]	; 10f6c <String+0x30>
   10f54:	eb00224c 	bl	1988c <uspi_assertion_failed>
   10f58:	e3a03000 	mov	r3, #0
   10f5c:	e5843000 	str	r3, [r4]
   10f60:	e5843004 	str	r3, [r4, #4]
   10f64:	e8bd8010 	pop	{r4, pc}
   10f68:	0001c4fc 	.word	0x0001c4fc
   10f6c:	0001b4d8 	.word	0x0001b4d8

00010f70 <String2>:
   10f70:	e92d4070 	push	{r4, r5, r6, lr}
   10f74:	e1a04001 	mov	r4, r1
   10f78:	e2505000 	subs	r5, r0, #0
   10f7c:	1a000003 	bne	10f90 <String2+0x20>
   10f80:	e3a0202a 	mov	r2, #42	; 0x2a
   10f84:	e59f1028 	ldr	r1, [pc, #40]	; 10fb4 <String2+0x44>
   10f88:	e59f0028 	ldr	r0, [pc, #40]	; 10fb8 <String2+0x48>
   10f8c:	eb00223e 	bl	1988c <uspi_assertion_failed>
   10f90:	e1a00004 	mov	r0, r4
   10f94:	eb0002b8 	bl	11a7c <uspi_strlen>
   10f98:	e2800001 	add	r0, r0, #1
   10f9c:	e5850004 	str	r0, [r5, #4]
   10fa0:	eb001a12 	bl	177f0 <malloc>
   10fa4:	e5850000 	str	r0, [r5]
   10fa8:	e1a01004 	mov	r1, r4
   10fac:	eb0002e4 	bl	11b44 <uspi_strcpy>
   10fb0:	e8bd8070 	pop	{r4, r5, r6, pc}
   10fb4:	0001c4fc 	.word	0x0001c4fc
   10fb8:	0001b4d8 	.word	0x0001b4d8

00010fbc <_String>:
   10fbc:	e92d4010 	push	{r4, lr}
   10fc0:	e2504000 	subs	r4, r0, #0
   10fc4:	1a000003 	bne	10fd8 <_String+0x1c>
   10fc8:	e3a02035 	mov	r2, #53	; 0x35
   10fcc:	e59f1020 	ldr	r1, [pc, #32]	; 10ff4 <_String+0x38>
   10fd0:	e59f0020 	ldr	r0, [pc, #32]	; 10ff8 <_String+0x3c>
   10fd4:	eb00222c 	bl	1988c <uspi_assertion_failed>
   10fd8:	e5940000 	ldr	r0, [r4]
   10fdc:	e3500000 	cmp	r0, #0
   10fe0:	08bd8010 	popeq	{r4, pc}
   10fe4:	eb001a6a 	bl	17994 <free>
   10fe8:	e3a03000 	mov	r3, #0
   10fec:	e5843000 	str	r3, [r4]
   10ff0:	e8bd8010 	pop	{r4, pc}
   10ff4:	0001c4fc 	.word	0x0001c4fc
   10ff8:	0001b4d8 	.word	0x0001b4d8

00010ffc <StringGet>:
   10ffc:	e92d4010 	push	{r4, lr}
   11000:	e2504000 	subs	r4, r0, #0
   11004:	1a000003 	bne	11018 <StringGet+0x1c>
   11008:	e3a02040 	mov	r2, #64	; 0x40
   1100c:	e59f1018 	ldr	r1, [pc, #24]	; 1102c <StringGet+0x30>
   11010:	e59f0018 	ldr	r0, [pc, #24]	; 11030 <StringGet+0x34>
   11014:	eb00221c 	bl	1988c <uspi_assertion_failed>
   11018:	e5940000 	ldr	r0, [r4]
   1101c:	e59f3010 	ldr	r3, [pc, #16]	; 11034 <StringGet+0x38>
   11020:	e3500000 	cmp	r0, #0
   11024:	01a00003 	moveq	r0, r3
   11028:	e8bd8010 	pop	{r4, pc}
   1102c:	0001c4fc 	.word	0x0001c4fc
   11030:	0001b4d8 	.word	0x0001b4d8
   11034:	0001d8bc 	.word	0x0001d8bc

00011038 <StringSet>:
   11038:	e92d4070 	push	{r4, r5, r6, lr}
   1103c:	e1a05001 	mov	r5, r1
   11040:	e2504000 	subs	r4, r0, #0
   11044:	1a000003 	bne	11058 <StringSet+0x20>
   11048:	e3a0204c 	mov	r2, #76	; 0x4c
   1104c:	e59f103c 	ldr	r1, [pc, #60]	; 11090 <StringSet+0x58>
   11050:	e59f003c 	ldr	r0, [pc, #60]	; 11094 <StringSet+0x5c>
   11054:	eb00220c 	bl	1988c <uspi_assertion_failed>
   11058:	e5940000 	ldr	r0, [r4]
   1105c:	e3500000 	cmp	r0, #0
   11060:	0a000000 	beq	11068 <StringSet+0x30>
   11064:	eb001a4a 	bl	17994 <free>
   11068:	e1a00005 	mov	r0, r5
   1106c:	eb000282 	bl	11a7c <uspi_strlen>
   11070:	e2800001 	add	r0, r0, #1
   11074:	e5840004 	str	r0, [r4, #4]
   11078:	eb0019dc 	bl	177f0 <malloc>
   1107c:	e5840000 	str	r0, [r4]
   11080:	e1a01005 	mov	r1, r5
   11084:	eb0002ae 	bl	11b44 <uspi_strcpy>
   11088:	e5940000 	ldr	r0, [r4]
   1108c:	e8bd8070 	pop	{r4, r5, r6, pc}
   11090:	0001c4fc 	.word	0x0001c4fc
   11094:	0001b4d8 	.word	0x0001b4d8

00011098 <StringGetLength>:
   11098:	e92d4010 	push	{r4, lr}
   1109c:	e2504000 	subs	r4, r0, #0
   110a0:	1a000003 	bne	110b4 <StringGetLength+0x1c>
   110a4:	e3a0205e 	mov	r2, #94	; 0x5e
   110a8:	e59f1020 	ldr	r1, [pc, #32]	; 110d0 <StringGetLength+0x38>
   110ac:	e59f0020 	ldr	r0, [pc, #32]	; 110d4 <StringGetLength+0x3c>
   110b0:	eb0021f5 	bl	1988c <uspi_assertion_failed>
   110b4:	e5940000 	ldr	r0, [r4]
   110b8:	e3500000 	cmp	r0, #0
   110bc:	0a000001 	beq	110c8 <StringGetLength+0x30>
   110c0:	eb00026d 	bl	11a7c <uspi_strlen>
   110c4:	e8bd8010 	pop	{r4, pc}
   110c8:	e3a00000 	mov	r0, #0
   110cc:	e8bd8010 	pop	{r4, pc}
   110d0:	0001c4fc 	.word	0x0001c4fc
   110d4:	0001b4d8 	.word	0x0001b4d8

000110d8 <StringAppend>:
   110d8:	e92d4070 	push	{r4, r5, r6, lr}
   110dc:	e1a06001 	mov	r6, r1
   110e0:	e2504000 	subs	r4, r0, #0
   110e4:	1a000003 	bne	110f8 <StringAppend+0x20>
   110e8:	e3a0206a 	mov	r2, #106	; 0x6a
   110ec:	e59f107c 	ldr	r1, [pc, #124]	; 11170 <StringAppend+0x98>
   110f0:	e59f007c 	ldr	r0, [pc, #124]	; 11174 <StringAppend+0x9c>
   110f4:	eb0021e4 	bl	1988c <uspi_assertion_failed>
   110f8:	e3a03001 	mov	r3, #1
   110fc:	e5843004 	str	r3, [r4, #4]
   11100:	e5940000 	ldr	r0, [r4]
   11104:	e3500000 	cmp	r0, #0
   11108:	0a000003 	beq	1111c <StringAppend+0x44>
   1110c:	eb00025a 	bl	11a7c <uspi_strlen>
   11110:	e5943004 	ldr	r3, [r4, #4]
   11114:	e0830000 	add	r0, r3, r0
   11118:	e5840004 	str	r0, [r4, #4]
   1111c:	e1a00006 	mov	r0, r6
   11120:	eb000255 	bl	11a7c <uspi_strlen>
   11124:	e5943004 	ldr	r3, [r4, #4]
   11128:	e0800003 	add	r0, r0, r3
   1112c:	e5840004 	str	r0, [r4, #4]
   11130:	eb0019ae 	bl	177f0 <malloc>
   11134:	e1a05000 	mov	r5, r0
   11138:	e5941000 	ldr	r1, [r4]
   1113c:	e3510000 	cmp	r1, #0
   11140:	03a03000 	moveq	r3, #0
   11144:	05c03000 	strbeq	r3, [r0]
   11148:	0a000003 	beq	1115c <StringAppend+0x84>
   1114c:	eb00027c 	bl	11b44 <uspi_strcpy>
   11150:	e5940000 	ldr	r0, [r4]
   11154:	eb001a0e 	bl	17994 <free>
   11158:	eaffffff 	b	1115c <StringAppend+0x84>
   1115c:	e1a01006 	mov	r1, r6
   11160:	e1a00005 	mov	r0, r5
   11164:	eb000298 	bl	11bcc <uspi_strcat>
   11168:	e5845000 	str	r5, [r4]
   1116c:	e8bd8070 	pop	{r4, r5, r6, pc}
   11170:	0001c4fc 	.word	0x0001c4fc
   11174:	0001b4d8 	.word	0x0001b4d8

00011178 <StringCompare>:
   11178:	e92d4070 	push	{r4, r5, r6, lr}
   1117c:	e1a05001 	mov	r5, r1
   11180:	e2504000 	subs	r4, r0, #0
   11184:	1a000003 	bne	11198 <StringCompare+0x20>
   11188:	e3a02086 	mov	r2, #134	; 0x86
   1118c:	e59f1014 	ldr	r1, [pc, #20]	; 111a8 <StringCompare+0x30>
   11190:	e59f0014 	ldr	r0, [pc, #20]	; 111ac <StringCompare+0x34>
   11194:	eb0021bc 	bl	1988c <uspi_assertion_failed>
   11198:	e1a01005 	mov	r1, r5
   1119c:	e5940000 	ldr	r0, [r4]
   111a0:	eb000241 	bl	11aac <uspi_strcmp>
   111a4:	e8bd8070 	pop	{r4, r5, r6, pc}
   111a8:	0001c4fc 	.word	0x0001c4fc
   111ac:	0001b4d8 	.word	0x0001b4d8

000111b0 <StringFind>:
   111b0:	e92d4070 	push	{r4, r5, r6, lr}
   111b4:	e1a04001 	mov	r4, r1
   111b8:	e2505000 	subs	r5, r0, #0
   111bc:	1a000003 	bne	111d0 <StringFind+0x20>
   111c0:	e3a0208d 	mov	r2, #141	; 0x8d
   111c4:	e59f1054 	ldr	r1, [pc, #84]	; 11220 <StringFind+0x70>
   111c8:	e59f0054 	ldr	r0, [pc, #84]	; 11224 <StringFind+0x74>
   111cc:	eb0021ae 	bl	1988c <uspi_assertion_failed>
   111d0:	e5952000 	ldr	r2, [r5]
   111d4:	e1d230d0 	ldrsb	r3, [r2]
   111d8:	e3530000 	cmp	r3, #0
   111dc:	0a00000b 	beq	11210 <StringFind+0x60>
   111e0:	e1540003 	cmp	r4, r3
   111e4:	0a00000b 	beq	11218 <StringFind+0x68>
   111e8:	e3a00000 	mov	r0, #0
   111ec:	ea000001 	b	111f8 <StringFind+0x48>
   111f0:	e1530004 	cmp	r3, r4
   111f4:	08bd8070 	popeq	{r4, r5, r6, pc}
   111f8:	e2800001 	add	r0, r0, #1
   111fc:	e1f230d1 	ldrsb	r3, [r2, #1]!
   11200:	e3530000 	cmp	r3, #0
   11204:	1afffff9 	bne	111f0 <StringFind+0x40>
   11208:	e3e00000 	mvn	r0, #0
   1120c:	e8bd8070 	pop	{r4, r5, r6, pc}
   11210:	e3e00000 	mvn	r0, #0
   11214:	e8bd8070 	pop	{r4, r5, r6, pc}
   11218:	e3a00000 	mov	r0, #0
   1121c:	e8bd8070 	pop	{r4, r5, r6, pc}
   11220:	0001c4fc 	.word	0x0001c4fc
   11224:	0001b4d8 	.word	0x0001b4d8

00011228 <StringReserveSpace>:
   11228:	e92d41f0 	push	{r4, r5, r6, r7, r8, lr}
   1122c:	e1a04001 	mov	r4, r1
   11230:	e2505000 	subs	r5, r0, #0
   11234:	1a000003 	bne	11248 <StringReserveSpace+0x20>
   11238:	e59f2070 	ldr	r2, [pc, #112]	; 112b0 <StringReserveSpace+0x88>
   1123c:	e59f1070 	ldr	r1, [pc, #112]	; 112b4 <StringReserveSpace+0x8c>
   11240:	e59f0070 	ldr	r0, [pc, #112]	; 112b8 <StringReserveSpace+0x90>
   11244:	eb002190 	bl	1988c <uspi_assertion_failed>
   11248:	e3540000 	cmp	r4, #0
   1124c:	08bd81f0 	popeq	{r4, r5, r6, r7, r8, pc}
   11250:	e5956008 	ldr	r6, [r5, #8]
   11254:	e5953000 	ldr	r3, [r5]
   11258:	e0636006 	rsb	r6, r3, r6
   1125c:	e0844006 	add	r4, r4, r6
   11260:	e2842001 	add	r2, r4, #1
   11264:	e5953004 	ldr	r3, [r5, #4]
   11268:	e1520003 	cmp	r2, r3
   1126c:	98bd81f0 	popls	{r4, r5, r6, r7, r8, pc}
   11270:	e2844041 	add	r4, r4, #65	; 0x41
   11274:	e1a00004 	mov	r0, r4
   11278:	eb00195c 	bl	177f0 <malloc>
   1127c:	e1a07000 	mov	r7, r0
   11280:	e5953008 	ldr	r3, [r5, #8]
   11284:	e3a02000 	mov	r2, #0
   11288:	e5c32000 	strb	r2, [r3]
   1128c:	e5951000 	ldr	r1, [r5]
   11290:	eb00022b 	bl	11b44 <uspi_strcpy>
   11294:	e5950000 	ldr	r0, [r5]
   11298:	eb0019bd 	bl	17994 <free>
   1129c:	e5857000 	str	r7, [r5]
   112a0:	e5854004 	str	r4, [r5, #4]
   112a4:	e0876006 	add	r6, r7, r6
   112a8:	e5856008 	str	r6, [r5, #8]
   112ac:	e8bd81f0 	pop	{r4, r5, r6, r7, r8, pc}
   112b0:	00000199 	.word	0x00000199
   112b4:	0001c4fc 	.word	0x0001c4fc
   112b8:	0001b4d8 	.word	0x0001b4d8

000112bc <StringPutChar>:
   112bc:	e92d4070 	push	{r4, r5, r6, lr}
   112c0:	e1a05001 	mov	r5, r1
   112c4:	e1a06002 	mov	r6, r2
   112c8:	e2504000 	subs	r4, r0, #0
   112cc:	1a000003 	bne	112e0 <StringPutChar+0x24>
   112d0:	e3a02d06 	mov	r2, #384	; 0x180
   112d4:	e59f103c 	ldr	r1, [pc, #60]	; 11318 <StringPutChar+0x5c>
   112d8:	e59f003c 	ldr	r0, [pc, #60]	; 1131c <StringPutChar+0x60>
   112dc:	eb00216a 	bl	1988c <uspi_assertion_failed>
   112e0:	e1a01006 	mov	r1, r6
   112e4:	e1a00004 	mov	r0, r4
   112e8:	ebffffce 	bl	11228 <StringReserveSpace>
   112ec:	e2463001 	sub	r3, r6, #1
   112f0:	e3560000 	cmp	r6, #0
   112f4:	08bd8070 	popeq	{r4, r5, r6, pc}
   112f8:	e5942008 	ldr	r2, [r4, #8]
   112fc:	e2821001 	add	r1, r2, #1
   11300:	e5841008 	str	r1, [r4, #8]
   11304:	e5c25000 	strb	r5, [r2]
   11308:	e2433001 	sub	r3, r3, #1
   1130c:	e3730001 	cmn	r3, #1
   11310:	1afffff8 	bne	112f8 <StringPutChar+0x3c>
   11314:	e8bd8070 	pop	{r4, r5, r6, pc}
   11318:	0001c4fc 	.word	0x0001c4fc
   1131c:	0001b4d8 	.word	0x0001b4d8

00011320 <StringPutString>:
   11320:	e92d4070 	push	{r4, r5, r6, lr}
   11324:	e1a06001 	mov	r6, r1
   11328:	e2504000 	subs	r4, r0, #0
   1132c:	1a000003 	bne	11340 <StringPutString+0x20>
   11330:	e3a02f63 	mov	r2, #396	; 0x18c
   11334:	e59f1038 	ldr	r1, [pc, #56]	; 11374 <StringPutString+0x54>
   11338:	e59f0038 	ldr	r0, [pc, #56]	; 11378 <StringPutString+0x58>
   1133c:	eb002152 	bl	1988c <uspi_assertion_failed>
   11340:	e1a00006 	mov	r0, r6
   11344:	eb0001cc 	bl	11a7c <uspi_strlen>
   11348:	e1a05000 	mov	r5, r0
   1134c:	e1a01000 	mov	r1, r0
   11350:	e1a00004 	mov	r0, r4
   11354:	ebffffb3 	bl	11228 <StringReserveSpace>
   11358:	e1a01006 	mov	r1, r6
   1135c:	e5940008 	ldr	r0, [r4, #8]
   11360:	eb0001f7 	bl	11b44 <uspi_strcpy>
   11364:	e5940008 	ldr	r0, [r4, #8]
   11368:	e0800005 	add	r0, r0, r5
   1136c:	e5840008 	str	r0, [r4, #8]
   11370:	e8bd8070 	pop	{r4, r5, r6, pc}
   11374:	0001c4fc 	.word	0x0001c4fc
   11378:	0001b4d8 	.word	0x0001b4d8

0001137c <ntoa>:
   1137c:	e92d4ff8 	push	{r3, r4, r5, r6, r7, r8, r9, sl, fp, lr}
   11380:	e1a0b000 	mov	fp, r0
   11384:	e1a06001 	mov	r6, r1
   11388:	e1a08002 	mov	r8, r2
   1138c:	e1a0a003 	mov	sl, r3
   11390:	e1510002 	cmp	r1, r2
   11394:	23a05001 	movcs	r5, #1
   11398:	2a000006 	bcs	113b8 <ntoa+0x3c>
   1139c:	e1a04001 	mov	r4, r1
   113a0:	e3a05001 	mov	r5, #1
   113a4:	e1a0700b 	mov	r7, fp
   113a8:	e35a0000 	cmp	sl, #0
   113ac:	13a0a037 	movne	sl, #55	; 0x37
   113b0:	03a0a057 	moveq	sl, #87	; 0x57
   113b4:	ea000007 	b	113d8 <ntoa+0x5c>
   113b8:	e0050598 	mul	r5, r8, r5
   113bc:	e1a01005 	mov	r1, r5
   113c0:	e1a00006 	mov	r0, r6
   113c4:	eb001a7b 	bl	17db8 <__aeabi_uidiv>
   113c8:	e1a04000 	mov	r4, r0
   113cc:	e1500008 	cmp	r0, r8
   113d0:	2afffff8 	bcs	113b8 <ntoa+0x3c>
   113d4:	eafffff2 	b	113a4 <ntoa+0x28>
   113d8:	e1a09007 	mov	r9, r7
   113dc:	e1a01005 	mov	r1, r5
   113e0:	e1a00006 	mov	r0, r6
   113e4:	eb001a77 	bl	17dc8 <__aeabi_uidivmod>
   113e8:	e1a06001 	mov	r6, r1
   113ec:	e3540009 	cmp	r4, #9
   113f0:	92844030 	addls	r4, r4, #48	; 0x30
   113f4:	808a4004 	addhi	r4, sl, r4
   113f8:	e6af4074 	sxtb	r4, r4
   113fc:	e5c74000 	strb	r4, [r7]
   11400:	e2877001 	add	r7, r7, #1
   11404:	e1a01008 	mov	r1, r8
   11408:	e1a00005 	mov	r0, r5
   1140c:	eb001a69 	bl	17db8 <__aeabi_uidiv>
   11410:	e2505000 	subs	r5, r0, #0
   11414:	0a000004 	beq	1142c <ntoa+0xb0>
   11418:	e1a01005 	mov	r1, r5
   1141c:	e1a00006 	mov	r0, r6
   11420:	eb001a64 	bl	17db8 <__aeabi_uidiv>
   11424:	e1a04000 	mov	r4, r0
   11428:	eaffffea 	b	113d8 <ntoa+0x5c>
   1142c:	e3a03000 	mov	r3, #0
   11430:	e5c93001 	strb	r3, [r9, #1]
   11434:	e1a0000b 	mov	r0, fp
   11438:	e8bd8ff8 	pop	{r3, r4, r5, r6, r7, r8, r9, sl, fp, pc}

0001143c <StringFormatV>:
   1143c:	e92d4ff0 	push	{r4, r5, r6, r7, r8, r9, sl, fp, lr}
   11440:	e24dd014 	sub	sp, sp, #20
   11444:	e1a05001 	mov	r5, r1
   11448:	e1a08002 	mov	r8, r2
   1144c:	e2506000 	subs	r6, r0, #0
   11450:	1a000003 	bne	11464 <StringFormatV+0x28>
   11454:	e3a020ad 	mov	r2, #173	; 0xad
   11458:	e59f1508 	ldr	r1, [pc, #1288]	; 11968 <StringFormatV+0x52c>
   1145c:	e59f0508 	ldr	r0, [pc, #1288]	; 1196c <StringFormatV+0x530>
   11460:	eb002109 	bl	1988c <uspi_assertion_failed>
   11464:	e5960000 	ldr	r0, [r6]
   11468:	e3500000 	cmp	r0, #0
   1146c:	0a000000 	beq	11474 <StringFormatV+0x38>
   11470:	eb001947 	bl	17994 <free>
   11474:	e3a00040 	mov	r0, #64	; 0x40
   11478:	e5860004 	str	r0, [r6, #4]
   1147c:	eb0018db 	bl	177f0 <malloc>
   11480:	e5860000 	str	r0, [r6]
   11484:	e5860008 	str	r0, [r6, #8]
   11488:	e3a07000 	mov	r7, #0
   1148c:	ea0000f5 	b	11868 <StringFormatV+0x42c>
   11490:	e3510025 	cmp	r1, #37	; 0x25
   11494:	1a0000ef 	bne	11858 <StringFormatV+0x41c>
   11498:	e1d530d1 	ldrsb	r3, [r5, #1]
   1149c:	e3530025 	cmp	r3, #37	; 0x25
   114a0:	1a000004 	bne	114b8 <StringFormatV+0x7c>
   114a4:	e3a02001 	mov	r2, #1
   114a8:	e1a00006 	mov	r0, r6
   114ac:	ebffff82 	bl	112bc <StringPutChar>
   114b0:	e2855002 	add	r5, r5, #2
   114b4:	ea0000eb 	b	11868 <StringFormatV+0x42c>
   114b8:	e353002d 	cmp	r3, #45	; 0x2d
   114bc:	12855001 	addne	r5, r5, #1
   114c0:	11a04007 	movne	r4, r7
   114c4:	02855002 	addeq	r5, r5, #2
   114c8:	03a04001 	moveq	r4, #1
   114cc:	e1d530d0 	ldrsb	r3, [r5]
   114d0:	e3530030 	cmp	r3, #48	; 0x30
   114d4:	02855001 	addeq	r5, r5, #1
   114d8:	03a09001 	moveq	r9, #1
   114dc:	11a09007 	movne	r9, r7
   114e0:	e1d530d0 	ldrsb	r3, [r5]
   114e4:	e2432030 	sub	r2, r3, #48	; 0x30
   114e8:	e6ef2072 	uxtb	r2, r2
   114ec:	e3520009 	cmp	r2, #9
   114f0:	8a000009 	bhi	1151c <StringFormatV+0xe0>
   114f4:	e1a0a007 	mov	sl, r7
   114f8:	e08aa10a 	add	sl, sl, sl, lsl #2
   114fc:	e083308a 	add	r3, r3, sl, lsl #1
   11500:	e243a030 	sub	sl, r3, #48	; 0x30
   11504:	e1f530d1 	ldrsb	r3, [r5, #1]!
   11508:	e2432030 	sub	r2, r3, #48	; 0x30
   1150c:	e6ef2072 	uxtb	r2, r2
   11510:	e3520009 	cmp	r2, #9
   11514:	9afffff7 	bls	114f8 <StringFormatV+0xbc>
   11518:	ea000000 	b	11520 <StringFormatV+0xe4>
   1151c:	e1a0a007 	mov	sl, r7
   11520:	e353006c 	cmp	r3, #108	; 0x6c
   11524:	1a0000d6 	bne	11884 <StringFormatV+0x448>
   11528:	e2850001 	add	r0, r5, #1
   1152c:	e1d530d1 	ldrsb	r3, [r5, #1]
   11530:	e2432058 	sub	r2, r3, #88	; 0x58
   11534:	e3520020 	cmp	r2, #32
   11538:	979ff102 	ldrls	pc, [pc, r2, lsl #2]
   1153c:	ea0000bb 	b	11830 <StringFormatV+0x3f4>
   11540:	00011788 	.word	0x00011788
   11544:	00011830 	.word	0x00011830
   11548:	00011830 	.word	0x00011830
   1154c:	00011830 	.word	0x00011830
   11550:	00011830 	.word	0x00011830
   11554:	00011830 	.word	0x00011830
   11558:	00011830 	.word	0x00011830
   1155c:	00011830 	.word	0x00011830
   11560:	00011830 	.word	0x00011830
   11564:	00011830 	.word	0x00011830
   11568:	00011830 	.word	0x00011830
   1156c:	000115c4 	.word	0x000115c4
   11570:	0001163c 	.word	0x0001163c
   11574:	00011830 	.word	0x00011830
   11578:	00011830 	.word	0x00011830
   1157c:	00011830 	.word	0x00011830
   11580:	00011830 	.word	0x00011830
   11584:	00011830 	.word	0x00011830
   11588:	00011830 	.word	0x00011830
   1158c:	00011830 	.word	0x00011830
   11590:	00011830 	.word	0x00011830
   11594:	00011830 	.word	0x00011830
   11598:	00011830 	.word	0x00011830
   1159c:	00011798 	.word	0x00011798
   115a0:	00011830 	.word	0x00011830
   115a4:	00011830 	.word	0x00011830
   115a8:	00011830 	.word	0x00011830
   115ac:	000116f8 	.word	0x000116f8
   115b0:	00011830 	.word	0x00011830
   115b4:	00011774 	.word	0x00011774
   115b8:	00011830 	.word	0x00011830
   115bc:	00011830 	.word	0x00011830
   115c0:	00011788 	.word	0x00011788
   115c4:	e1a05000 	mov	r5, r0
   115c8:	e2889004 	add	r9, r8, #4
   115cc:	e1d880d0 	ldrsb	r8, [r8]
   115d0:	e3540000 	cmp	r4, #0
   115d4:	0a00000c 	beq	1160c <StringFormatV+0x1d0>
   115d8:	e3a02001 	mov	r2, #1
   115dc:	e1a01008 	mov	r1, r8
   115e0:	e1a00006 	mov	r0, r6
   115e4:	ebffff34 	bl	112bc <StringPutChar>
   115e8:	e35a0001 	cmp	sl, #1
   115ec:	91a08009 	movls	r8, r9
   115f0:	9a00009b 	bls	11864 <StringFormatV+0x428>
   115f4:	e24a2001 	sub	r2, sl, #1
   115f8:	e3a01020 	mov	r1, #32
   115fc:	e1a00006 	mov	r0, r6
   11600:	ebffff2d 	bl	112bc <StringPutChar>
   11604:	e1a08009 	mov	r8, r9
   11608:	ea000095 	b	11864 <StringFormatV+0x428>
   1160c:	e35a0001 	cmp	sl, #1
   11610:	9a000003 	bls	11624 <StringFormatV+0x1e8>
   11614:	e24a2001 	sub	r2, sl, #1
   11618:	e3a01020 	mov	r1, #32
   1161c:	e1a00006 	mov	r0, r6
   11620:	ebffff25 	bl	112bc <StringPutChar>
   11624:	e3a02001 	mov	r2, #1
   11628:	e1a01008 	mov	r1, r8
   1162c:	e1a00006 	mov	r0, r6
   11630:	ebffff21 	bl	112bc <StringPutChar>
   11634:	e1a08009 	mov	r8, r9
   11638:	ea000089 	b	11864 <StringFormatV+0x428>
   1163c:	e5981000 	ldr	r1, [r8]
   11640:	e1a05000 	mov	r5, r0
   11644:	e2888004 	add	r8, r8, #4
   11648:	ea000001 	b	11654 <StringFormatV+0x218>
   1164c:	e5981000 	ldr	r1, [r8]
   11650:	e2888004 	add	r8, r8, #4
   11654:	e3510000 	cmp	r1, #0
   11658:	aa0000af 	bge	1191c <StringFormatV+0x4e0>
   1165c:	e1a03007 	mov	r3, r7
   11660:	e3a0200a 	mov	r2, #10
   11664:	e2611000 	rsb	r1, r1, #0
   11668:	e28d0004 	add	r0, sp, #4
   1166c:	ebffff42 	bl	1137c <ntoa>
   11670:	e28d0004 	add	r0, sp, #4
   11674:	eb000100 	bl	11a7c <uspi_strlen>
   11678:	e2809001 	add	r9, r0, #1
   1167c:	e3540000 	cmp	r4, #0
   11680:	0a0000af 	beq	11944 <StringFormatV+0x508>
   11684:	e3a02001 	mov	r2, #1
   11688:	e3a0102d 	mov	r1, #45	; 0x2d
   1168c:	e1a00006 	mov	r0, r6
   11690:	ebffff09 	bl	112bc <StringPutChar>
   11694:	e28d1004 	add	r1, sp, #4
   11698:	e1a00006 	mov	r0, r6
   1169c:	ebffff1f 	bl	11320 <StringPutString>
   116a0:	e15a0009 	cmp	sl, r9
   116a4:	9a00006e 	bls	11864 <StringFormatV+0x428>
   116a8:	e069200a 	rsb	r2, r9, sl
   116ac:	e3a01020 	mov	r1, #32
   116b0:	e1a00006 	mov	r0, r6
   116b4:	ebffff00 	bl	112bc <StringPutChar>
   116b8:	ea000069 	b	11864 <StringFormatV+0x428>
   116bc:	e1a04007 	mov	r4, r7
   116c0:	e069200a 	rsb	r2, r9, sl
   116c4:	e3a01020 	mov	r1, #32
   116c8:	e1a00006 	mov	r0, r6
   116cc:	ebfffefa 	bl	112bc <StringPutChar>
   116d0:	e3540000 	cmp	r4, #0
   116d4:	0a000003 	beq	116e8 <StringFormatV+0x2ac>
   116d8:	e3a02001 	mov	r2, #1
   116dc:	e3a0102d 	mov	r1, #45	; 0x2d
   116e0:	e1a00006 	mov	r0, r6
   116e4:	ebfffef4 	bl	112bc <StringPutChar>
   116e8:	e28d1004 	add	r1, sp, #4
   116ec:	e1a00006 	mov	r0, r6
   116f0:	ebffff0a 	bl	11320 <StringPutString>
   116f4:	ea00005a 	b	11864 <StringFormatV+0x428>
   116f8:	e1a05000 	mov	r5, r0
   116fc:	e2889004 	add	r9, r8, #4
   11700:	e5988000 	ldr	r8, [r8]
   11704:	e1a00008 	mov	r0, r8
   11708:	eb0000db 	bl	11a7c <uspi_strlen>
   1170c:	e1a0b000 	mov	fp, r0
   11710:	e3540000 	cmp	r4, #0
   11714:	0a00000b 	beq	11748 <StringFormatV+0x30c>
   11718:	e1a01008 	mov	r1, r8
   1171c:	e1a00006 	mov	r0, r6
   11720:	ebfffefe 	bl	11320 <StringPutString>
   11724:	e15b000a 	cmp	fp, sl
   11728:	21a08009 	movcs	r8, r9
   1172c:	2a00004c 	bcs	11864 <StringFormatV+0x428>
   11730:	e06b200a 	rsb	r2, fp, sl
   11734:	e3a01020 	mov	r1, #32
   11738:	e1a00006 	mov	r0, r6
   1173c:	ebfffede 	bl	112bc <StringPutChar>
   11740:	e1a08009 	mov	r8, r9
   11744:	ea000046 	b	11864 <StringFormatV+0x428>
   11748:	e150000a 	cmp	r0, sl
   1174c:	2a000003 	bcs	11760 <StringFormatV+0x324>
   11750:	e060200a 	rsb	r2, r0, sl
   11754:	e3a01020 	mov	r1, #32
   11758:	e1a00006 	mov	r0, r6
   1175c:	ebfffed6 	bl	112bc <StringPutChar>
   11760:	e1a01008 	mov	r1, r8
   11764:	e1a00006 	mov	r0, r6
   11768:	ebfffeec 	bl	11320 <StringPutString>
   1176c:	e1a08009 	mov	r8, r9
   11770:	ea00003b 	b	11864 <StringFormatV+0x428>
   11774:	e1a05000 	mov	r5, r0
   11778:	eaffffff 	b	1177c <StringFormatV+0x340>
   1177c:	e3a03075 	mov	r3, #117	; 0x75
   11780:	e3a0200a 	mov	r2, #10
   11784:	ea000007 	b	117a8 <StringFormatV+0x36c>
   11788:	e1a05000 	mov	r5, r0
   1178c:	eaffffff 	b	11790 <StringFormatV+0x354>
   11790:	e3a02010 	mov	r2, #16
   11794:	ea000003 	b	117a8 <StringFormatV+0x36c>
   11798:	e1a05000 	mov	r5, r0
   1179c:	e3a02008 	mov	r2, #8
   117a0:	ea000000 	b	117a8 <StringFormatV+0x36c>
   117a4:	e3a02008 	mov	r2, #8
   117a8:	e5981000 	ldr	r1, [r8]
   117ac:	e2888004 	add	r8, r8, #4
   117b0:	e3530058 	cmp	r3, #88	; 0x58
   117b4:	13a03000 	movne	r3, #0
   117b8:	03a03001 	moveq	r3, #1
   117bc:	e28d0004 	add	r0, sp, #4
   117c0:	ebfffeed 	bl	1137c <ntoa>
   117c4:	e28d0004 	add	r0, sp, #4
   117c8:	eb0000ab 	bl	11a7c <uspi_strlen>
   117cc:	e1a0b000 	mov	fp, r0
   117d0:	e3540000 	cmp	r4, #0
   117d4:	0a000009 	beq	11800 <StringFormatV+0x3c4>
   117d8:	e28d1004 	add	r1, sp, #4
   117dc:	e1a00006 	mov	r0, r6
   117e0:	ebfffece 	bl	11320 <StringPutString>
   117e4:	e15b000a 	cmp	fp, sl
   117e8:	2a00001d 	bcs	11864 <StringFormatV+0x428>
   117ec:	e06b200a 	rsb	r2, fp, sl
   117f0:	e3a01020 	mov	r1, #32
   117f4:	e1a00006 	mov	r0, r6
   117f8:	ebfffeaf 	bl	112bc <StringPutChar>
   117fc:	ea000018 	b	11864 <StringFormatV+0x428>
   11800:	e150000a 	cmp	r0, sl
   11804:	2a000005 	bcs	11820 <StringFormatV+0x3e4>
   11808:	e060200a 	rsb	r2, r0, sl
   1180c:	e3590000 	cmp	r9, #0
   11810:	13a01030 	movne	r1, #48	; 0x30
   11814:	03a01020 	moveq	r1, #32
   11818:	e1a00006 	mov	r0, r6
   1181c:	ebfffea6 	bl	112bc <StringPutChar>
   11820:	e28d1004 	add	r1, sp, #4
   11824:	e1a00006 	mov	r0, r6
   11828:	ebfffebc 	bl	11320 <StringPutString>
   1182c:	ea00000c 	b	11864 <StringFormatV+0x428>
   11830:	e1a05000 	mov	r5, r0
   11834:	e3a02001 	mov	r2, #1
   11838:	e3a01025 	mov	r1, #37	; 0x25
   1183c:	e1a00006 	mov	r0, r6
   11840:	ebfffe9d 	bl	112bc <StringPutChar>
   11844:	e3a02001 	mov	r2, #1
   11848:	e1d510d0 	ldrsb	r1, [r5]
   1184c:	e1a00006 	mov	r0, r6
   11850:	ebfffe99 	bl	112bc <StringPutChar>
   11854:	ea000002 	b	11864 <StringFormatV+0x428>
   11858:	e3a02001 	mov	r2, #1
   1185c:	e1a00006 	mov	r0, r6
   11860:	ebfffe95 	bl	112bc <StringPutChar>
   11864:	e2855001 	add	r5, r5, #1
   11868:	e1d510d0 	ldrsb	r1, [r5]
   1186c:	e3510000 	cmp	r1, #0
   11870:	1affff06 	bne	11490 <StringFormatV+0x54>
   11874:	e5963008 	ldr	r3, [r6, #8]
   11878:	e3a02000 	mov	r2, #0
   1187c:	e5c32000 	strb	r2, [r3]
   11880:	ea000036 	b	11960 <StringFormatV+0x524>
   11884:	e1d530d0 	ldrsb	r3, [r5]
   11888:	e2432058 	sub	r2, r3, #88	; 0x58
   1188c:	e3520020 	cmp	r2, #32
   11890:	979ff102 	ldrls	pc, [pc, r2, lsl #2]
   11894:	eaffffe6 	b	11834 <StringFormatV+0x3f8>
   11898:	00011790 	.word	0x00011790
   1189c:	00011834 	.word	0x00011834
   118a0:	00011834 	.word	0x00011834
   118a4:	00011834 	.word	0x00011834
   118a8:	00011834 	.word	0x00011834
   118ac:	00011834 	.word	0x00011834
   118b0:	00011834 	.word	0x00011834
   118b4:	00011834 	.word	0x00011834
   118b8:	00011834 	.word	0x00011834
   118bc:	00011834 	.word	0x00011834
   118c0:	00011834 	.word	0x00011834
   118c4:	000115c8 	.word	0x000115c8
   118c8:	0001164c 	.word	0x0001164c
   118cc:	00011834 	.word	0x00011834
   118d0:	00011834 	.word	0x00011834
   118d4:	00011834 	.word	0x00011834
   118d8:	00011834 	.word	0x00011834
   118dc:	00011834 	.word	0x00011834
   118e0:	00011834 	.word	0x00011834
   118e4:	00011834 	.word	0x00011834
   118e8:	00011834 	.word	0x00011834
   118ec:	00011834 	.word	0x00011834
   118f0:	00011834 	.word	0x00011834
   118f4:	000117a4 	.word	0x000117a4
   118f8:	00011834 	.word	0x00011834
   118fc:	00011834 	.word	0x00011834
   11900:	00011834 	.word	0x00011834
   11904:	000116fc 	.word	0x000116fc
   11908:	00011834 	.word	0x00011834
   1190c:	0001177c 	.word	0x0001177c
   11910:	00011834 	.word	0x00011834
   11914:	00011834 	.word	0x00011834
   11918:	00011790 	.word	0x00011790
   1191c:	e1a03007 	mov	r3, r7
   11920:	e3a0200a 	mov	r2, #10
   11924:	e28d0004 	add	r0, sp, #4
   11928:	ebfffe93 	bl	1137c <ntoa>
   1192c:	e28d0004 	add	r0, sp, #4
   11930:	eb000051 	bl	11a7c <uspi_strlen>
   11934:	e1a09000 	mov	r9, r0
   11938:	e3540000 	cmp	r4, #0
   1193c:	0a000004 	beq	11954 <StringFormatV+0x518>
   11940:	eaffff53 	b	11694 <StringFormatV+0x258>
   11944:	e15a0009 	cmp	sl, r9
   11948:	83a04001 	movhi	r4, #1
   1194c:	8affff5b 	bhi	116c0 <StringFormatV+0x284>
   11950:	eaffff60 	b	116d8 <StringFormatV+0x29c>
   11954:	e15a0000 	cmp	sl, r0
   11958:	9affff62 	bls	116e8 <StringFormatV+0x2ac>
   1195c:	eaffff56 	b	116bc <StringFormatV+0x280>
   11960:	e28dd014 	add	sp, sp, #20
   11964:	e8bd8ff0 	pop	{r4, r5, r6, r7, r8, r9, sl, fp, pc}
   11968:	0001c4fc 	.word	0x0001c4fc
   1196c:	0001b4d8 	.word	0x0001b4d8

00011970 <StringFormat>:
   11970:	e92d000e 	push	{r1, r2, r3}
   11974:	e92d4010 	push	{r4, lr}
   11978:	e24dd00c 	sub	sp, sp, #12
   1197c:	e2504000 	subs	r4, r0, #0
   11980:	1a000003 	bne	11994 <StringFormat+0x24>
   11984:	e3a020a1 	mov	r2, #161	; 0xa1
   11988:	e59f1028 	ldr	r1, [pc, #40]	; 119b8 <StringFormat+0x48>
   1198c:	e59f0028 	ldr	r0, [pc, #40]	; 119bc <StringFormat+0x4c>
   11990:	eb001fbd 	bl	1988c <uspi_assertion_failed>
   11994:	e28d2018 	add	r2, sp, #24
   11998:	e58d2004 	str	r2, [sp, #4]
   1199c:	e59d1014 	ldr	r1, [sp, #20]
   119a0:	e1a00004 	mov	r0, r4
   119a4:	ebfffea4 	bl	1143c <StringFormatV>
   119a8:	e28dd00c 	add	sp, sp, #12
   119ac:	e8bd4010 	pop	{r4, lr}
   119b0:	e28dd00c 	add	sp, sp, #12
   119b4:	e12fff1e 	bx	lr
   119b8:	0001c4fc 	.word	0x0001c4fc
   119bc:	0001b4d8 	.word	0x0001b4d8

000119c0 <uspi_memset>:
   119c0:	e3520000 	cmp	r2, #0
   119c4:	012fff1e 	bxeq	lr
   119c8:	e0802002 	add	r2, r0, r2
   119cc:	e1a03000 	mov	r3, r0
   119d0:	e4c31001 	strb	r1, [r3], #1
   119d4:	e1520003 	cmp	r2, r3
   119d8:	1afffffc 	bne	119d0 <uspi_memset+0x10>
   119dc:	e12fff1e 	bx	lr

000119e0 <uspi_memcpy>:
   119e0:	e3520000 	cmp	r2, #0
   119e4:	012fff1e 	bxeq	lr
   119e8:	e2403001 	sub	r3, r0, #1
   119ec:	e0812002 	add	r2, r1, r2
   119f0:	e0d1c0d1 	ldrsb	ip, [r1], #1
   119f4:	e5e3c001 	strb	ip, [r3, #1]!
   119f8:	e1510002 	cmp	r1, r2
   119fc:	1afffffb 	bne	119f0 <uspi_memcpy+0x10>
   11a00:	e12fff1e 	bx	lr

00011a04 <uspi_memcmp>:
   11a04:	e3520000 	cmp	r2, #0
   11a08:	0a000011 	beq	11a54 <uspi_memcmp+0x50>
   11a0c:	e5d0c000 	ldrb	ip, [r0]
   11a10:	e5d13000 	ldrb	r3, [r1]
   11a14:	e15c0003 	cmp	ip, r3
   11a18:	8a00000f 	bhi	11a5c <uspi_memcmp+0x58>
   11a1c:	3a000010 	bcc	11a64 <uspi_memcmp+0x60>
   11a20:	e52de004 	push	{lr}		; (str lr, [sp, #-4]!)
   11a24:	e2803001 	add	r3, r0, #1
   11a28:	e0800002 	add	r0, r0, r2
   11a2c:	ea000004 	b	11a44 <uspi_memcmp+0x40>
   11a30:	e4d3e001 	ldrb	lr, [r3], #1
   11a34:	e5f1c001 	ldrb	ip, [r1, #1]!
   11a38:	e15e000c 	cmp	lr, ip
   11a3c:	8a00000a 	bhi	11a6c <uspi_memcmp+0x68>
   11a40:	3a00000b 	bcc	11a74 <uspi_memcmp+0x70>
   11a44:	e1530000 	cmp	r3, r0
   11a48:	1afffff8 	bne	11a30 <uspi_memcmp+0x2c>
   11a4c:	e3a00000 	mov	r0, #0
   11a50:	e49df004 	pop	{pc}		; (ldr pc, [sp], #4)
   11a54:	e3a00000 	mov	r0, #0
   11a58:	e12fff1e 	bx	lr
   11a5c:	e3a00001 	mov	r0, #1
   11a60:	e12fff1e 	bx	lr
   11a64:	e3e00000 	mvn	r0, #0
   11a68:	e12fff1e 	bx	lr
   11a6c:	e3a00001 	mov	r0, #1
   11a70:	e49df004 	pop	{pc}		; (ldr pc, [sp], #4)
   11a74:	e3e00000 	mvn	r0, #0
   11a78:	e49df004 	pop	{pc}		; (ldr pc, [sp], #4)

00011a7c <uspi_strlen>:
   11a7c:	e1a01000 	mov	r1, r0
   11a80:	e2803001 	add	r3, r0, #1
   11a84:	e1d020d0 	ldrsb	r2, [r0]
   11a88:	e3520000 	cmp	r2, #0
   11a8c:	0a000004 	beq	11aa4 <uspi_strlen+0x28>
   11a90:	e0610003 	rsb	r0, r1, r3
   11a94:	e0d320d1 	ldrsb	r2, [r3], #1
   11a98:	e3520000 	cmp	r2, #0
   11a9c:	1afffffb 	bne	11a90 <uspi_strlen+0x14>
   11aa0:	e12fff1e 	bx	lr
   11aa4:	e3a00000 	mov	r0, #0
   11aa8:	e12fff1e 	bx	lr

00011aac <uspi_strcmp>:
   11aac:	e1d030d0 	ldrsb	r3, [r0]
   11ab0:	e3530000 	cmp	r3, #0
   11ab4:	0a000011 	beq	11b00 <uspi_strcmp+0x54>
   11ab8:	e1d120d0 	ldrsb	r2, [r1]
   11abc:	e3520000 	cmp	r2, #0
   11ac0:	0a00000e 	beq	11b00 <uspi_strcmp+0x54>
   11ac4:	e1530002 	cmp	r3, r2
   11ac8:	ca000013 	bgt	11b1c <uspi_strcmp+0x70>
   11acc:	ba000014 	blt	11b24 <uspi_strcmp+0x78>
   11ad0:	e281c001 	add	ip, r1, #1
   11ad4:	ea000002 	b	11ae4 <uspi_strcmp+0x38>
   11ad8:	e1530002 	cmp	r3, r2
   11adc:	ca000012 	bgt	11b2c <uspi_strcmp+0x80>
   11ae0:	ba000013 	blt	11b34 <uspi_strcmp+0x88>
   11ae4:	e1a0100c 	mov	r1, ip
   11ae8:	e1f030d1 	ldrsb	r3, [r0, #1]!
   11aec:	e3530000 	cmp	r3, #0
   11af0:	0a000002 	beq	11b00 <uspi_strcmp+0x54>
   11af4:	e0dc20d1 	ldrsb	r2, [ip], #1
   11af8:	e3520000 	cmp	r2, #0
   11afc:	1afffff5 	bne	11ad8 <uspi_strcmp+0x2c>
   11b00:	e1d100d0 	ldrsb	r0, [r1]
   11b04:	e1500003 	cmp	r0, r3
   11b08:	ba00000b 	blt	11b3c <uspi_strcmp+0x90>
   11b0c:	e1500003 	cmp	r0, r3
   11b10:	d3a00000 	movle	r0, #0
   11b14:	c3e00000 	mvngt	r0, #0
   11b18:	e12fff1e 	bx	lr
   11b1c:	e3a00001 	mov	r0, #1
   11b20:	e12fff1e 	bx	lr
   11b24:	e3e00000 	mvn	r0, #0
   11b28:	e12fff1e 	bx	lr
   11b2c:	e3a00001 	mov	r0, #1
   11b30:	e12fff1e 	bx	lr
   11b34:	e3e00000 	mvn	r0, #0
   11b38:	e12fff1e 	bx	lr
   11b3c:	e3a00001 	mov	r0, #1
   11b40:	e12fff1e 	bx	lr

00011b44 <uspi_strcpy>:
   11b44:	e1d130d0 	ldrsb	r3, [r1]
   11b48:	e3530000 	cmp	r3, #0
   11b4c:	0a000005 	beq	11b68 <uspi_strcpy+0x24>
   11b50:	e1a02000 	mov	r2, r0
   11b54:	e4c23001 	strb	r3, [r2], #1
   11b58:	e1f130d1 	ldrsb	r3, [r1, #1]!
   11b5c:	e3530000 	cmp	r3, #0
   11b60:	1afffffb 	bne	11b54 <uspi_strcpy+0x10>
   11b64:	ea000000 	b	11b6c <uspi_strcpy+0x28>
   11b68:	e1a02000 	mov	r2, r0
   11b6c:	e3a03000 	mov	r3, #0
   11b70:	e5c23000 	strb	r3, [r2]
   11b74:	e12fff1e 	bx	lr

00011b78 <uspi_strncpy>:
   11b78:	e3520000 	cmp	r2, #0
   11b7c:	012fff1e 	bxeq	lr
   11b80:	e52de004 	push	{lr}		; (str lr, [sp, #-4]!)
   11b84:	e1d130d0 	ldrsb	r3, [r1]
   11b88:	e3530000 	cmp	r3, #0
   11b8c:	0a00000a 	beq	11bbc <uspi_strncpy+0x44>
   11b90:	e281c001 	add	ip, r1, #1
   11b94:	e0811002 	add	r1, r1, r2
   11b98:	e1a0e000 	mov	lr, r0
   11b9c:	ea000002 	b	11bac <uspi_strncpy+0x34>
   11ba0:	e0dc30d1 	ldrsb	r3, [ip], #1
   11ba4:	e3530000 	cmp	r3, #0
   11ba8:	0a000004 	beq	11bc0 <uspi_strncpy+0x48>
   11bac:	e4ce3001 	strb	r3, [lr], #1
   11bb0:	e15c0001 	cmp	ip, r1
   11bb4:	1afffff9 	bne	11ba0 <uspi_strncpy+0x28>
   11bb8:	e49df004 	pop	{pc}		; (ldr pc, [sp], #4)
   11bbc:	e1a0e000 	mov	lr, r0
   11bc0:	e3a03000 	mov	r3, #0
   11bc4:	e5ce3000 	strb	r3, [lr]
   11bc8:	e49df004 	pop	{pc}		; (ldr pc, [sp], #4)

00011bcc <uspi_strcat>:
   11bcc:	e1d030d0 	ldrsb	r3, [r0]
   11bd0:	e3530000 	cmp	r3, #0
   11bd4:	0a000004 	beq	11bec <uspi_strcat+0x20>
   11bd8:	e1a03000 	mov	r3, r0
   11bdc:	e1f320d1 	ldrsb	r2, [r3, #1]!
   11be0:	e3520000 	cmp	r2, #0
   11be4:	1afffffc 	bne	11bdc <uspi_strcat+0x10>
   11be8:	ea000000 	b	11bf0 <uspi_strcat+0x24>
   11bec:	e1a03000 	mov	r3, r0
   11bf0:	e1d120d0 	ldrsb	r2, [r1]
   11bf4:	e3520000 	cmp	r2, #0
   11bf8:	0a000003 	beq	11c0c <uspi_strcat+0x40>
   11bfc:	e4c32001 	strb	r2, [r3], #1
   11c00:	e1f120d1 	ldrsb	r2, [r1, #1]!
   11c04:	e3520000 	cmp	r2, #0
   11c08:	1afffffb 	bne	11bfc <uspi_strcat+0x30>
   11c0c:	e3a02000 	mov	r2, #0
   11c10:	e5c32000 	strb	r2, [r3]
   11c14:	e12fff1e 	bx	lr

00011c18 <uspi_char2int>:
   11c18:	e12fff1e 	bx	lr

00011c1c <uspi_le2be16>:
   11c1c:	e1a03420 	lsr	r3, r0, #8
   11c20:	e1830400 	orr	r0, r3, r0, lsl #8
   11c24:	e6ff0070 	uxth	r0, r0
   11c28:	e12fff1e 	bx	lr

00011c2c <uspi_le2be32>:
   11c2c:	e1a03c20 	lsr	r3, r0, #24
   11c30:	e1833c00 	orr	r3, r3, r0, lsl #24
   11c34:	e2002cff 	and	r2, r0, #65280	; 0xff00
   11c38:	e1833402 	orr	r3, r3, r2, lsl #8
   11c3c:	e20008ff 	and	r0, r0, #16711680	; 0xff0000
   11c40:	e1830420 	orr	r0, r3, r0, lsr #8
   11c44:	e12fff1e 	bx	lr

00011c48 <USBBulkOnlyMassStorageDevice>:
   11c48:	e92d4070 	push	{r4, r5, r6, lr}
   11c4c:	e1a05001 	mov	r5, r1
   11c50:	e2504000 	subs	r4, r0, #0
   11c54:	1a000003 	bne	11c68 <USBBulkOnlyMassStorageDevice+0x20>
   11c58:	e3a020c8 	mov	r2, #200	; 0xc8
   11c5c:	e59f103c 	ldr	r1, [pc, #60]	; 11ca0 <USBBulkOnlyMassStorageDevice+0x58>
   11c60:	e59f003c 	ldr	r0, [pc, #60]	; 11ca4 <USBBulkOnlyMassStorageDevice+0x5c>
   11c64:	eb001f08 	bl	1988c <uspi_assertion_failed>
   11c68:	e1a01005 	mov	r1, r5
   11c6c:	e1a00004 	mov	r0, r4
   11c70:	ebfff2c0 	bl	e778 <USBDeviceCopy>
   11c74:	e59f302c 	ldr	r3, [pc, #44]	; 11ca8 <USBBulkOnlyMassStorageDevice+0x60>
   11c78:	e5843000 	str	r3, [r4]
   11c7c:	e3a03000 	mov	r3, #0
   11c80:	e5843038 	str	r3, [r4, #56]	; 0x38
   11c84:	e584303c 	str	r3, [r4, #60]	; 0x3c
   11c88:	e5843040 	str	r3, [r4, #64]	; 0x40
   11c8c:	e5843044 	str	r3, [r4, #68]	; 0x44
   11c90:	e3a02000 	mov	r2, #0
   11c94:	e3a03000 	mov	r3, #0
   11c98:	e1c424f8 	strd	r2, [r4, #72]	; 0x48
   11c9c:	e8bd8070 	pop	{r4, r5, r6, pc}
   11ca0:	0001c510 	.word	0x0001c510
   11ca4:	0001b4d8 	.word	0x0001b4d8
   11ca8:	00012034 	.word	0x00012034

00011cac <_USBBulkOnlyMassStorageDevice>:
   11cac:	e92d4010 	push	{r4, lr}
   11cb0:	e2504000 	subs	r4, r0, #0
   11cb4:	1a000003 	bne	11cc8 <_USBBulkOnlyMassStorageDevice+0x1c>
   11cb8:	e3a020d6 	mov	r2, #214	; 0xd6
   11cbc:	e59f1050 	ldr	r1, [pc, #80]	; 11d14 <_USBBulkOnlyMassStorageDevice+0x68>
   11cc0:	e59f0050 	ldr	r0, [pc, #80]	; 11d18 <_USBBulkOnlyMassStorageDevice+0x6c>
   11cc4:	eb001ef0 	bl	1988c <uspi_assertion_failed>
   11cc8:	e594003c 	ldr	r0, [r4, #60]	; 0x3c
   11ccc:	e3500000 	cmp	r0, #0
   11cd0:	0a000004 	beq	11ce8 <_USBBulkOnlyMassStorageDevice+0x3c>
   11cd4:	ebfff655 	bl	f630 <_USBEndpoint>
   11cd8:	e594003c 	ldr	r0, [r4, #60]	; 0x3c
   11cdc:	eb00172c 	bl	17994 <free>
   11ce0:	e3a03000 	mov	r3, #0
   11ce4:	e584303c 	str	r3, [r4, #60]	; 0x3c
   11ce8:	e5940038 	ldr	r0, [r4, #56]	; 0x38
   11cec:	e3500000 	cmp	r0, #0
   11cf0:	0a000004 	beq	11d08 <_USBBulkOnlyMassStorageDevice+0x5c>
   11cf4:	ebfff64d 	bl	f630 <_USBEndpoint>
   11cf8:	e5940038 	ldr	r0, [r4, #56]	; 0x38
   11cfc:	eb001724 	bl	17994 <free>
   11d00:	e3a03000 	mov	r3, #0
   11d04:	e5843038 	str	r3, [r4, #56]	; 0x38
   11d08:	e1a00004 	mov	r0, r4
   11d0c:	ebfff30d 	bl	e948 <_USBDevice>
   11d10:	e8bd8010 	pop	{r4, pc}
   11d14:	0001c510 	.word	0x0001c510
   11d18:	0001b4d8 	.word	0x0001b4d8

00011d1c <USBBulkOnlyMassStorageDeviceSeek>:
   11d1c:	e92d4070 	push	{r4, r5, r6, lr}
   11d20:	e1a04002 	mov	r4, r2
   11d24:	e1a05003 	mov	r5, r3
   11d28:	e2506000 	subs	r6, r0, #0
   11d2c:	1a000003 	bne	11d40 <USBBulkOnlyMassStorageDeviceSeek+0x24>
   11d30:	e59f2018 	ldr	r2, [pc, #24]	; 11d50 <USBBulkOnlyMassStorageDeviceSeek+0x34>
   11d34:	e59f1018 	ldr	r1, [pc, #24]	; 11d54 <USBBulkOnlyMassStorageDeviceSeek+0x38>
   11d38:	e59f0018 	ldr	r0, [pc, #24]	; 11d58 <USBBulkOnlyMassStorageDeviceSeek+0x3c>
   11d3c:	eb001ed2 	bl	1988c <uspi_assertion_failed>
   11d40:	e1c644f8 	strd	r4, [r6, #72]	; 0x48
   11d44:	e1a00004 	mov	r0, r4
   11d48:	e1a01005 	mov	r1, r5
   11d4c:	e8bd8070 	pop	{r4, r5, r6, pc}
   11d50:	000001e5 	.word	0x000001e5
   11d54:	0001c510 	.word	0x0001c510
   11d58:	0001b4d8 	.word	0x0001b4d8

00011d5c <USBBulkOnlyMassStorageDeviceGetCapacity>:
   11d5c:	e92d4010 	push	{r4, lr}
   11d60:	e2504000 	subs	r4, r0, #0
   11d64:	1a000003 	bne	11d78 <USBBulkOnlyMassStorageDeviceGetCapacity+0x1c>
   11d68:	e59f2010 	ldr	r2, [pc, #16]	; 11d80 <USBBulkOnlyMassStorageDeviceGetCapacity+0x24>
   11d6c:	e59f1010 	ldr	r1, [pc, #16]	; 11d84 <USBBulkOnlyMassStorageDeviceGetCapacity+0x28>
   11d70:	e59f0010 	ldr	r0, [pc, #16]	; 11d88 <USBBulkOnlyMassStorageDeviceGetCapacity+0x2c>
   11d74:	eb001ec4 	bl	1988c <uspi_assertion_failed>
   11d78:	e5940044 	ldr	r0, [r4, #68]	; 0x44
   11d7c:	e8bd8010 	pop	{r4, pc}
   11d80:	000001ee 	.word	0x000001ee
   11d84:	0001c510 	.word	0x0001c510
   11d88:	0001b4d8 	.word	0x0001b4d8

00011d8c <USBBulkOnlyMassStorageDeviceCommand>:
   11d8c:	e92d43f0 	push	{r4, r5, r6, r7, r8, r9, lr}
   11d90:	e24dd034 	sub	sp, sp, #52	; 0x34
   11d94:	e1a07001 	mov	r7, r1
   11d98:	e1a06002 	mov	r6, r2
   11d9c:	e1a08003 	mov	r8, r3
   11da0:	e59d5050 	ldr	r5, [sp, #80]	; 0x50
   11da4:	e59d9054 	ldr	r9, [sp, #84]	; 0x54
   11da8:	e2504000 	subs	r4, r0, #0
   11dac:	1a000003 	bne	11dc0 <USBBulkOnlyMassStorageDeviceCommand+0x34>
   11db0:	e59f2234 	ldr	r2, [pc, #564]	; 11fec <USBBulkOnlyMassStorageDeviceCommand+0x260>
   11db4:	e59f1234 	ldr	r1, [pc, #564]	; 11ff0 <USBBulkOnlyMassStorageDeviceCommand+0x264>
   11db8:	e59f0234 	ldr	r0, [pc, #564]	; 11ff4 <USBBulkOnlyMassStorageDeviceCommand+0x268>
   11dbc:	eb001eb2 	bl	1988c <uspi_assertion_failed>
   11dc0:	e3570000 	cmp	r7, #0
   11dc4:	1a000003 	bne	11dd8 <USBBulkOnlyMassStorageDeviceCommand+0x4c>
   11dc8:	e59f2228 	ldr	r2, [pc, #552]	; 11ff8 <USBBulkOnlyMassStorageDeviceCommand+0x26c>
   11dcc:	e59f121c 	ldr	r1, [pc, #540]	; 11ff0 <USBBulkOnlyMassStorageDeviceCommand+0x264>
   11dd0:	e59f0224 	ldr	r0, [pc, #548]	; 11ffc <USBBulkOnlyMassStorageDeviceCommand+0x270>
   11dd4:	eb001eac 	bl	1988c <uspi_assertion_failed>
   11dd8:	e2463006 	sub	r3, r6, #6
   11ddc:	e353000a 	cmp	r3, #10
   11de0:	9a000003 	bls	11df4 <USBBulkOnlyMassStorageDeviceCommand+0x68>
   11de4:	e3a02f93 	mov	r2, #588	; 0x24c
   11de8:	e59f1200 	ldr	r1, [pc, #512]	; 11ff0 <USBBulkOnlyMassStorageDeviceCommand+0x264>
   11dec:	e59f020c 	ldr	r0, [pc, #524]	; 12000 <USBBulkOnlyMassStorageDeviceCommand+0x274>
   11df0:	eb001ea5 	bl	1988c <uspi_assertion_failed>
   11df4:	e2953000 	adds	r3, r5, #0
   11df8:	13a03001 	movne	r3, #1
   11dfc:	e3580000 	cmp	r8, #0
   11e00:	13a03000 	movne	r3, #0
   11e04:	e3530000 	cmp	r3, #0
   11e08:	0a000003 	beq	11e1c <USBBulkOnlyMassStorageDeviceCommand+0x90>
   11e0c:	e59f21f0 	ldr	r2, [pc, #496]	; 12004 <USBBulkOnlyMassStorageDeviceCommand+0x278>
   11e10:	e59f11d8 	ldr	r1, [pc, #472]	; 11ff0 <USBBulkOnlyMassStorageDeviceCommand+0x264>
   11e14:	e59f01ec 	ldr	r0, [pc, #492]	; 12008 <USBBulkOnlyMassStorageDeviceCommand+0x27c>
   11e18:	eb001e9b 	bl	1988c <uspi_assertion_failed>
   11e1c:	e3a0201f 	mov	r2, #31
   11e20:	e3a01000 	mov	r1, #0
   11e24:	e28d0010 	add	r0, sp, #16
   11e28:	ebfffee4 	bl	119c0 <uspi_memset>
   11e2c:	e59f31d8 	ldr	r3, [pc, #472]	; 1200c <USBBulkOnlyMassStorageDeviceCommand+0x280>
   11e30:	e58d3010 	str	r3, [sp, #16]
   11e34:	e5943040 	ldr	r3, [r4, #64]	; 0x40
   11e38:	e2833001 	add	r3, r3, #1
   11e3c:	e5843040 	str	r3, [r4, #64]	; 0x40
   11e40:	e58d3014 	str	r3, [sp, #20]
   11e44:	e58d5018 	str	r5, [sp, #24]
   11e48:	e3590000 	cmp	r9, #0
   11e4c:	13a03080 	movne	r3, #128	; 0x80
   11e50:	03a03000 	moveq	r3, #0
   11e54:	e5cd301c 	strb	r3, [sp, #28]
   11e58:	e5dd301d 	ldrb	r3, [sp, #29]
   11e5c:	e3c3300f 	bic	r3, r3, #15
   11e60:	e5cd301d 	strb	r3, [sp, #29]
   11e64:	e5dd301e 	ldrb	r3, [sp, #30]
   11e68:	e206201f 	and	r2, r6, #31
   11e6c:	e3c3301f 	bic	r3, r3, #31
   11e70:	e1823003 	orr	r3, r2, r3
   11e74:	e5cd301e 	strb	r3, [sp, #30]
   11e78:	e1a02006 	mov	r2, r6
   11e7c:	e1a01007 	mov	r1, r7
   11e80:	e28d001f 	add	r0, sp, #31
   11e84:	ebfffed5 	bl	119e0 <uspi_memcpy>
   11e88:	e1a00004 	mov	r0, r4
   11e8c:	ebfff38f 	bl	ecd0 <USBDeviceGetHost>
   11e90:	e2506000 	subs	r6, r0, #0
   11e94:	1a000003 	bne	11ea8 <USBBulkOnlyMassStorageDeviceCommand+0x11c>
   11e98:	e3a02f97 	mov	r2, #604	; 0x25c
   11e9c:	e59f114c 	ldr	r1, [pc, #332]	; 11ff0 <USBBulkOnlyMassStorageDeviceCommand+0x264>
   11ea0:	e59f0168 	ldr	r0, [pc, #360]	; 12010 <USBBulkOnlyMassStorageDeviceCommand+0x284>
   11ea4:	eb001e78 	bl	1988c <uspi_assertion_failed>
   11ea8:	e3a0301f 	mov	r3, #31
   11eac:	e28d2010 	add	r2, sp, #16
   11eb0:	e594103c 	ldr	r1, [r4, #60]	; 0x3c
   11eb4:	e1a00006 	mov	r0, r6
   11eb8:	ebffe7af 	bl	bd7c <DWHCIDeviceTransfer>
   11ebc:	e3500000 	cmp	r0, #0
   11ec0:	aa000005 	bge	11edc <USBBulkOnlyMassStorageDeviceCommand+0x150>
   11ec4:	e59f2148 	ldr	r2, [pc, #328]	; 12014 <USBBulkOnlyMassStorageDeviceCommand+0x288>
   11ec8:	e3a01001 	mov	r1, #1
   11ecc:	e59f0144 	ldr	r0, [pc, #324]	; 12018 <USBBulkOnlyMassStorageDeviceCommand+0x28c>
   11ed0:	eb001e5b 	bl	19844 <LogWrite>
   11ed4:	e3e00000 	mvn	r0, #0
   11ed8:	ea000041 	b	11fe4 <USBBulkOnlyMassStorageDeviceCommand+0x258>
   11edc:	e3550000 	cmp	r5, #0
   11ee0:	0a00000e 	beq	11f20 <USBBulkOnlyMassStorageDeviceCommand+0x194>
   11ee4:	e3590000 	cmp	r9, #0
   11ee8:	15941038 	ldrne	r1, [r4, #56]	; 0x38
   11eec:	0594103c 	ldreq	r1, [r4, #60]	; 0x3c
   11ef0:	e1a03005 	mov	r3, r5
   11ef4:	e1a02008 	mov	r2, r8
   11ef8:	e1a00006 	mov	r0, r6
   11efc:	ebffe79e 	bl	bd7c <DWHCIDeviceTransfer>
   11f00:	e2505000 	subs	r5, r0, #0
   11f04:	aa000006 	bge	11f24 <USBBulkOnlyMassStorageDeviceCommand+0x198>
   11f08:	e59f210c 	ldr	r2, [pc, #268]	; 1201c <USBBulkOnlyMassStorageDeviceCommand+0x290>
   11f0c:	e3a01001 	mov	r1, #1
   11f10:	e59f0100 	ldr	r0, [pc, #256]	; 12018 <USBBulkOnlyMassStorageDeviceCommand+0x28c>
   11f14:	eb001e4a 	bl	19844 <LogWrite>
   11f18:	e3e00000 	mvn	r0, #0
   11f1c:	ea000030 	b	11fe4 <USBBulkOnlyMassStorageDeviceCommand+0x258>
   11f20:	e3a05000 	mov	r5, #0
   11f24:	e3a0300d 	mov	r3, #13
   11f28:	e1a0200d 	mov	r2, sp
   11f2c:	e5941038 	ldr	r1, [r4, #56]	; 0x38
   11f30:	e1a00006 	mov	r0, r6
   11f34:	ebffe790 	bl	bd7c <DWHCIDeviceTransfer>
   11f38:	e350000d 	cmp	r0, #13
   11f3c:	0a000005 	beq	11f58 <USBBulkOnlyMassStorageDeviceCommand+0x1cc>
   11f40:	e59f20d8 	ldr	r2, [pc, #216]	; 12020 <USBBulkOnlyMassStorageDeviceCommand+0x294>
   11f44:	e3a01001 	mov	r1, #1
   11f48:	e59f00c8 	ldr	r0, [pc, #200]	; 12018 <USBBulkOnlyMassStorageDeviceCommand+0x28c>
   11f4c:	eb001e3c 	bl	19844 <LogWrite>
   11f50:	e3e00000 	mvn	r0, #0
   11f54:	ea000022 	b	11fe4 <USBBulkOnlyMassStorageDeviceCommand+0x258>
   11f58:	e59d2000 	ldr	r2, [sp]
   11f5c:	e59f30c0 	ldr	r3, [pc, #192]	; 12024 <USBBulkOnlyMassStorageDeviceCommand+0x298>
   11f60:	e1520003 	cmp	r2, r3
   11f64:	0a000005 	beq	11f80 <USBBulkOnlyMassStorageDeviceCommand+0x1f4>
   11f68:	e59f20b8 	ldr	r2, [pc, #184]	; 12028 <USBBulkOnlyMassStorageDeviceCommand+0x29c>
   11f6c:	e3a01001 	mov	r1, #1
   11f70:	e59f00a0 	ldr	r0, [pc, #160]	; 12018 <USBBulkOnlyMassStorageDeviceCommand+0x28c>
   11f74:	eb001e32 	bl	19844 <LogWrite>
   11f78:	e3e00000 	mvn	r0, #0
   11f7c:	ea000018 	b	11fe4 <USBBulkOnlyMassStorageDeviceCommand+0x258>
   11f80:	e5943040 	ldr	r3, [r4, #64]	; 0x40
   11f84:	e59d2004 	ldr	r2, [sp, #4]
   11f88:	e1520003 	cmp	r2, r3
   11f8c:	0a000005 	beq	11fa8 <USBBulkOnlyMassStorageDeviceCommand+0x21c>
   11f90:	e59f2094 	ldr	r2, [pc, #148]	; 1202c <USBBulkOnlyMassStorageDeviceCommand+0x2a0>
   11f94:	e3a01001 	mov	r1, #1
   11f98:	e59f0078 	ldr	r0, [pc, #120]	; 12018 <USBBulkOnlyMassStorageDeviceCommand+0x28c>
   11f9c:	eb001e28 	bl	19844 <LogWrite>
   11fa0:	e3e00000 	mvn	r0, #0
   11fa4:	ea00000e 	b	11fe4 <USBBulkOnlyMassStorageDeviceCommand+0x258>
   11fa8:	e5dd300c 	ldrb	r3, [sp, #12]
   11fac:	e3530000 	cmp	r3, #0
   11fb0:	1a000009 	bne	11fdc <USBBulkOnlyMassStorageDeviceCommand+0x250>
   11fb4:	e59d3008 	ldr	r3, [sp, #8]
   11fb8:	e3530000 	cmp	r3, #0
   11fbc:	01a00005 	moveq	r0, r5
   11fc0:	0a000007 	beq	11fe4 <USBBulkOnlyMassStorageDeviceCommand+0x258>
   11fc4:	e59f2064 	ldr	r2, [pc, #100]	; 12030 <USBBulkOnlyMassStorageDeviceCommand+0x2a4>
   11fc8:	e3a01001 	mov	r1, #1
   11fcc:	e59f0044 	ldr	r0, [pc, #68]	; 12018 <USBBulkOnlyMassStorageDeviceCommand+0x28c>
   11fd0:	eb001e1b 	bl	19844 <LogWrite>
   11fd4:	e3e00000 	mvn	r0, #0
   11fd8:	ea000001 	b	11fe4 <USBBulkOnlyMassStorageDeviceCommand+0x258>
   11fdc:	e3e00000 	mvn	r0, #0
   11fe0:	eaffffff 	b	11fe4 <USBBulkOnlyMassStorageDeviceCommand+0x258>
   11fe4:	e28dd034 	add	sp, sp, #52	; 0x34
   11fe8:	e8bd83f0 	pop	{r4, r5, r6, r7, r8, r9, pc}
   11fec:	00000249 	.word	0x00000249
   11ff0:	0001c510 	.word	0x0001c510
   11ff4:	0001b4d8 	.word	0x0001b4d8
   11ff8:	0000024b 	.word	0x0000024b
   11ffc:	0001c520 	.word	0x0001c520
   12000:	0001c530 	.word	0x0001c530
   12004:	0000024d 	.word	0x0000024d
   12008:	0001c554 	.word	0x0001c554
   1200c:	43425355 	.word	0x43425355
   12010:	0001c574 	.word	0x0001c574
   12014:	0001c580 	.word	0x0001c580
   12018:	0001c508 	.word	0x0001c508
   1201c:	0001c594 	.word	0x0001c594
   12020:	0001c5ac 	.word	0x0001c5ac
   12024:	53425355 	.word	0x53425355
   12028:	0001c5c0 	.word	0x0001c5c0
   1202c:	0001c5d8 	.word	0x0001c5d8
   12030:	0001c5ec 	.word	0x0001c5ec

00012034 <USBBulkOnlyMassStorageDeviceConfigure>:
   12034:	e92d4ff0 	push	{r4, r5, r6, r7, r8, r9, sl, fp, lr}
   12038:	e24dd07c 	sub	sp, sp, #124	; 0x7c
   1203c:	e2504000 	subs	r4, r0, #0
   12040:	1a000003 	bne	12054 <USBBulkOnlyMassStorageDeviceConfigure+0x20>
   12044:	e3a020ec 	mov	r2, #236	; 0xec
   12048:	e59f1494 	ldr	r1, [pc, #1172]	; 124e4 <USBBulkOnlyMassStorageDeviceConfigure+0x4b0>
   1204c:	e59f0494 	ldr	r0, [pc, #1172]	; 124e8 <USBBulkOnlyMassStorageDeviceConfigure+0x4b4>
   12050:	eb001e0d 	bl	1988c <uspi_assertion_failed>
   12054:	e1a05004 	mov	r5, r4
   12058:	e3a01002 	mov	r1, #2
   1205c:	e1a00004 	mov	r0, r4
   12060:	ebfff357 	bl	edc4 <USBDeviceGetDescriptor>
   12064:	e3500000 	cmp	r0, #0
   12068:	0a000002 	beq	12078 <USBBulkOnlyMassStorageDeviceConfigure+0x44>
   1206c:	e5d03004 	ldrb	r3, [r0, #4]
   12070:	e3530000 	cmp	r3, #0
   12074:	1a000004 	bne	1208c <USBBulkOnlyMassStorageDeviceConfigure+0x58>
   12078:	e59f146c 	ldr	r1, [pc, #1132]	; 124ec <USBBulkOnlyMassStorageDeviceConfigure+0x4b8>
   1207c:	e1a00004 	mov	r0, r4
   12080:	ebfff367 	bl	ee24 <USBDeviceConfigurationError>
   12084:	e3a05000 	mov	r5, #0
   12088:	ea000112 	b	124d8 <USBBulkOnlyMassStorageDeviceConfigure+0x4a4>
   1208c:	e3a01004 	mov	r1, #4
   12090:	e1a00004 	mov	r0, r4
   12094:	ebfff34a 	bl	edc4 <USBDeviceGetDescriptor>
   12098:	e3500000 	cmp	r0, #0
   1209c:	0a000011 	beq	120e8 <USBBulkOnlyMassStorageDeviceConfigure+0xb4>
   120a0:	e5d03002 	ldrb	r3, [r0, #2]
   120a4:	e3530000 	cmp	r3, #0
   120a8:	1a00000e 	bne	120e8 <USBBulkOnlyMassStorageDeviceConfigure+0xb4>
   120ac:	e5d03003 	ldrb	r3, [r0, #3]
   120b0:	e3530000 	cmp	r3, #0
   120b4:	1a00000b 	bne	120e8 <USBBulkOnlyMassStorageDeviceConfigure+0xb4>
   120b8:	e5d03004 	ldrb	r3, [r0, #4]
   120bc:	e3530001 	cmp	r3, #1
   120c0:	9a000008 	bls	120e8 <USBBulkOnlyMassStorageDeviceConfigure+0xb4>
   120c4:	e5d03005 	ldrb	r3, [r0, #5]
   120c8:	e3530008 	cmp	r3, #8
   120cc:	1a000005 	bne	120e8 <USBBulkOnlyMassStorageDeviceConfigure+0xb4>
   120d0:	e5d03006 	ldrb	r3, [r0, #6]
   120d4:	e3530006 	cmp	r3, #6
   120d8:	1a000002 	bne	120e8 <USBBulkOnlyMassStorageDeviceConfigure+0xb4>
   120dc:	e5d03007 	ldrb	r3, [r0, #7]
   120e0:	e3530050 	cmp	r3, #80	; 0x50
   120e4:	0a000037 	beq	121c8 <USBBulkOnlyMassStorageDeviceConfigure+0x194>
   120e8:	e59f13fc 	ldr	r1, [pc, #1020]	; 124ec <USBBulkOnlyMassStorageDeviceConfigure+0x4b8>
   120ec:	e1a00004 	mov	r0, r4
   120f0:	ebfff34b 	bl	ee24 <USBDeviceConfigurationError>
   120f4:	e3a05000 	mov	r5, #0
   120f8:	ea0000f6 	b	124d8 <USBBulkOnlyMassStorageDeviceConfigure+0x4a4>
   120fc:	e5d63003 	ldrb	r3, [r6, #3]
   12100:	e203303f 	and	r3, r3, #63	; 0x3f
   12104:	e3530002 	cmp	r3, #2
   12108:	1a000033 	bne	121dc <USBBulkOnlyMassStorageDeviceConfigure+0x1a8>
   1210c:	e1d630d2 	ldrsb	r3, [r6, #2]
   12110:	e3530000 	cmp	r3, #0
   12114:	aa000015 	bge	12170 <USBBulkOnlyMassStorageDeviceConfigure+0x13c>
   12118:	e5943038 	ldr	r3, [r4, #56]	; 0x38
   1211c:	e3530000 	cmp	r3, #0
   12120:	0a000004 	beq	12138 <USBBulkOnlyMassStorageDeviceConfigure+0x104>
   12124:	e59f13c0 	ldr	r1, [pc, #960]	; 124ec <USBBulkOnlyMassStorageDeviceConfigure+0x4b8>
   12128:	e1a00004 	mov	r0, r4
   1212c:	ebfff33c 	bl	ee24 <USBDeviceConfigurationError>
   12130:	e3a05000 	mov	r5, #0
   12134:	ea0000e7 	b	124d8 <USBBulkOnlyMassStorageDeviceConfigure+0x4a4>
   12138:	e3a00018 	mov	r0, #24
   1213c:	eb0015ab 	bl	177f0 <malloc>
   12140:	e5840038 	str	r0, [r4, #56]	; 0x38
   12144:	e3500000 	cmp	r0, #0
   12148:	1a000003 	bne	1215c <USBBulkOnlyMassStorageDeviceConfigure+0x128>
   1214c:	e1a02009 	mov	r2, r9
   12150:	e1a01008 	mov	r1, r8
   12154:	e59f0394 	ldr	r0, [pc, #916]	; 124f0 <USBBulkOnlyMassStorageDeviceConfigure+0x4bc>
   12158:	eb001dcb 	bl	1988c <uspi_assertion_failed>
   1215c:	e1a02006 	mov	r2, r6
   12160:	e1a01005 	mov	r1, r5
   12164:	e5940038 	ldr	r0, [r4, #56]	; 0x38
   12168:	ebfff49e 	bl	f3e8 <USBEndpoint2>
   1216c:	ea00001a 	b	121dc <USBBulkOnlyMassStorageDeviceConfigure+0x1a8>
   12170:	e594303c 	ldr	r3, [r4, #60]	; 0x3c
   12174:	e3530000 	cmp	r3, #0
   12178:	0a000004 	beq	12190 <USBBulkOnlyMassStorageDeviceConfigure+0x15c>
   1217c:	e59f1368 	ldr	r1, [pc, #872]	; 124ec <USBBulkOnlyMassStorageDeviceConfigure+0x4b8>
   12180:	e1a00004 	mov	r0, r4
   12184:	ebfff326 	bl	ee24 <USBDeviceConfigurationError>
   12188:	e3a05000 	mov	r5, #0
   1218c:	ea0000d1 	b	124d8 <USBBulkOnlyMassStorageDeviceConfigure+0x4a4>
   12190:	e3a00018 	mov	r0, #24
   12194:	eb001595 	bl	177f0 <malloc>
   12198:	e584003c 	str	r0, [r4, #60]	; 0x3c
   1219c:	e3500000 	cmp	r0, #0
   121a0:	1a000003 	bne	121b4 <USBBulkOnlyMassStorageDeviceConfigure+0x180>
   121a4:	e1a0200b 	mov	r2, fp
   121a8:	e1a01008 	mov	r1, r8
   121ac:	e1a0000a 	mov	r0, sl
   121b0:	eb001db5 	bl	1988c <uspi_assertion_failed>
   121b4:	e1a02006 	mov	r2, r6
   121b8:	e1a01005 	mov	r1, r5
   121bc:	e594003c 	ldr	r0, [r4, #60]	; 0x3c
   121c0:	ebfff488 	bl	f3e8 <USBEndpoint2>
   121c4:	ea000004 	b	121dc <USBBulkOnlyMassStorageDeviceConfigure+0x1a8>
   121c8:	e3a07005 	mov	r7, #5
   121cc:	e59fb320 	ldr	fp, [pc, #800]	; 124f4 <USBBulkOnlyMassStorageDeviceConfigure+0x4c0>
   121d0:	e59f830c 	ldr	r8, [pc, #780]	; 124e4 <USBBulkOnlyMassStorageDeviceConfigure+0x4b0>
   121d4:	e59fa31c 	ldr	sl, [pc, #796]	; 124f8 <USBBulkOnlyMassStorageDeviceConfigure+0x4c4>
   121d8:	e59f931c 	ldr	r9, [pc, #796]	; 124fc <USBBulkOnlyMassStorageDeviceConfigure+0x4c8>
   121dc:	e1a01007 	mov	r1, r7
   121e0:	e1a00005 	mov	r0, r5
   121e4:	ebfff2f6 	bl	edc4 <USBDeviceGetDescriptor>
   121e8:	e2506000 	subs	r6, r0, #0
   121ec:	1affffc2 	bne	120fc <USBBulkOnlyMassStorageDeviceConfigure+0xc8>
   121f0:	e5943038 	ldr	r3, [r4, #56]	; 0x38
   121f4:	e3530000 	cmp	r3, #0
   121f8:	0a000002 	beq	12208 <USBBulkOnlyMassStorageDeviceConfigure+0x1d4>
   121fc:	e594303c 	ldr	r3, [r4, #60]	; 0x3c
   12200:	e3530000 	cmp	r3, #0
   12204:	1a000004 	bne	1221c <USBBulkOnlyMassStorageDeviceConfigure+0x1e8>
   12208:	e59f12dc 	ldr	r1, [pc, #732]	; 124ec <USBBulkOnlyMassStorageDeviceConfigure+0x4b8>
   1220c:	e1a00004 	mov	r0, r4
   12210:	ebfff303 	bl	ee24 <USBDeviceConfigurationError>
   12214:	e3a05000 	mov	r5, #0
   12218:	ea0000ae 	b	124d8 <USBBulkOnlyMassStorageDeviceConfigure+0x4a4>
   1221c:	e1a00004 	mov	r0, r4
   12220:	ebfff0de 	bl	e5a0 <USBDeviceConfigure>
   12224:	e2505000 	subs	r5, r0, #0
   12228:	1a000004 	bne	12240 <USBBulkOnlyMassStorageDeviceConfigure+0x20c>
   1222c:	e59f22cc 	ldr	r2, [pc, #716]	; 12500 <USBBulkOnlyMassStorageDeviceConfigure+0x4cc>
   12230:	e3a01001 	mov	r1, #1
   12234:	e59f02b0 	ldr	r0, [pc, #688]	; 124ec <USBBulkOnlyMassStorageDeviceConfigure+0x4b8>
   12238:	eb001d81 	bl	19844 <LogWrite>
   1223c:	ea0000a5 	b	124d8 <USBBulkOnlyMassStorageDeviceConfigure+0x4a4>
   12240:	e3a03012 	mov	r3, #18
   12244:	e5cd3070 	strb	r3, [sp, #112]	; 0x70
   12248:	e3a03000 	mov	r3, #0
   1224c:	e5cd3071 	strb	r3, [sp, #113]	; 0x71
   12250:	e5cd3072 	strb	r3, [sp, #114]	; 0x72
   12254:	e5cd3073 	strb	r3, [sp, #115]	; 0x73
   12258:	e3a02024 	mov	r2, #36	; 0x24
   1225c:	e5cd2074 	strb	r2, [sp, #116]	; 0x74
   12260:	e5cd3075 	strb	r3, [sp, #117]	; 0x75
   12264:	e3a03001 	mov	r3, #1
   12268:	e58d3004 	str	r3, [sp, #4]
   1226c:	e58d2000 	str	r2, [sp]
   12270:	e28d304c 	add	r3, sp, #76	; 0x4c
   12274:	e3a02006 	mov	r2, #6
   12278:	e28d1070 	add	r1, sp, #112	; 0x70
   1227c:	e1a00004 	mov	r0, r4
   12280:	ebfffec1 	bl	11d8c <USBBulkOnlyMassStorageDeviceCommand>
   12284:	e3500024 	cmp	r0, #36	; 0x24
   12288:	0a000005 	beq	122a4 <USBBulkOnlyMassStorageDeviceConfigure+0x270>
   1228c:	e59f2270 	ldr	r2, [pc, #624]	; 12504 <USBBulkOnlyMassStorageDeviceConfigure+0x4d0>
   12290:	e3a01001 	mov	r1, #1
   12294:	e59f0250 	ldr	r0, [pc, #592]	; 124ec <USBBulkOnlyMassStorageDeviceConfigure+0x4b8>
   12298:	eb001d69 	bl	19844 <LogWrite>
   1229c:	e3a05000 	mov	r5, #0
   122a0:	ea00008c 	b	124d8 <USBBulkOnlyMassStorageDeviceConfigure+0x4a4>
   122a4:	e5dd304c 	ldrb	r3, [sp, #76]	; 0x4c
   122a8:	e313001f 	tst	r3, #31
   122ac:	0a000006 	beq	122cc <USBBulkOnlyMassStorageDeviceConfigure+0x298>
   122b0:	e203301f 	and	r3, r3, #31
   122b4:	e59f224c 	ldr	r2, [pc, #588]	; 12508 <USBBulkOnlyMassStorageDeviceConfigure+0x4d4>
   122b8:	e3a01001 	mov	r1, #1
   122bc:	e59f0228 	ldr	r0, [pc, #552]	; 124ec <USBBulkOnlyMassStorageDeviceConfigure+0x4b8>
   122c0:	eb001d5f 	bl	19844 <LogWrite>
   122c4:	e3a05000 	mov	r5, #0
   122c8:	ea000082 	b	124d8 <USBBulkOnlyMassStorageDeviceConfigure+0x4a4>
   122cc:	e3a06063 	mov	r6, #99	; 0x63
   122d0:	e3a05000 	mov	r5, #0
   122d4:	e3a08006 	mov	r8, #6
   122d8:	e3a09003 	mov	r9, #3
   122dc:	e3a07012 	mov	r7, #18
   122e0:	e5cd5008 	strb	r5, [sp, #8]
   122e4:	e5cd5009 	strb	r5, [sp, #9]
   122e8:	e5cd500a 	strb	r5, [sp, #10]
   122ec:	e5cd500b 	strb	r5, [sp, #11]
   122f0:	e5cd500c 	strb	r5, [sp, #12]
   122f4:	e5cd500d 	strb	r5, [sp, #13]
   122f8:	e58d5004 	str	r5, [sp, #4]
   122fc:	e58d5000 	str	r5, [sp]
   12300:	e1a03005 	mov	r3, r5
   12304:	e1a02008 	mov	r2, r8
   12308:	e28d1008 	add	r1, sp, #8
   1230c:	e1a00004 	mov	r0, r4
   12310:	ebfffe9d 	bl	11d8c <USBBulkOnlyMassStorageDeviceCommand>
   12314:	e3500000 	cmp	r0, #0
   12318:	aa00001a 	bge	12388 <USBBulkOnlyMassStorageDeviceConfigure+0x354>
   1231c:	e5cd9010 	strb	r9, [sp, #16]
   12320:	e3a03000 	mov	r3, #0
   12324:	e5cd3011 	strb	r3, [sp, #17]
   12328:	e1cd51b2 	strh	r5, [sp, #18]
   1232c:	e5cd7014 	strb	r7, [sp, #20]
   12330:	e5cd5015 	strb	r5, [sp, #21]
   12334:	e3a03001 	mov	r3, #1
   12338:	e58d3004 	str	r3, [sp, #4]
   1233c:	e58d7000 	str	r7, [sp]
   12340:	e28d3018 	add	r3, sp, #24
   12344:	e1a02008 	mov	r2, r8
   12348:	e28d1010 	add	r1, sp, #16
   1234c:	e1a00004 	mov	r0, r4
   12350:	ebfffe8d 	bl	11d8c <USBBulkOnlyMassStorageDeviceCommand>
   12354:	e3500000 	cmp	r0, #0
   12358:	aa000005 	bge	12374 <USBBulkOnlyMassStorageDeviceConfigure+0x340>
   1235c:	e59f21a8 	ldr	r2, [pc, #424]	; 1250c <USBBulkOnlyMassStorageDeviceConfigure+0x4d8>
   12360:	e3a01001 	mov	r1, #1
   12364:	e59f0180 	ldr	r0, [pc, #384]	; 124ec <USBBulkOnlyMassStorageDeviceConfigure+0x4b8>
   12368:	eb001d35 	bl	19844 <LogWrite>
   1236c:	e3a05000 	mov	r5, #0
   12370:	ea000058 	b	124d8 <USBBulkOnlyMassStorageDeviceConfigure+0x4a4>
   12374:	e3a00064 	mov	r0, #100	; 0x64
   12378:	eb001ccc 	bl	196b0 <MsDelay>
   1237c:	e2566001 	subs	r6, r6, #1
   12380:	1affffd6 	bne	122e0 <USBBulkOnlyMassStorageDeviceConfigure+0x2ac>
   12384:	ea000001 	b	12390 <USBBulkOnlyMassStorageDeviceConfigure+0x35c>
   12388:	e3560000 	cmp	r6, #0
   1238c:	1a000005 	bne	123a8 <USBBulkOnlyMassStorageDeviceConfigure+0x374>
   12390:	e59f2178 	ldr	r2, [pc, #376]	; 12510 <USBBulkOnlyMassStorageDeviceConfigure+0x4dc>
   12394:	e3a01001 	mov	r1, #1
   12398:	e59f014c 	ldr	r0, [pc, #332]	; 124ec <USBBulkOnlyMassStorageDeviceConfigure+0x4b8>
   1239c:	eb001d28 	bl	19844 <LogWrite>
   123a0:	e3a05000 	mov	r5, #0
   123a4:	ea00004b 	b	124d8 <USBBulkOnlyMassStorageDeviceConfigure+0x4a4>
   123a8:	e3a03025 	mov	r3, #37	; 0x25
   123ac:	e5cd3040 	strb	r3, [sp, #64]	; 0x40
   123b0:	e3a03000 	mov	r3, #0
   123b4:	e5cd3041 	strb	r3, [sp, #65]	; 0x41
   123b8:	e1cd34b2 	strh	r3, [sp, #66]	; 0x42
   123bc:	e1cd34b4 	strh	r3, [sp, #68]	; 0x44
   123c0:	e1cd34b6 	strh	r3, [sp, #70]	; 0x46
   123c4:	e5cd3048 	strb	r3, [sp, #72]	; 0x48
   123c8:	e5cd3049 	strb	r3, [sp, #73]	; 0x49
   123cc:	e3a03001 	mov	r3, #1
   123d0:	e58d3004 	str	r3, [sp, #4]
   123d4:	e3a03008 	mov	r3, #8
   123d8:	e58d3000 	str	r3, [sp]
   123dc:	e28d3038 	add	r3, sp, #56	; 0x38
   123e0:	e3a0200a 	mov	r2, #10
   123e4:	e28d1040 	add	r1, sp, #64	; 0x40
   123e8:	e1a00004 	mov	r0, r4
   123ec:	ebfffe66 	bl	11d8c <USBBulkOnlyMassStorageDeviceCommand>
   123f0:	e3500008 	cmp	r0, #8
   123f4:	0a000005 	beq	12410 <USBBulkOnlyMassStorageDeviceConfigure+0x3dc>
   123f8:	e59f2114 	ldr	r2, [pc, #276]	; 12514 <USBBulkOnlyMassStorageDeviceConfigure+0x4e0>
   123fc:	e3a01001 	mov	r1, #1
   12400:	e59f00e4 	ldr	r0, [pc, #228]	; 124ec <USBBulkOnlyMassStorageDeviceConfigure+0x4b8>
   12404:	eb001d0e 	bl	19844 <LogWrite>
   12408:	e3a05000 	mov	r5, #0
   1240c:	ea000031 	b	124d8 <USBBulkOnlyMassStorageDeviceConfigure+0x4a4>
   12410:	e59d003c 	ldr	r0, [sp, #60]	; 0x3c
   12414:	ebfffe04 	bl	11c2c <uspi_le2be32>
   12418:	e1a03000 	mov	r3, r0
   1241c:	e3500c02 	cmp	r0, #512	; 0x200
   12420:	0a000005 	beq	1243c <USBBulkOnlyMassStorageDeviceConfigure+0x408>
   12424:	e59f20ec 	ldr	r2, [pc, #236]	; 12518 <USBBulkOnlyMassStorageDeviceConfigure+0x4e4>
   12428:	e3a01001 	mov	r1, #1
   1242c:	e59f00b8 	ldr	r0, [pc, #184]	; 124ec <USBBulkOnlyMassStorageDeviceConfigure+0x4b8>
   12430:	eb001d03 	bl	19844 <LogWrite>
   12434:	e3a05000 	mov	r5, #0
   12438:	ea000026 	b	124d8 <USBBulkOnlyMassStorageDeviceConfigure+0x4a4>
   1243c:	e59d0038 	ldr	r0, [sp, #56]	; 0x38
   12440:	ebfffdf9 	bl	11c2c <uspi_le2be32>
   12444:	e5840044 	str	r0, [r4, #68]	; 0x44
   12448:	e3700001 	cmn	r0, #1
   1244c:	1a000005 	bne	12468 <USBBulkOnlyMassStorageDeviceConfigure+0x434>
   12450:	e59f20c4 	ldr	r2, [pc, #196]	; 1251c <USBBulkOnlyMassStorageDeviceConfigure+0x4e8>
   12454:	e3a01001 	mov	r1, #1
   12458:	e59f008c 	ldr	r0, [pc, #140]	; 124ec <USBBulkOnlyMassStorageDeviceConfigure+0x4b8>
   1245c:	eb001cf8 	bl	19844 <LogWrite>
   12460:	e3a05000 	mov	r5, #0
   12464:	ea00001b 	b	124d8 <USBBulkOnlyMassStorageDeviceConfigure+0x4a4>
   12468:	e2803001 	add	r3, r0, #1
   1246c:	e5843044 	str	r3, [r4, #68]	; 0x44
   12470:	e1a035a3 	lsr	r3, r3, #11
   12474:	e59f20a4 	ldr	r2, [pc, #164]	; 12520 <USBBulkOnlyMassStorageDeviceConfigure+0x4ec>
   12478:	e3a01004 	mov	r1, #4
   1247c:	e59f0068 	ldr	r0, [pc, #104]	; 124ec <USBBulkOnlyMassStorageDeviceConfigure+0x4b8>
   12480:	eb001cef 	bl	19844 <LogWrite>
   12484:	e28d002c 	add	r0, sp, #44	; 0x2c
   12488:	ebfffaab 	bl	10f3c <String>
   1248c:	e59f3090 	ldr	r3, [pc, #144]	; 12524 <USBBulkOnlyMassStorageDeviceConfigure+0x4f0>
   12490:	e5932000 	ldr	r2, [r3]
   12494:	e2821001 	add	r1, r2, #1
   12498:	e5831000 	str	r1, [r3]
   1249c:	e59f1084 	ldr	r1, [pc, #132]	; 12528 <USBBulkOnlyMassStorageDeviceConfigure+0x4f4>
   124a0:	e28d002c 	add	r0, sp, #44	; 0x2c
   124a4:	ebfffd31 	bl	11970 <StringFormat>
   124a8:	ebfff6d1 	bl	fff4 <DeviceNameServiceGet>
   124ac:	e1a05000 	mov	r5, r0
   124b0:	e28d002c 	add	r0, sp, #44	; 0x2c
   124b4:	ebfffad0 	bl	10ffc <StringGet>
   124b8:	e3a03001 	mov	r3, #1
   124bc:	e1a02004 	mov	r2, r4
   124c0:	e1a01000 	mov	r1, r0
   124c4:	e1a00005 	mov	r0, r5
   124c8:	ebfff658 	bl	fe30 <DeviceNameServiceAddDevice>
   124cc:	e28d002c 	add	r0, sp, #44	; 0x2c
   124d0:	ebfffab9 	bl	10fbc <_String>
   124d4:	e3a05001 	mov	r5, #1
   124d8:	e1a00005 	mov	r0, r5
   124dc:	e28dd07c 	add	sp, sp, #124	; 0x7c
   124e0:	e8bd8ff0 	pop	{r4, r5, r6, r7, r8, r9, sl, fp, pc}
   124e4:	0001c510 	.word	0x0001c510
   124e8:	0001b4d8 	.word	0x0001b4d8
   124ec:	0001c508 	.word	0x0001c508
   124f0:	0001c604 	.word	0x0001c604
   124f4:	00000123 	.word	0x00000123
   124f8:	0001c620 	.word	0x0001c620
   124fc:	00000116 	.word	0x00000116
   12500:	0001c3d8 	.word	0x0001c3d8
   12504:	0001c63c 	.word	0x0001c63c
   12508:	0001c654 	.word	0x0001c654
   1250c:	0001c674 	.word	0x0001c674
   12510:	0001c68c 	.word	0x0001c68c
   12514:	0001c6a0 	.word	0x0001c6a0
   12518:	0001c6b8 	.word	0x0001c6b8
   1251c:	0001c6d4 	.word	0x0001c6d4
   12520:	0001c6f0 	.word	0x0001c6f0
   12524:	00008884 	.word	0x00008884
   12528:	0001b404 	.word	0x0001b404

0001252c <USBBulkOnlyMassStorageDeviceTryRead>:
   1252c:	e92d41f0 	push	{r4, r5, r6, r7, r8, lr}
   12530:	e24dd018 	sub	sp, sp, #24
   12534:	e1a08001 	mov	r8, r1
   12538:	e1a04002 	mov	r4, r2
   1253c:	e2505000 	subs	r5, r0, #0
   12540:	1a000003 	bne	12554 <USBBulkOnlyMassStorageDeviceTryRead+0x28>
   12544:	e59f2108 	ldr	r2, [pc, #264]	; 12654 <USBBulkOnlyMassStorageDeviceTryRead+0x128>
   12548:	e59f1108 	ldr	r1, [pc, #264]	; 12658 <USBBulkOnlyMassStorageDeviceTryRead+0x12c>
   1254c:	e59f0108 	ldr	r0, [pc, #264]	; 1265c <USBBulkOnlyMassStorageDeviceTryRead+0x130>
   12550:	eb001ccd 	bl	1988c <uspi_assertion_failed>
   12554:	e3580000 	cmp	r8, #0
   12558:	1a000003 	bne	1256c <USBBulkOnlyMassStorageDeviceTryRead+0x40>
   1255c:	e59f20fc 	ldr	r2, [pc, #252]	; 12660 <USBBulkOnlyMassStorageDeviceTryRead+0x134>
   12560:	e59f10f0 	ldr	r1, [pc, #240]	; 12658 <USBBulkOnlyMassStorageDeviceTryRead+0x12c>
   12564:	e59f00f8 	ldr	r0, [pc, #248]	; 12664 <USBBulkOnlyMassStorageDeviceTryRead+0x138>
   12568:	eb001cc7 	bl	1988c <uspi_assertion_failed>
   1256c:	e1c564d8 	ldrd	r6, [r5, #72]	; 0x48
   12570:	e59f20f0 	ldr	r2, [pc, #240]	; 12668 <USBBulkOnlyMassStorageDeviceTryRead+0x13c>
   12574:	e3a03000 	mov	r3, #0
   12578:	e0022006 	and	r2, r2, r6
   1257c:	e0033007 	and	r3, r3, r7
   12580:	e1923003 	orrs	r3, r2, r3
   12584:	13a03001 	movne	r3, #1
   12588:	03a03000 	moveq	r3, #0
   1258c:	e3e00000 	mvn	r0, #0
   12590:	e59f10d0 	ldr	r1, [pc, #208]	; 12668 <USBBulkOnlyMassStorageDeviceTryRead+0x13c>
   12594:	e1570001 	cmp	r7, r1
   12598:	01560000 	cmpeq	r6, r0
   1259c:	83833001 	orrhi	r3, r3, #1
   125a0:	e3530000 	cmp	r3, #0
   125a4:	1a000024 	bne	1263c <USBBulkOnlyMassStorageDeviceTryRead+0x110>
   125a8:	e1a004a6 	lsr	r0, r6, #9
   125ac:	e1800b87 	orr	r0, r0, r7, lsl #23
   125b0:	e1b03b84 	lsls	r3, r4, #23
   125b4:	1a000022 	bne	12644 <USBBulkOnlyMassStorageDeviceTryRead+0x118>
   125b8:	e3a03028 	mov	r3, #40	; 0x28
   125bc:	e5cd300c 	strb	r3, [sp, #12]
   125c0:	e3a06000 	mov	r6, #0
   125c4:	e5cd600d 	strb	r6, [sp, #13]
   125c8:	ebfffd97 	bl	11c2c <uspi_le2be32>
   125cc:	e1cd00be 	strh	r0, [sp, #14]
   125d0:	e1a00820 	lsr	r0, r0, #16
   125d4:	e1cd01b0 	strh	r0, [sp, #16]
   125d8:	e5cd6012 	strb	r6, [sp, #18]
   125dc:	e1a004a4 	lsr	r0, r4, #9
   125e0:	e6ff0070 	uxth	r0, r0
   125e4:	ebfffd8c 	bl	11c1c <uspi_le2be16>
   125e8:	e5cd0013 	strb	r0, [sp, #19]
   125ec:	e1a00420 	lsr	r0, r0, #8
   125f0:	e5cd0014 	strb	r0, [sp, #20]
   125f4:	e5cd6015 	strb	r6, [sp, #21]
   125f8:	e3a03001 	mov	r3, #1
   125fc:	e58d3004 	str	r3, [sp, #4]
   12600:	e58d4000 	str	r4, [sp]
   12604:	e1a03008 	mov	r3, r8
   12608:	e3a0200a 	mov	r2, #10
   1260c:	e28d100c 	add	r1, sp, #12
   12610:	e1a00005 	mov	r0, r5
   12614:	ebfffddc 	bl	11d8c <USBBulkOnlyMassStorageDeviceCommand>
   12618:	e1a03004 	mov	r3, r4
   1261c:	e1500004 	cmp	r0, r4
   12620:	0a000008 	beq	12648 <USBBulkOnlyMassStorageDeviceTryRead+0x11c>
   12624:	e59f2040 	ldr	r2, [pc, #64]	; 1266c <USBBulkOnlyMassStorageDeviceTryRead+0x140>
   12628:	e3a01001 	mov	r1, #1
   1262c:	e59f003c 	ldr	r0, [pc, #60]	; 12670 <USBBulkOnlyMassStorageDeviceTryRead+0x144>
   12630:	eb001c83 	bl	19844 <LogWrite>
   12634:	e3e03000 	mvn	r3, #0
   12638:	ea000002 	b	12648 <USBBulkOnlyMassStorageDeviceTryRead+0x11c>
   1263c:	e3e03000 	mvn	r3, #0
   12640:	ea000000 	b	12648 <USBBulkOnlyMassStorageDeviceTryRead+0x11c>
   12644:	e3e03000 	mvn	r3, #0
   12648:	e1a00003 	mov	r0, r3
   1264c:	e28dd018 	add	sp, sp, #24
   12650:	e8bd81f0 	pop	{r4, r5, r6, r7, r8, pc}
   12654:	000001f5 	.word	0x000001f5
   12658:	0001c510 	.word	0x0001c510
   1265c:	0001b4d8 	.word	0x0001b4d8
   12660:	000001f7 	.word	0x000001f7
   12664:	0001c564 	.word	0x0001c564
   12668:	000001ff 	.word	0x000001ff
   1266c:	0001c708 	.word	0x0001c708
   12670:	0001c508 	.word	0x0001c508

00012674 <USBBulkOnlyMassStorageDeviceTryWrite>:
   12674:	e92d41f0 	push	{r4, r5, r6, r7, r8, lr}
   12678:	e24dd018 	sub	sp, sp, #24
   1267c:	e1a08001 	mov	r8, r1
   12680:	e1a04002 	mov	r4, r2
   12684:	e2505000 	subs	r5, r0, #0
   12688:	1a000003 	bne	1269c <USBBulkOnlyMassStorageDeviceTryWrite+0x28>
   1268c:	e59f2104 	ldr	r2, [pc, #260]	; 12798 <USBBulkOnlyMassStorageDeviceTryWrite+0x124>
   12690:	e59f1104 	ldr	r1, [pc, #260]	; 1279c <USBBulkOnlyMassStorageDeviceTryWrite+0x128>
   12694:	e59f0104 	ldr	r0, [pc, #260]	; 127a0 <USBBulkOnlyMassStorageDeviceTryWrite+0x12c>
   12698:	eb001c7b 	bl	1988c <uspi_assertion_failed>
   1269c:	e3580000 	cmp	r8, #0
   126a0:	1a000003 	bne	126b4 <USBBulkOnlyMassStorageDeviceTryWrite+0x40>
   126a4:	e3a02e22 	mov	r2, #544	; 0x220
   126a8:	e59f10ec 	ldr	r1, [pc, #236]	; 1279c <USBBulkOnlyMassStorageDeviceTryWrite+0x128>
   126ac:	e59f00f0 	ldr	r0, [pc, #240]	; 127a4 <USBBulkOnlyMassStorageDeviceTryWrite+0x130>
   126b0:	eb001c75 	bl	1988c <uspi_assertion_failed>
   126b4:	e1c564d8 	ldrd	r6, [r5, #72]	; 0x48
   126b8:	e59f20e8 	ldr	r2, [pc, #232]	; 127a8 <USBBulkOnlyMassStorageDeviceTryWrite+0x134>
   126bc:	e3a03000 	mov	r3, #0
   126c0:	e0022006 	and	r2, r2, r6
   126c4:	e0033007 	and	r3, r3, r7
   126c8:	e1923003 	orrs	r3, r2, r3
   126cc:	13a03001 	movne	r3, #1
   126d0:	03a03000 	moveq	r3, #0
   126d4:	e3e00000 	mvn	r0, #0
   126d8:	e59f10c8 	ldr	r1, [pc, #200]	; 127a8 <USBBulkOnlyMassStorageDeviceTryWrite+0x134>
   126dc:	e1570001 	cmp	r7, r1
   126e0:	01560000 	cmpeq	r6, r0
   126e4:	83833001 	orrhi	r3, r3, #1
   126e8:	e3530000 	cmp	r3, #0
   126ec:	1a000024 	bne	12784 <USBBulkOnlyMassStorageDeviceTryWrite+0x110>
   126f0:	e1a004a6 	lsr	r0, r6, #9
   126f4:	e1800b87 	orr	r0, r0, r7, lsl #23
   126f8:	e1b03b84 	lsls	r3, r4, #23
   126fc:	1a000022 	bne	1278c <USBBulkOnlyMassStorageDeviceTryWrite+0x118>
   12700:	e3a0302a 	mov	r3, #42	; 0x2a
   12704:	e5cd300c 	strb	r3, [sp, #12]
   12708:	e3a03008 	mov	r3, #8
   1270c:	e5cd300d 	strb	r3, [sp, #13]
   12710:	ebfffd45 	bl	11c2c <uspi_le2be32>
   12714:	e3a06000 	mov	r6, #0
   12718:	e1cd00be 	strh	r0, [sp, #14]
   1271c:	e1a00820 	lsr	r0, r0, #16
   12720:	e1cd01b0 	strh	r0, [sp, #16]
   12724:	e5cd6012 	strb	r6, [sp, #18]
   12728:	e1a004a4 	lsr	r0, r4, #9
   1272c:	e6ff0070 	uxth	r0, r0
   12730:	ebfffd39 	bl	11c1c <uspi_le2be16>
   12734:	e5cd0013 	strb	r0, [sp, #19]
   12738:	e1a00420 	lsr	r0, r0, #8
   1273c:	e5cd0014 	strb	r0, [sp, #20]
   12740:	e5cd6015 	strb	r6, [sp, #21]
   12744:	e58d6004 	str	r6, [sp, #4]
   12748:	e58d4000 	str	r4, [sp]
   1274c:	e1a03008 	mov	r3, r8
   12750:	e3a0200a 	mov	r2, #10
   12754:	e28d100c 	add	r1, sp, #12
   12758:	e1a00005 	mov	r0, r5
   1275c:	ebfffd8a 	bl	11d8c <USBBulkOnlyMassStorageDeviceCommand>
   12760:	e1500006 	cmp	r0, r6
   12764:	a1a00004 	movge	r0, r4
   12768:	aa000008 	bge	12790 <USBBulkOnlyMassStorageDeviceTryWrite+0x11c>
   1276c:	e59f2038 	ldr	r2, [pc, #56]	; 127ac <USBBulkOnlyMassStorageDeviceTryWrite+0x138>
   12770:	e3a01001 	mov	r1, #1
   12774:	e59f0034 	ldr	r0, [pc, #52]	; 127b0 <USBBulkOnlyMassStorageDeviceTryWrite+0x13c>
   12778:	eb001c31 	bl	19844 <LogWrite>
   1277c:	e3e00000 	mvn	r0, #0
   12780:	ea000002 	b	12790 <USBBulkOnlyMassStorageDeviceTryWrite+0x11c>
   12784:	e3e00000 	mvn	r0, #0
   12788:	ea000000 	b	12790 <USBBulkOnlyMassStorageDeviceTryWrite+0x11c>
   1278c:	e3e00000 	mvn	r0, #0
   12790:	e28dd018 	add	sp, sp, #24
   12794:	e8bd81f0 	pop	{r4, r5, r6, r7, r8, pc}
   12798:	0000021e 	.word	0x0000021e
   1279c:	0001c510 	.word	0x0001c510
   127a0:	0001b4d8 	.word	0x0001b4d8
   127a4:	0001c564 	.word	0x0001c564
   127a8:	000001ff 	.word	0x000001ff
   127ac:	0001c718 	.word	0x0001c718
   127b0:	0001c508 	.word	0x0001c508

000127b4 <USBBulkOnlyMassStorageDeviceReset>:
   127b4:	e92d4030 	push	{r4, r5, lr}
   127b8:	e24dd014 	sub	sp, sp, #20
   127bc:	e2504000 	subs	r4, r0, #0
   127c0:	1a000003 	bne	127d4 <USBBulkOnlyMassStorageDeviceReset+0x20>
   127c4:	e59f2134 	ldr	r2, [pc, #308]	; 12900 <USBBulkOnlyMassStorageDeviceReset+0x14c>
   127c8:	e59f1134 	ldr	r1, [pc, #308]	; 12904 <USBBulkOnlyMassStorageDeviceReset+0x150>
   127cc:	e59f0134 	ldr	r0, [pc, #308]	; 12908 <USBBulkOnlyMassStorageDeviceReset+0x154>
   127d0:	eb001c2d 	bl	1988c <uspi_assertion_failed>
   127d4:	e1a00004 	mov	r0, r4
   127d8:	ebfff13c 	bl	ecd0 <USBDeviceGetHost>
   127dc:	e2505000 	subs	r5, r0, #0
   127e0:	1a000003 	bne	127f4 <USBBulkOnlyMassStorageDeviceReset+0x40>
   127e4:	e59f2120 	ldr	r2, [pc, #288]	; 1290c <USBBulkOnlyMassStorageDeviceReset+0x158>
   127e8:	e59f1114 	ldr	r1, [pc, #276]	; 12904 <USBBulkOnlyMassStorageDeviceReset+0x150>
   127ec:	e59f011c 	ldr	r0, [pc, #284]	; 12910 <USBBulkOnlyMassStorageDeviceReset+0x15c>
   127f0:	eb001c25 	bl	1988c <uspi_assertion_failed>
   127f4:	e1a00004 	mov	r0, r4
   127f8:	ebfff11f 	bl	ec7c <USBDeviceGetEndpoint0>
   127fc:	e3a03000 	mov	r3, #0
   12800:	e58d300c 	str	r3, [sp, #12]
   12804:	e58d3008 	str	r3, [sp, #8]
   12808:	e58d3004 	str	r3, [sp, #4]
   1280c:	e58d3000 	str	r3, [sp]
   12810:	e3a030ff 	mov	r3, #255	; 0xff
   12814:	e3a02021 	mov	r2, #33	; 0x21
   12818:	e1a01000 	mov	r1, r0
   1281c:	e1a00005 	mov	r0, r5
   12820:	ebffe4c2 	bl	bb30 <DWHCIDeviceControlMessage>
   12824:	e3500000 	cmp	r0, #0
   12828:	aa000005 	bge	12844 <USBBulkOnlyMassStorageDeviceReset+0x90>
   1282c:	e59f20e0 	ldr	r2, [pc, #224]	; 12914 <USBBulkOnlyMassStorageDeviceReset+0x160>
   12830:	e3a01004 	mov	r1, #4
   12834:	e59f00dc 	ldr	r0, [pc, #220]	; 12918 <USBBulkOnlyMassStorageDeviceReset+0x164>
   12838:	eb001c01 	bl	19844 <LogWrite>
   1283c:	e3e00000 	mvn	r0, #0
   12840:	ea00002c 	b	128f8 <USBBulkOnlyMassStorageDeviceReset+0x144>
   12844:	e1a00004 	mov	r0, r4
   12848:	ebfff10b 	bl	ec7c <USBDeviceGetEndpoint0>
   1284c:	e3a02000 	mov	r2, #0
   12850:	e58d200c 	str	r2, [sp, #12]
   12854:	e58d2008 	str	r2, [sp, #8]
   12858:	e3a03001 	mov	r3, #1
   1285c:	e58d3004 	str	r3, [sp, #4]
   12860:	e58d2000 	str	r2, [sp]
   12864:	e3a02002 	mov	r2, #2
   12868:	e1a01000 	mov	r1, r0
   1286c:	e1a00005 	mov	r0, r5
   12870:	ebffe4ae 	bl	bb30 <DWHCIDeviceControlMessage>
   12874:	e3500000 	cmp	r0, #0
   12878:	aa000005 	bge	12894 <USBBulkOnlyMassStorageDeviceReset+0xe0>
   1287c:	e59f2098 	ldr	r2, [pc, #152]	; 1291c <USBBulkOnlyMassStorageDeviceReset+0x168>
   12880:	e3a01004 	mov	r1, #4
   12884:	e59f008c 	ldr	r0, [pc, #140]	; 12918 <USBBulkOnlyMassStorageDeviceReset+0x164>
   12888:	eb001bed 	bl	19844 <LogWrite>
   1288c:	e3e00000 	mvn	r0, #0
   12890:	ea000018 	b	128f8 <USBBulkOnlyMassStorageDeviceReset+0x144>
   12894:	e1a00004 	mov	r0, r4
   12898:	ebfff0f7 	bl	ec7c <USBDeviceGetEndpoint0>
   1289c:	e3a03000 	mov	r3, #0
   128a0:	e58d300c 	str	r3, [sp, #12]
   128a4:	e58d3008 	str	r3, [sp, #8]
   128a8:	e3a02002 	mov	r2, #2
   128ac:	e58d2004 	str	r2, [sp, #4]
   128b0:	e58d3000 	str	r3, [sp]
   128b4:	e3a03001 	mov	r3, #1
   128b8:	e1a01000 	mov	r1, r0
   128bc:	e1a00005 	mov	r0, r5
   128c0:	ebffe49a 	bl	bb30 <DWHCIDeviceControlMessage>
   128c4:	e3500000 	cmp	r0, #0
   128c8:	aa000005 	bge	128e4 <USBBulkOnlyMassStorageDeviceReset+0x130>
   128cc:	e59f204c 	ldr	r2, [pc, #76]	; 12920 <USBBulkOnlyMassStorageDeviceReset+0x16c>
   128d0:	e3a01004 	mov	r1, #4
   128d4:	e59f003c 	ldr	r0, [pc, #60]	; 12918 <USBBulkOnlyMassStorageDeviceReset+0x164>
   128d8:	eb001bd9 	bl	19844 <LogWrite>
   128dc:	e3e00000 	mvn	r0, #0
   128e0:	ea000004 	b	128f8 <USBBulkOnlyMassStorageDeviceReset+0x144>
   128e4:	e5940038 	ldr	r0, [r4, #56]	; 0x38
   128e8:	ebfff40c 	bl	f920 <USBEndpointResetPID>
   128ec:	e594003c 	ldr	r0, [r4, #60]	; 0x3c
   128f0:	ebfff40a 	bl	f920 <USBEndpointResetPID>
   128f4:	e3a00000 	mov	r0, #0
   128f8:	e28dd014 	add	sp, sp, #20
   128fc:	e8bd8030 	pop	{r4, r5, pc}
   12900:	0000029a 	.word	0x0000029a
   12904:	0001c510 	.word	0x0001c510
   12908:	0001b4d8 	.word	0x0001b4d8
   1290c:	0000029d 	.word	0x0000029d
   12910:	0001c574 	.word	0x0001c574
   12914:	0001c728 	.word	0x0001c728
   12918:	0001c508 	.word	0x0001c508
   1291c:	0001c73c 	.word	0x0001c73c
   12920:	0001c75c 	.word	0x0001c75c

00012924 <USBBulkOnlyMassStorageDeviceRead>:
   12924:	e92d41f0 	push	{r4, r5, r6, r7, r8, lr}
   12928:	e1a08001 	mov	r8, r1
   1292c:	e1a04002 	mov	r4, r2
   12930:	e2507000 	subs	r7, r0, #0
   12934:	1a000003 	bne	12948 <USBBulkOnlyMassStorageDeviceRead+0x24>
   12938:	e59f204c 	ldr	r2, [pc, #76]	; 1298c <USBBulkOnlyMassStorageDeviceRead+0x68>
   1293c:	e59f104c 	ldr	r1, [pc, #76]	; 12990 <USBBulkOnlyMassStorageDeviceRead+0x6c>
   12940:	e59f004c 	ldr	r0, [pc, #76]	; 12994 <USBBulkOnlyMassStorageDeviceRead+0x70>
   12944:	eb001bd0 	bl	1988c <uspi_assertion_failed>
   12948:	e3a05004 	mov	r5, #4
   1294c:	e1a02004 	mov	r2, r4
   12950:	e1a01008 	mov	r1, r8
   12954:	e1a00007 	mov	r0, r7
   12958:	ebfffef3 	bl	1252c <USBBulkOnlyMassStorageDeviceTryRead>
   1295c:	e1a06000 	mov	r6, r0
   12960:	e1a00004 	mov	r0, r4
   12964:	e1560004 	cmp	r6, r4
   12968:	08bd81f0 	popeq	{r4, r5, r6, r7, r8, pc}
   1296c:	e1a00007 	mov	r0, r7
   12970:	ebffff8f 	bl	127b4 <USBBulkOnlyMassStorageDeviceReset>
   12974:	e3500000 	cmp	r0, #0
   12978:	18bd81f0 	popne	{r4, r5, r6, r7, r8, pc}
   1297c:	e2555001 	subs	r5, r5, #1
   12980:	1afffff1 	bne	1294c <USBBulkOnlyMassStorageDeviceRead+0x28>
   12984:	e1a00006 	mov	r0, r6
   12988:	e8bd81f0 	pop	{r4, r5, r6, r7, r8, pc}
   1298c:	000001af 	.word	0x000001af
   12990:	0001c510 	.word	0x0001c510
   12994:	0001b4d8 	.word	0x0001b4d8

00012998 <USBBulkOnlyMassStorageDeviceWrite>:
   12998:	e92d41f0 	push	{r4, r5, r6, r7, r8, lr}
   1299c:	e1a08001 	mov	r8, r1
   129a0:	e1a04002 	mov	r4, r2
   129a4:	e2507000 	subs	r7, r0, #0
   129a8:	1a000003 	bne	129bc <USBBulkOnlyMassStorageDeviceWrite+0x24>
   129ac:	e59f204c 	ldr	r2, [pc, #76]	; 12a00 <USBBulkOnlyMassStorageDeviceWrite+0x68>
   129b0:	e59f104c 	ldr	r1, [pc, #76]	; 12a04 <USBBulkOnlyMassStorageDeviceWrite+0x6c>
   129b4:	e59f004c 	ldr	r0, [pc, #76]	; 12a08 <USBBulkOnlyMassStorageDeviceWrite+0x70>
   129b8:	eb001bb3 	bl	1988c <uspi_assertion_failed>
   129bc:	e3a05004 	mov	r5, #4
   129c0:	e1a02004 	mov	r2, r4
   129c4:	e1a01008 	mov	r1, r8
   129c8:	e1a00007 	mov	r0, r7
   129cc:	ebffff28 	bl	12674 <USBBulkOnlyMassStorageDeviceTryWrite>
   129d0:	e1a06000 	mov	r6, r0
   129d4:	e1a00004 	mov	r0, r4
   129d8:	e1560004 	cmp	r6, r4
   129dc:	08bd81f0 	popeq	{r4, r5, r6, r7, r8, pc}
   129e0:	e1a00007 	mov	r0, r7
   129e4:	ebffff72 	bl	127b4 <USBBulkOnlyMassStorageDeviceReset>
   129e8:	e3500000 	cmp	r0, #0
   129ec:	18bd81f0 	popne	{r4, r5, r6, r7, r8, pc}
   129f0:	e2555001 	subs	r5, r5, #1
   129f4:	1afffff1 	bne	129c0 <USBBulkOnlyMassStorageDeviceWrite+0x28>
   129f8:	e1a00006 	mov	r0, r6
   129fc:	e8bd81f0 	pop	{r4, r5, r6, r7, r8, pc}
   12a00:	000001ca 	.word	0x000001ca
   12a04:	0001c510 	.word	0x0001c510
   12a08:	0001b4d8 	.word	0x0001b4d8

00012a0c <DWHCIFrameSchedulerNonPeriodicWaitForFrame>:
   12a0c:	e12fff1e 	bx	lr

00012a10 <DWHCIFrameSchedulerNonPeriodicIsOddFrame>:
   12a10:	e3a00000 	mov	r0, #0
   12a14:	e12fff1e 	bx	lr

00012a18 <_DWHCIFrameSchedulerNonPeriodic>:
   12a18:	e92d4010 	push	{r4, lr}
   12a1c:	e2504000 	subs	r4, r0, #0
   12a20:	1a000003 	bne	12a34 <_DWHCIFrameSchedulerNonPeriodic+0x1c>
   12a24:	e3a0203a 	mov	r2, #58	; 0x3a
   12a28:	e59f1010 	ldr	r1, [pc, #16]	; 12a40 <_DWHCIFrameSchedulerNonPeriodic+0x28>
   12a2c:	e59f0010 	ldr	r0, [pc, #16]	; 12a44 <_DWHCIFrameSchedulerNonPeriodic+0x2c>
   12a30:	eb001b95 	bl	1988c <uspi_assertion_failed>
   12a34:	e3a03006 	mov	r3, #6
   12a38:	e5843018 	str	r3, [r4, #24]
   12a3c:	e8bd8010 	pop	{r4, pc}
   12a40:	0001c77c 	.word	0x0001c77c
   12a44:	0001b4d8 	.word	0x0001b4d8

00012a48 <DWHCIFrameSchedulerNonPeriodicStartSplit>:
   12a48:	e92d4010 	push	{r4, lr}
   12a4c:	e2504000 	subs	r4, r0, #0
   12a50:	1a000003 	bne	12a64 <DWHCIFrameSchedulerNonPeriodicStartSplit+0x1c>
   12a54:	e3a02042 	mov	r2, #66	; 0x42
   12a58:	e59f1010 	ldr	r1, [pc, #16]	; 12a70 <DWHCIFrameSchedulerNonPeriodicStartSplit+0x28>
   12a5c:	e59f0010 	ldr	r0, [pc, #16]	; 12a74 <DWHCIFrameSchedulerNonPeriodicStartSplit+0x2c>
   12a60:	eb001b89 	bl	1988c <uspi_assertion_failed>
   12a64:	e3a03000 	mov	r3, #0
   12a68:	e5843018 	str	r3, [r4, #24]
   12a6c:	e8bd8010 	pop	{r4, pc}
   12a70:	0001c77c 	.word	0x0001c77c
   12a74:	0001b4d8 	.word	0x0001b4d8

00012a78 <DWHCIFrameSchedulerNonPeriodicCompleteSplit>:
   12a78:	e92d4010 	push	{r4, lr}
   12a7c:	e2504000 	subs	r4, r0, #0
   12a80:	1a000003 	bne	12a94 <DWHCIFrameSchedulerNonPeriodicCompleteSplit+0x1c>
   12a84:	e3a0204a 	mov	r2, #74	; 0x4a
   12a88:	e59f1074 	ldr	r1, [pc, #116]	; 12b04 <DWHCIFrameSchedulerNonPeriodicCompleteSplit+0x8c>
   12a8c:	e59f0074 	ldr	r0, [pc, #116]	; 12b08 <DWHCIFrameSchedulerNonPeriodicCompleteSplit+0x90>
   12a90:	eb001b7d 	bl	1988c <uspi_assertion_failed>
   12a94:	e5943018 	ldr	r3, [r4, #24]
   12a98:	e2433001 	sub	r3, r3, #1
   12a9c:	e3530004 	cmp	r3, #4
   12aa0:	979ff103 	ldrls	pc, [pc, r3, lsl #2]
   12aa4:	ea00000e 	b	12ae4 <DWHCIFrameSchedulerNonPeriodicCompleteSplit+0x6c>
   12aa8:	00012abc 	.word	0x00012abc
   12aac:	00012ad4 	.word	0x00012ad4
   12ab0:	00012ad4 	.word	0x00012ad4
   12ab4:	00012afc 	.word	0x00012afc
   12ab8:	00012afc 	.word	0x00012afc
   12abc:	e3a03002 	mov	r3, #2
   12ac0:	e5843018 	str	r3, [r4, #24]
   12ac4:	e3a03003 	mov	r3, #3
   12ac8:	e584301c 	str	r3, [r4, #28]
   12acc:	e3a00001 	mov	r0, #1
   12ad0:	e8bd8010 	pop	{r4, pc}
   12ad4:	e59f0030 	ldr	r0, [pc, #48]	; 12b0c <DWHCIFrameSchedulerNonPeriodicCompleteSplit+0x94>
   12ad8:	eb001afa 	bl	196c8 <usDelay>
   12adc:	e3a00001 	mov	r0, #1
   12ae0:	e8bd8010 	pop	{r4, pc}
   12ae4:	e3a02061 	mov	r2, #97	; 0x61
   12ae8:	e59f1014 	ldr	r1, [pc, #20]	; 12b04 <DWHCIFrameSchedulerNonPeriodicCompleteSplit+0x8c>
   12aec:	e59f001c 	ldr	r0, [pc, #28]	; 12b10 <DWHCIFrameSchedulerNonPeriodicCompleteSplit+0x98>
   12af0:	eb001b65 	bl	1988c <uspi_assertion_failed>
   12af4:	e3a00000 	mov	r0, #0
   12af8:	e8bd8010 	pop	{r4, pc}
   12afc:	e3a00000 	mov	r0, #0
   12b00:	e8bd8010 	pop	{r4, pc}
   12b04:	0001c77c 	.word	0x0001c77c
   12b08:	0001b4d8 	.word	0x0001b4d8
   12b0c:	00000271 	.word	0x00000271
   12b10:	0001d8fc 	.word	0x0001d8fc

00012b14 <DWHCIFrameSchedulerNonPeriodicTransactionComplete>:
   12b14:	e92d4070 	push	{r4, r5, r6, lr}
   12b18:	e1a05001 	mov	r5, r1
   12b1c:	e2504000 	subs	r4, r0, #0
   12b20:	1a000003 	bne	12b34 <DWHCIFrameSchedulerNonPeriodicTransactionComplete+0x20>
   12b24:	e3a0206b 	mov	r2, #107	; 0x6b
   12b28:	e59f10f8 	ldr	r1, [pc, #248]	; 12c28 <DWHCIFrameSchedulerNonPeriodicTransactionComplete+0x114>
   12b2c:	e59f00f8 	ldr	r0, [pc, #248]	; 12c2c <DWHCIFrameSchedulerNonPeriodicTransactionComplete+0x118>
   12b30:	eb001b55 	bl	1988c <uspi_assertion_failed>
   12b34:	e5943018 	ldr	r3, [r4, #24]
   12b38:	e3530000 	cmp	r3, #0
   12b3c:	0a000003 	beq	12b50 <DWHCIFrameSchedulerNonPeriodicTransactionComplete+0x3c>
   12b40:	e2433002 	sub	r3, r3, #2
   12b44:	e3530001 	cmp	r3, #1
   12b48:	8a000031 	bhi	12c14 <DWHCIFrameSchedulerNonPeriodicTransactionComplete+0x100>
   12b4c:	ea000008 	b	12b74 <DWHCIFrameSchedulerNonPeriodicTransactionComplete+0x60>
   12b50:	e3150020 	tst	r5, #32
   12b54:	1a000003 	bne	12b68 <DWHCIFrameSchedulerNonPeriodicTransactionComplete+0x54>
   12b58:	e3a02070 	mov	r2, #112	; 0x70
   12b5c:	e59f10c4 	ldr	r1, [pc, #196]	; 12c28 <DWHCIFrameSchedulerNonPeriodicTransactionComplete+0x114>
   12b60:	e59f00c8 	ldr	r0, [pc, #200]	; 12c30 <DWHCIFrameSchedulerNonPeriodicTransactionComplete+0x11c>
   12b64:	eb001b48 	bl	1988c <uspi_assertion_failed>
   12b68:	e3a03001 	mov	r3, #1
   12b6c:	e5843018 	str	r3, [r4, #24]
   12b70:	e8bd8070 	pop	{r4, r5, r6, pc}
   12b74:	e3150001 	tst	r5, #1
   12b78:	0a000002 	beq	12b88 <DWHCIFrameSchedulerNonPeriodicTransactionComplete+0x74>
   12b7c:	e3a03004 	mov	r3, #4
   12b80:	e5843018 	str	r3, [r4, #24]
   12b84:	e8bd8070 	pop	{r4, r5, r6, pc}
   12b88:	e3150060 	tst	r5, #96	; 0x60
   12b8c:	0a000007 	beq	12bb0 <DWHCIFrameSchedulerNonPeriodicTransactionComplete+0x9c>
   12b90:	e594301c 	ldr	r3, [r4, #28]
   12b94:	e2432001 	sub	r2, r3, #1
   12b98:	e584201c 	str	r2, [r4, #28]
   12b9c:	e3530000 	cmp	r3, #0
   12ba0:	03a03005 	moveq	r3, #5
   12ba4:	13a03003 	movne	r3, #3
   12ba8:	e5843018 	str	r3, [r4, #24]
   12bac:	e8bd8070 	pop	{r4, r5, r6, pc}
   12bb0:	e3150010 	tst	r5, #16
   12bb4:	0a00000c 	beq	12bec <DWHCIFrameSchedulerNonPeriodicTransactionComplete+0xd8>
   12bb8:	e594301c 	ldr	r3, [r4, #28]
   12bbc:	e2432001 	sub	r2, r3, #1
   12bc0:	e584201c 	str	r2, [r4, #28]
   12bc4:	e3530000 	cmp	r3, #0
   12bc8:	1a000004 	bne	12be0 <DWHCIFrameSchedulerNonPeriodicTransactionComplete+0xcc>
   12bcc:	e59f0060 	ldr	r0, [pc, #96]	; 12c34 <DWHCIFrameSchedulerNonPeriodicTransactionComplete+0x120>
   12bd0:	eb001abc 	bl	196c8 <usDelay>
   12bd4:	e3a03005 	mov	r3, #5
   12bd8:	e5843018 	str	r3, [r4, #24]
   12bdc:	e8bd8070 	pop	{r4, r5, r6, pc}
   12be0:	e3a03003 	mov	r3, #3
   12be4:	e5843018 	str	r3, [r4, #24]
   12be8:	e8bd8070 	pop	{r4, r5, r6, pc}
   12bec:	e1a03005 	mov	r3, r5
   12bf0:	e59f2040 	ldr	r2, [pc, #64]	; 12c38 <DWHCIFrameSchedulerNonPeriodicTransactionComplete+0x124>
   12bf4:	e3a01001 	mov	r1, #1
   12bf8:	e59f003c 	ldr	r0, [pc, #60]	; 12c3c <DWHCIFrameSchedulerNonPeriodicTransactionComplete+0x128>
   12bfc:	eb001b10 	bl	19844 <LogWrite>
   12c00:	e3a02094 	mov	r2, #148	; 0x94
   12c04:	e59f101c 	ldr	r1, [pc, #28]	; 12c28 <DWHCIFrameSchedulerNonPeriodicTransactionComplete+0x114>
   12c08:	e59f0030 	ldr	r0, [pc, #48]	; 12c40 <DWHCIFrameSchedulerNonPeriodicTransactionComplete+0x12c>
   12c0c:	eb001b1e 	bl	1988c <uspi_assertion_failed>
   12c10:	e8bd8070 	pop	{r4, r5, r6, pc}
   12c14:	e3a02099 	mov	r2, #153	; 0x99
   12c18:	e59f1008 	ldr	r1, [pc, #8]	; 12c28 <DWHCIFrameSchedulerNonPeriodicTransactionComplete+0x114>
   12c1c:	e59f001c 	ldr	r0, [pc, #28]	; 12c40 <DWHCIFrameSchedulerNonPeriodicTransactionComplete+0x12c>
   12c20:	eb001b19 	bl	1988c <uspi_assertion_failed>
   12c24:	e8bd8070 	pop	{r4, r5, r6, pc}
   12c28:	0001c77c 	.word	0x0001c77c
   12c2c:	0001b4d8 	.word	0x0001b4d8
   12c30:	0001c794 	.word	0x0001c794
   12c34:	00000271 	.word	0x00000271
   12c38:	0001c7b8 	.word	0x0001c7b8
   12c3c:	0001c7cc 	.word	0x0001c7cc
   12c40:	0001d8fc 	.word	0x0001d8fc

00012c44 <DWHCIFrameSchedulerNonPeriodic>:
   12c44:	e92d4010 	push	{r4, lr}
   12c48:	e2504000 	subs	r4, r0, #0
   12c4c:	1a000003 	bne	12c60 <DWHCIFrameSchedulerNonPeriodic+0x1c>
   12c50:	e3a02029 	mov	r2, #41	; 0x29
   12c54:	e59f1040 	ldr	r1, [pc, #64]	; 12c9c <DWHCIFrameSchedulerNonPeriodic+0x58>
   12c58:	e59f0040 	ldr	r0, [pc, #64]	; 12ca0 <DWHCIFrameSchedulerNonPeriodic+0x5c>
   12c5c:	eb001b0a 	bl	1988c <uspi_assertion_failed>
   12c60:	e59f303c 	ldr	r3, [pc, #60]	; 12ca4 <DWHCIFrameSchedulerNonPeriodic+0x60>
   12c64:	e5843000 	str	r3, [r4]
   12c68:	e59f3038 	ldr	r3, [pc, #56]	; 12ca8 <DWHCIFrameSchedulerNonPeriodic+0x64>
   12c6c:	e5843004 	str	r3, [r4, #4]
   12c70:	e59f3034 	ldr	r3, [pc, #52]	; 12cac <DWHCIFrameSchedulerNonPeriodic+0x68>
   12c74:	e5843008 	str	r3, [r4, #8]
   12c78:	e59f3030 	ldr	r3, [pc, #48]	; 12cb0 <DWHCIFrameSchedulerNonPeriodic+0x6c>
   12c7c:	e584300c 	str	r3, [r4, #12]
   12c80:	e59f302c 	ldr	r3, [pc, #44]	; 12cb4 <DWHCIFrameSchedulerNonPeriodic+0x70>
   12c84:	e5843010 	str	r3, [r4, #16]
   12c88:	e59f3028 	ldr	r3, [pc, #40]	; 12cb8 <DWHCIFrameSchedulerNonPeriodic+0x74>
   12c8c:	e5843014 	str	r3, [r4, #20]
   12c90:	e3a03006 	mov	r3, #6
   12c94:	e5843018 	str	r3, [r4, #24]
   12c98:	e8bd8010 	pop	{r4, pc}
   12c9c:	0001c77c 	.word	0x0001c77c
   12ca0:	0001b4d8 	.word	0x0001b4d8
   12ca4:	00012a18 	.word	0x00012a18
   12ca8:	00012a48 	.word	0x00012a48
   12cac:	00012a78 	.word	0x00012a78
   12cb0:	00012b14 	.word	0x00012b14
   12cb4:	00012a0c 	.word	0x00012a0c
   12cb8:	00012a10 	.word	0x00012a10

00012cbc <_DWHCIFrameSchedulerPeriodic>:
   12cbc:	e92d4010 	push	{r4, lr}
   12cc0:	e2504000 	subs	r4, r0, #0
   12cc4:	1a000003 	bne	12cd8 <_DWHCIFrameSchedulerPeriodic+0x1c>
   12cc8:	e3a0203e 	mov	r2, #62	; 0x3e
   12ccc:	e59f1010 	ldr	r1, [pc, #16]	; 12ce4 <_DWHCIFrameSchedulerPeriodic+0x28>
   12cd0:	e59f0010 	ldr	r0, [pc, #16]	; 12ce8 <_DWHCIFrameSchedulerPeriodic+0x2c>
   12cd4:	eb001aec 	bl	1988c <uspi_assertion_failed>
   12cd8:	e3a03006 	mov	r3, #6
   12cdc:	e5843018 	str	r3, [r4, #24]
   12ce0:	e8bd8010 	pop	{r4, pc}
   12ce4:	0001c7d4 	.word	0x0001c7d4
   12ce8:	0001b4d8 	.word	0x0001b4d8

00012cec <DWHCIFrameSchedulerPeriodicStartSplit>:
   12cec:	e92d4010 	push	{r4, lr}
   12cf0:	e2504000 	subs	r4, r0, #0
   12cf4:	1a000003 	bne	12d08 <DWHCIFrameSchedulerPeriodicStartSplit+0x1c>
   12cf8:	e3a02046 	mov	r2, #70	; 0x46
   12cfc:	e59f1018 	ldr	r1, [pc, #24]	; 12d1c <DWHCIFrameSchedulerPeriodicStartSplit+0x30>
   12d00:	e59f0018 	ldr	r0, [pc, #24]	; 12d20 <DWHCIFrameSchedulerPeriodicStartSplit+0x34>
   12d04:	eb001ae0 	bl	1988c <uspi_assertion_failed>
   12d08:	e3a03000 	mov	r3, #0
   12d0c:	e5843018 	str	r3, [r4, #24]
   12d10:	e3a03008 	mov	r3, #8
   12d14:	e5843020 	str	r3, [r4, #32]
   12d18:	e8bd8010 	pop	{r4, pc}
   12d1c:	0001c7d4 	.word	0x0001c7d4
   12d20:	0001b4d8 	.word	0x0001b4d8

00012d24 <DWHCIFrameSchedulerPeriodicCompleteSplit>:
   12d24:	e92d4010 	push	{r4, lr}
   12d28:	e2504000 	subs	r4, r0, #0
   12d2c:	1a000003 	bne	12d40 <DWHCIFrameSchedulerPeriodicCompleteSplit+0x1c>
   12d30:	e3a0204f 	mov	r2, #79	; 0x4f
   12d34:	e59f1094 	ldr	r1, [pc, #148]	; 12dd0 <DWHCIFrameSchedulerPeriodicCompleteSplit+0xac>
   12d38:	e59f0094 	ldr	r0, [pc, #148]	; 12dd4 <DWHCIFrameSchedulerPeriodicCompleteSplit+0xb0>
   12d3c:	eb001ad2 	bl	1988c <uspi_assertion_failed>
   12d40:	e5943018 	ldr	r3, [r4, #24]
   12d44:	e2433001 	sub	r3, r3, #1
   12d48:	e3530004 	cmp	r3, #4
   12d4c:	979ff103 	ldrls	pc, [pc, r3, lsl #2]
   12d50:	ea000016 	b	12db0 <DWHCIFrameSchedulerPeriodicCompleteSplit+0x8c>
   12d54:	00012d68 	.word	0x00012d68
   12d58:	00012db0 	.word	0x00012db0
   12d5c:	00012d98 	.word	0x00012d98
   12d60:	00012dc8 	.word	0x00012dc8
   12d64:	00012dc8 	.word	0x00012dc8
   12d68:	e3a03002 	mov	r3, #2
   12d6c:	e5843018 	str	r3, [r4, #24]
   12d70:	e5943020 	ldr	r3, [r4, #32]
   12d74:	e3530005 	cmp	r3, #5
   12d78:	13a02003 	movne	r2, #3
   12d7c:	03a02002 	moveq	r2, #2
   12d80:	e584201c 	str	r2, [r4, #28]
   12d84:	e2833002 	add	r3, r3, #2
   12d88:	e2033007 	and	r3, r3, #7
   12d8c:	e5843020 	str	r3, [r4, #32]
   12d90:	e3a00001 	mov	r0, #1
   12d94:	e8bd8010 	pop	{r4, pc}
   12d98:	e5943020 	ldr	r3, [r4, #32]
   12d9c:	e2833001 	add	r3, r3, #1
   12da0:	e2033007 	and	r3, r3, #7
   12da4:	e5843020 	str	r3, [r4, #32]
   12da8:	e3a00001 	mov	r0, #1
   12dac:	e8bd8010 	pop	{r4, pc}
   12db0:	e3a02066 	mov	r2, #102	; 0x66
   12db4:	e59f1014 	ldr	r1, [pc, #20]	; 12dd0 <DWHCIFrameSchedulerPeriodicCompleteSplit+0xac>
   12db8:	e59f0018 	ldr	r0, [pc, #24]	; 12dd8 <DWHCIFrameSchedulerPeriodicCompleteSplit+0xb4>
   12dbc:	eb001ab2 	bl	1988c <uspi_assertion_failed>
   12dc0:	e3a00000 	mov	r0, #0
   12dc4:	e8bd8010 	pop	{r4, pc}
   12dc8:	e3a00000 	mov	r0, #0
   12dcc:	e8bd8010 	pop	{r4, pc}
   12dd0:	0001c7d4 	.word	0x0001c7d4
   12dd4:	0001b4d8 	.word	0x0001b4d8
   12dd8:	0001d8fc 	.word	0x0001d8fc

00012ddc <DWHCIFrameSchedulerPeriodicIsOddFrame>:
   12ddc:	e92d4010 	push	{r4, lr}
   12de0:	e2504000 	subs	r4, r0, #0
   12de4:	1a000003 	bne	12df8 <DWHCIFrameSchedulerPeriodicIsOddFrame+0x1c>
   12de8:	e3a020ba 	mov	r2, #186	; 0xba
   12dec:	e59f1010 	ldr	r1, [pc, #16]	; 12e04 <DWHCIFrameSchedulerPeriodicIsOddFrame+0x28>
   12df0:	e59f0010 	ldr	r0, [pc, #16]	; 12e08 <DWHCIFrameSchedulerPeriodicIsOddFrame+0x2c>
   12df4:	eb001aa4 	bl	1988c <uspi_assertion_failed>
   12df8:	e5940020 	ldr	r0, [r4, #32]
   12dfc:	e2000001 	and	r0, r0, #1
   12e00:	e8bd8010 	pop	{r4, pc}
   12e04:	0001c7d4 	.word	0x0001c7d4
   12e08:	0001b4d8 	.word	0x0001b4d8

00012e0c <DWHCIFrameSchedulerPeriodicTransactionComplete>:
   12e0c:	e92d4070 	push	{r4, r5, r6, lr}
   12e10:	e1a05001 	mov	r5, r1
   12e14:	e2504000 	subs	r4, r0, #0
   12e18:	1a000003 	bne	12e2c <DWHCIFrameSchedulerPeriodicTransactionComplete+0x20>
   12e1c:	e3a02070 	mov	r2, #112	; 0x70
   12e20:	e59f10ec 	ldr	r1, [pc, #236]	; 12f14 <DWHCIFrameSchedulerPeriodicTransactionComplete+0x108>
   12e24:	e59f00ec 	ldr	r0, [pc, #236]	; 12f18 <DWHCIFrameSchedulerPeriodicTransactionComplete+0x10c>
   12e28:	eb001a97 	bl	1988c <uspi_assertion_failed>
   12e2c:	e5943018 	ldr	r3, [r4, #24]
   12e30:	e3530000 	cmp	r3, #0
   12e34:	0a000003 	beq	12e48 <DWHCIFrameSchedulerPeriodicTransactionComplete+0x3c>
   12e38:	e2433002 	sub	r3, r3, #2
   12e3c:	e3530001 	cmp	r3, #1
   12e40:	8a00002e 	bhi	12f00 <DWHCIFrameSchedulerPeriodicTransactionComplete+0xf4>
   12e44:	ea000008 	b	12e6c <DWHCIFrameSchedulerPeriodicTransactionComplete+0x60>
   12e48:	e3150020 	tst	r5, #32
   12e4c:	1a000003 	bne	12e60 <DWHCIFrameSchedulerPeriodicTransactionComplete+0x54>
   12e50:	e3a02075 	mov	r2, #117	; 0x75
   12e54:	e59f10b8 	ldr	r1, [pc, #184]	; 12f14 <DWHCIFrameSchedulerPeriodicTransactionComplete+0x108>
   12e58:	e59f00bc 	ldr	r0, [pc, #188]	; 12f1c <DWHCIFrameSchedulerPeriodicTransactionComplete+0x110>
   12e5c:	eb001a8a 	bl	1988c <uspi_assertion_failed>
   12e60:	e3a03001 	mov	r3, #1
   12e64:	e5843018 	str	r3, [r4, #24]
   12e68:	e8bd8070 	pop	{r4, r5, r6, pc}
   12e6c:	e3150001 	tst	r5, #1
   12e70:	0a000002 	beq	12e80 <DWHCIFrameSchedulerPeriodicTransactionComplete+0x74>
   12e74:	e3a03004 	mov	r3, #4
   12e78:	e5843018 	str	r3, [r4, #24]
   12e7c:	e8bd8070 	pop	{r4, r5, r6, pc}
   12e80:	e3150060 	tst	r5, #96	; 0x60
   12e84:	0a00000c 	beq	12ebc <DWHCIFrameSchedulerPeriodicTransactionComplete+0xb0>
   12e88:	e594301c 	ldr	r3, [r4, #28]
   12e8c:	e2432001 	sub	r2, r3, #1
   12e90:	e584201c 	str	r2, [r4, #28]
   12e94:	e3530000 	cmp	r3, #0
   12e98:	1a000004 	bne	12eb0 <DWHCIFrameSchedulerPeriodicTransactionComplete+0xa4>
   12e9c:	e3a03005 	mov	r3, #5
   12ea0:	e5843018 	str	r3, [r4, #24]
   12ea4:	e3a00ffa 	mov	r0, #1000	; 0x3e8
   12ea8:	eb001a06 	bl	196c8 <usDelay>
   12eac:	e8bd8070 	pop	{r4, r5, r6, pc}
   12eb0:	e3a03003 	mov	r3, #3
   12eb4:	e5843018 	str	r3, [r4, #24]
   12eb8:	e8bd8070 	pop	{r4, r5, r6, pc}
   12ebc:	e3150010 	tst	r5, #16
   12ec0:	0a000004 	beq	12ed8 <DWHCIFrameSchedulerPeriodicTransactionComplete+0xcc>
   12ec4:	e59f0054 	ldr	r0, [pc, #84]	; 12f20 <DWHCIFrameSchedulerPeriodicTransactionComplete+0x114>
   12ec8:	eb0019fe 	bl	196c8 <usDelay>
   12ecc:	e3a03005 	mov	r3, #5
   12ed0:	e5843018 	str	r3, [r4, #24]
   12ed4:	e8bd8070 	pop	{r4, r5, r6, pc}
   12ed8:	e1a03005 	mov	r3, r5
   12edc:	e59f2040 	ldr	r2, [pc, #64]	; 12f24 <DWHCIFrameSchedulerPeriodicTransactionComplete+0x118>
   12ee0:	e3a01001 	mov	r1, #1
   12ee4:	e59f003c 	ldr	r0, [pc, #60]	; 12f28 <DWHCIFrameSchedulerPeriodicTransactionComplete+0x11c>
   12ee8:	eb001a55 	bl	19844 <LogWrite>
   12eec:	e3a02094 	mov	r2, #148	; 0x94
   12ef0:	e59f101c 	ldr	r1, [pc, #28]	; 12f14 <DWHCIFrameSchedulerPeriodicTransactionComplete+0x108>
   12ef4:	e59f0030 	ldr	r0, [pc, #48]	; 12f2c <DWHCIFrameSchedulerPeriodicTransactionComplete+0x120>
   12ef8:	eb001a63 	bl	1988c <uspi_assertion_failed>
   12efc:	e8bd8070 	pop	{r4, r5, r6, pc}
   12f00:	e3a02099 	mov	r2, #153	; 0x99
   12f04:	e59f1008 	ldr	r1, [pc, #8]	; 12f14 <DWHCIFrameSchedulerPeriodicTransactionComplete+0x108>
   12f08:	e59f001c 	ldr	r0, [pc, #28]	; 12f2c <DWHCIFrameSchedulerPeriodicTransactionComplete+0x120>
   12f0c:	eb001a5e 	bl	1988c <uspi_assertion_failed>
   12f10:	e8bd8070 	pop	{r4, r5, r6, pc}
   12f14:	0001c7d4 	.word	0x0001c7d4
   12f18:	0001b4d8 	.word	0x0001b4d8
   12f1c:	0001c794 	.word	0x0001c794
   12f20:	00000271 	.word	0x00000271
   12f24:	0001c7b8 	.word	0x0001c7b8
   12f28:	0001c7cc 	.word	0x0001c7cc
   12f2c:	0001d8fc 	.word	0x0001d8fc

00012f30 <DWHCIFrameSchedulerPeriodicWaitForFrame>:
   12f30:	e92d4010 	push	{r4, lr}
   12f34:	e24dd010 	sub	sp, sp, #16
   12f38:	e2504000 	subs	r4, r0, #0
   12f3c:	1a000003 	bne	12f50 <DWHCIFrameSchedulerPeriodicWaitForFrame+0x20>
   12f40:	e3a020a1 	mov	r2, #161	; 0xa1
   12f44:	e59f1060 	ldr	r1, [pc, #96]	; 12fac <DWHCIFrameSchedulerPeriodicWaitForFrame+0x7c>
   12f48:	e59f0060 	ldr	r0, [pc, #96]	; 12fb0 <DWHCIFrameSchedulerPeriodicWaitForFrame+0x80>
   12f4c:	eb001a4e 	bl	1988c <uspi_assertion_failed>
   12f50:	e59f105c 	ldr	r1, [pc, #92]	; 12fb4 <DWHCIFrameSchedulerPeriodicWaitForFrame+0x84>
   12f54:	e28d0004 	add	r0, sp, #4
   12f58:	ebffe90c 	bl	d390 <DWHCIRegister>
   12f5c:	e5943020 	ldr	r3, [r4, #32]
   12f60:	e3530008 	cmp	r3, #8
   12f64:	1a000006 	bne	12f84 <DWHCIFrameSchedulerPeriodicWaitForFrame+0x54>
   12f68:	e28d0004 	add	r0, sp, #4
   12f6c:	ebffe931 	bl	d438 <DWHCIRegisterRead>
   12f70:	e2800001 	add	r0, r0, #1
   12f74:	e2003007 	and	r3, r0, #7
   12f78:	e3530006 	cmp	r3, #6
   12f7c:	03a03007 	moveq	r3, #7
   12f80:	e5843020 	str	r3, [r4, #32]
   12f84:	e28d0004 	add	r0, sp, #4
   12f88:	ebffe92a 	bl	d438 <DWHCIRegisterRead>
   12f8c:	e2000007 	and	r0, r0, #7
   12f90:	e5943020 	ldr	r3, [r4, #32]
   12f94:	e1500003 	cmp	r0, r3
   12f98:	1afffff9 	bne	12f84 <DWHCIFrameSchedulerPeriodicWaitForFrame+0x54>
   12f9c:	e28d0004 	add	r0, sp, #4
   12fa0:	ebffe918 	bl	d408 <_DWHCIRegister>
   12fa4:	e28dd010 	add	sp, sp, #16
   12fa8:	e8bd8010 	pop	{r4, pc}
   12fac:	0001c7d4 	.word	0x0001c7d4
   12fb0:	0001b4d8 	.word	0x0001b4d8
   12fb4:	20980408 	.word	0x20980408

00012fb8 <DWHCIFrameSchedulerPeriodic>:
   12fb8:	e92d4010 	push	{r4, lr}
   12fbc:	e2504000 	subs	r4, r0, #0
   12fc0:	1a000003 	bne	12fd4 <DWHCIFrameSchedulerPeriodic+0x1c>
   12fc4:	e3a0202c 	mov	r2, #44	; 0x2c
   12fc8:	e59f1048 	ldr	r1, [pc, #72]	; 13018 <DWHCIFrameSchedulerPeriodic+0x60>
   12fcc:	e59f0048 	ldr	r0, [pc, #72]	; 1301c <DWHCIFrameSchedulerPeriodic+0x64>
   12fd0:	eb001a2d 	bl	1988c <uspi_assertion_failed>
   12fd4:	e59f3044 	ldr	r3, [pc, #68]	; 13020 <DWHCIFrameSchedulerPeriodic+0x68>
   12fd8:	e5843000 	str	r3, [r4]
   12fdc:	e59f3040 	ldr	r3, [pc, #64]	; 13024 <DWHCIFrameSchedulerPeriodic+0x6c>
   12fe0:	e5843004 	str	r3, [r4, #4]
   12fe4:	e59f303c 	ldr	r3, [pc, #60]	; 13028 <DWHCIFrameSchedulerPeriodic+0x70>
   12fe8:	e5843008 	str	r3, [r4, #8]
   12fec:	e59f3038 	ldr	r3, [pc, #56]	; 1302c <DWHCIFrameSchedulerPeriodic+0x74>
   12ff0:	e584300c 	str	r3, [r4, #12]
   12ff4:	e59f3034 	ldr	r3, [pc, #52]	; 13030 <DWHCIFrameSchedulerPeriodic+0x78>
   12ff8:	e5843010 	str	r3, [r4, #16]
   12ffc:	e59f3030 	ldr	r3, [pc, #48]	; 13034 <DWHCIFrameSchedulerPeriodic+0x7c>
   13000:	e5843014 	str	r3, [r4, #20]
   13004:	e3a03006 	mov	r3, #6
   13008:	e5843018 	str	r3, [r4, #24]
   1300c:	e3a03008 	mov	r3, #8
   13010:	e5843020 	str	r3, [r4, #32]
   13014:	e8bd8010 	pop	{r4, pc}
   13018:	0001c7d4 	.word	0x0001c7d4
   1301c:	0001b4d8 	.word	0x0001b4d8
   13020:	00012cbc 	.word	0x00012cbc
   13024:	00012cec 	.word	0x00012cec
   13028:	00012d24 	.word	0x00012d24
   1302c:	00012e0c 	.word	0x00012e0c
   13030:	00012f30 	.word	0x00012f30
   13034:	00012ddc 	.word	0x00012ddc

00013038 <USBKeyboardDeviceStartRequest>:
   13038:	e92d4030 	push	{r4, r5, lr}
   1303c:	e24dd00c 	sub	sp, sp, #12
   13040:	e2504000 	subs	r4, r0, #0
   13044:	1a000003 	bne	13058 <USBKeyboardDeviceStartRequest+0x20>
   13048:	e59f20c8 	ldr	r2, [pc, #200]	; 13118 <USBKeyboardDeviceStartRequest+0xe0>
   1304c:	e59f10c8 	ldr	r1, [pc, #200]	; 1311c <USBKeyboardDeviceStartRequest+0xe4>
   13050:	e59f00c8 	ldr	r0, [pc, #200]	; 13120 <USBKeyboardDeviceStartRequest+0xe8>
   13054:	eb001a0c 	bl	1988c <uspi_assertion_failed>
   13058:	e594303c 	ldr	r3, [r4, #60]	; 0x3c
   1305c:	e3530000 	cmp	r3, #0
   13060:	1a000003 	bne	13074 <USBKeyboardDeviceStartRequest+0x3c>
   13064:	e3a02f45 	mov	r2, #276	; 0x114
   13068:	e59f10ac 	ldr	r1, [pc, #172]	; 1311c <USBKeyboardDeviceStartRequest+0xe4>
   1306c:	e59f00b0 	ldr	r0, [pc, #176]	; 13124 <USBKeyboardDeviceStartRequest+0xec>
   13070:	eb001a05 	bl	1988c <uspi_assertion_failed>
   13074:	e5943054 	ldr	r3, [r4, #84]	; 0x54
   13078:	e3530000 	cmp	r3, #0
   1307c:	1a000003 	bne	13090 <USBKeyboardDeviceStartRequest+0x58>
   13080:	e59f20a0 	ldr	r2, [pc, #160]	; 13128 <USBKeyboardDeviceStartRequest+0xf0>
   13084:	e59f1090 	ldr	r1, [pc, #144]	; 1311c <USBKeyboardDeviceStartRequest+0xe4>
   13088:	e59f009c 	ldr	r0, [pc, #156]	; 1312c <USBKeyboardDeviceStartRequest+0xf4>
   1308c:	eb0019fe 	bl	1988c <uspi_assertion_failed>
   13090:	e5943050 	ldr	r3, [r4, #80]	; 0x50
   13094:	e3530000 	cmp	r3, #0
   13098:	0a000003 	beq	130ac <USBKeyboardDeviceStartRequest+0x74>
   1309c:	e59f208c 	ldr	r2, [pc, #140]	; 13130 <USBKeyboardDeviceStartRequest+0xf8>
   130a0:	e59f1074 	ldr	r1, [pc, #116]	; 1311c <USBKeyboardDeviceStartRequest+0xe4>
   130a4:	e59f0088 	ldr	r0, [pc, #136]	; 13134 <USBKeyboardDeviceStartRequest+0xfc>
   130a8:	eb0019f7 	bl	1988c <uspi_assertion_failed>
   130ac:	e3a00024 	mov	r0, #36	; 0x24
   130b0:	eb0011ce 	bl	177f0 <malloc>
   130b4:	e5840050 	str	r0, [r4, #80]	; 0x50
   130b8:	e3500000 	cmp	r0, #0
   130bc:	1a000003 	bne	130d0 <USBKeyboardDeviceStartRequest+0x98>
   130c0:	e59f2070 	ldr	r2, [pc, #112]	; 13138 <USBKeyboardDeviceStartRequest+0x100>
   130c4:	e59f1050 	ldr	r1, [pc, #80]	; 1311c <USBKeyboardDeviceStartRequest+0xe4>
   130c8:	e59f006c 	ldr	r0, [pc, #108]	; 1313c <USBKeyboardDeviceStartRequest+0x104>
   130cc:	eb0019ee 	bl	1988c <uspi_assertion_failed>
   130d0:	e5942054 	ldr	r2, [r4, #84]	; 0x54
   130d4:	e594103c 	ldr	r1, [r4, #60]	; 0x3c
   130d8:	e5940050 	ldr	r0, [r4, #80]	; 0x50
   130dc:	e3a05000 	mov	r5, #0
   130e0:	e58d5000 	str	r5, [sp]
   130e4:	e3a03008 	mov	r3, #8
   130e8:	ebfff220 	bl	f970 <USBRequest>
   130ec:	e1a03004 	mov	r3, r4
   130f0:	e1a02005 	mov	r2, r5
   130f4:	e59f1044 	ldr	r1, [pc, #68]	; 13140 <USBKeyboardDeviceStartRequest+0x108>
   130f8:	e5940050 	ldr	r0, [r4, #80]	; 0x50
   130fc:	ebfff2da 	bl	fc6c <USBRequestSetCompletionRoutine>
   13100:	e1a00004 	mov	r0, r4
   13104:	ebffeef1 	bl	ecd0 <USBDeviceGetHost>
   13108:	e5941050 	ldr	r1, [r4, #80]	; 0x50
   1310c:	ebffe17e 	bl	b70c <DWHCIDeviceSubmitAsyncRequest>
   13110:	e28dd00c 	add	sp, sp, #12
   13114:	e8bd8030 	pop	{r4, r5, pc}
   13118:	00000112 	.word	0x00000112
   1311c:	0001c7f4 	.word	0x0001c7f4
   13120:	0001b4d8 	.word	0x0001b4d8
   13124:	0001c804 	.word	0x0001c804
   13128:	00000115 	.word	0x00000115
   1312c:	0001c824 	.word	0x0001c824
   13130:	00000117 	.word	0x00000117
   13134:	0001c840 	.word	0x0001c840
   13138:	00000119 	.word	0x00000119
   1313c:	0001bb88 	.word	0x0001bb88
   13140:	00013420 	.word	0x00013420

00013144 <USBKeyboardDeviceConfigure>:
   13144:	e92d41f0 	push	{r4, r5, r6, r7, r8, lr}
   13148:	e24dd020 	sub	sp, sp, #32
   1314c:	e2506000 	subs	r6, r0, #0
   13150:	1a000003 	bne	13164 <USBKeyboardDeviceConfigure+0x20>
   13154:	e3a0205e 	mov	r2, #94	; 0x5e
   13158:	e59f1298 	ldr	r1, [pc, #664]	; 133f8 <USBKeyboardDeviceConfigure+0x2b4>
   1315c:	e59f0298 	ldr	r0, [pc, #664]	; 133fc <USBKeyboardDeviceConfigure+0x2b8>
   13160:	eb0019c9 	bl	1988c <uspi_assertion_failed>
   13164:	e1a04006 	mov	r4, r6
   13168:	e3a01002 	mov	r1, #2
   1316c:	e1a00006 	mov	r0, r6
   13170:	ebffef13 	bl	edc4 <USBDeviceGetDescriptor>
   13174:	e3500000 	cmp	r0, #0
   13178:	0a000004 	beq	13190 <USBKeyboardDeviceConfigure+0x4c>
   1317c:	e5d03004 	ldrb	r3, [r0, #4]
   13180:	e3530000 	cmp	r3, #0
   13184:	13a05004 	movne	r5, #4
   13188:	13a07005 	movne	r7, #5
   1318c:	1a000035 	bne	13268 <USBKeyboardDeviceConfigure+0x124>
   13190:	e59f1268 	ldr	r1, [pc, #616]	; 13400 <USBKeyboardDeviceConfigure+0x2bc>
   13194:	e1a00006 	mov	r0, r6
   13198:	ebffef21 	bl	ee24 <USBDeviceConfigurationError>
   1319c:	e3a04000 	mov	r4, #0
   131a0:	ea000091 	b	133ec <USBKeyboardDeviceConfigure+0x2a8>
   131a4:	e5d03004 	ldrb	r3, [r0, #4]
   131a8:	e3530000 	cmp	r3, #0
   131ac:	0a00002d 	beq	13268 <USBKeyboardDeviceConfigure+0x124>
   131b0:	e5d03005 	ldrb	r3, [r0, #5]
   131b4:	e3530003 	cmp	r3, #3
   131b8:	1a00002a 	bne	13268 <USBKeyboardDeviceConfigure+0x124>
   131bc:	e5d03006 	ldrb	r3, [r0, #6]
   131c0:	e3530001 	cmp	r3, #1
   131c4:	1a000027 	bne	13268 <USBKeyboardDeviceConfigure+0x124>
   131c8:	e5d03007 	ldrb	r3, [r0, #7]
   131cc:	e3530001 	cmp	r3, #1
   131d0:	1a000024 	bne	13268 <USBKeyboardDeviceConfigure+0x124>
   131d4:	e5d03002 	ldrb	r3, [r0, #2]
   131d8:	e5c63038 	strb	r3, [r6, #56]	; 0x38
   131dc:	e5d03003 	ldrb	r3, [r0, #3]
   131e0:	e5c63039 	strb	r3, [r6, #57]	; 0x39
   131e4:	e1a01007 	mov	r1, r7
   131e8:	e1a00004 	mov	r0, r4
   131ec:	ebffeef4 	bl	edc4 <USBDeviceGetDescriptor>
   131f0:	e2508000 	subs	r8, r0, #0
   131f4:	0a00001b 	beq	13268 <USBKeyboardDeviceConfigure+0x124>
   131f8:	e1d830d2 	ldrsb	r3, [r8, #2]
   131fc:	e3530000 	cmp	r3, #0
   13200:	aa000018 	bge	13268 <USBKeyboardDeviceConfigure+0x124>
   13204:	e5d83003 	ldrb	r3, [r8, #3]
   13208:	e203303f 	and	r3, r3, #63	; 0x3f
   1320c:	e3530003 	cmp	r3, #3
   13210:	1a000014 	bne	13268 <USBKeyboardDeviceConfigure+0x124>
   13214:	e596303c 	ldr	r3, [r6, #60]	; 0x3c
   13218:	e3530000 	cmp	r3, #0
   1321c:	0a000003 	beq	13230 <USBKeyboardDeviceConfigure+0xec>
   13220:	e3a02081 	mov	r2, #129	; 0x81
   13224:	e59f11cc 	ldr	r1, [pc, #460]	; 133f8 <USBKeyboardDeviceConfigure+0x2b4>
   13228:	e59f01d4 	ldr	r0, [pc, #468]	; 13404 <USBKeyboardDeviceConfigure+0x2c0>
   1322c:	eb001996 	bl	1988c <uspi_assertion_failed>
   13230:	e3a00018 	mov	r0, #24
   13234:	eb00116d 	bl	177f0 <malloc>
   13238:	e586003c 	str	r0, [r6, #60]	; 0x3c
   1323c:	e3500000 	cmp	r0, #0
   13240:	1a000003 	bne	13254 <USBKeyboardDeviceConfigure+0x110>
   13244:	e3a02083 	mov	r2, #131	; 0x83
   13248:	e59f11a8 	ldr	r1, [pc, #424]	; 133f8 <USBKeyboardDeviceConfigure+0x2b4>
   1324c:	e59f01b4 	ldr	r0, [pc, #436]	; 13408 <USBKeyboardDeviceConfigure+0x2c4>
   13250:	eb00198d 	bl	1988c <uspi_assertion_failed>
   13254:	e1a02008 	mov	r2, r8
   13258:	e1a01006 	mov	r1, r6
   1325c:	e596003c 	ldr	r0, [r6, #60]	; 0x3c
   13260:	ebfff060 	bl	f3e8 <USBEndpoint2>
   13264:	ea000004 	b	1327c <USBKeyboardDeviceConfigure+0x138>
   13268:	e1a01005 	mov	r1, r5
   1326c:	e1a00004 	mov	r0, r4
   13270:	ebffeed3 	bl	edc4 <USBDeviceGetDescriptor>
   13274:	e3500000 	cmp	r0, #0
   13278:	1affffc9 	bne	131a4 <USBKeyboardDeviceConfigure+0x60>
   1327c:	e596303c 	ldr	r3, [r6, #60]	; 0x3c
   13280:	e3530000 	cmp	r3, #0
   13284:	1a000004 	bne	1329c <USBKeyboardDeviceConfigure+0x158>
   13288:	e59f1170 	ldr	r1, [pc, #368]	; 13400 <USBKeyboardDeviceConfigure+0x2bc>
   1328c:	e1a00006 	mov	r0, r6
   13290:	ebffeee3 	bl	ee24 <USBDeviceConfigurationError>
   13294:	e3a04000 	mov	r4, #0
   13298:	ea000053 	b	133ec <USBKeyboardDeviceConfigure+0x2a8>
   1329c:	e1a00006 	mov	r0, r6
   132a0:	ebffecbe 	bl	e5a0 <USBDeviceConfigure>
   132a4:	e2504000 	subs	r4, r0, #0
   132a8:	1a000004 	bne	132c0 <USBKeyboardDeviceConfigure+0x17c>
   132ac:	e59f2158 	ldr	r2, [pc, #344]	; 1340c <USBKeyboardDeviceConfigure+0x2c8>
   132b0:	e3a01001 	mov	r1, #1
   132b4:	e59f0144 	ldr	r0, [pc, #324]	; 13400 <USBKeyboardDeviceConfigure+0x2bc>
   132b8:	eb001961 	bl	19844 <LogWrite>
   132bc:	ea00004a 	b	133ec <USBKeyboardDeviceConfigure+0x2a8>
   132c0:	e5d63039 	ldrb	r3, [r6, #57]	; 0x39
   132c4:	e3530000 	cmp	r3, #0
   132c8:	0a000018 	beq	13330 <USBKeyboardDeviceConfigure+0x1ec>
   132cc:	e1a00006 	mov	r0, r6
   132d0:	ebffee7e 	bl	ecd0 <USBDeviceGetHost>
   132d4:	e1a04000 	mov	r4, r0
   132d8:	e1a00006 	mov	r0, r6
   132dc:	ebffee66 	bl	ec7c <USBDeviceGetEndpoint0>
   132e0:	e3a03000 	mov	r3, #0
   132e4:	e58d300c 	str	r3, [sp, #12]
   132e8:	e58d3008 	str	r3, [sp, #8]
   132ec:	e5d63038 	ldrb	r3, [r6, #56]	; 0x38
   132f0:	e58d3004 	str	r3, [sp, #4]
   132f4:	e5d63039 	ldrb	r3, [r6, #57]	; 0x39
   132f8:	e58d3000 	str	r3, [sp]
   132fc:	e3a0300b 	mov	r3, #11
   13300:	e3a02001 	mov	r2, #1
   13304:	e1a01000 	mov	r1, r0
   13308:	e1a00004 	mov	r0, r4
   1330c:	ebffe207 	bl	bb30 <DWHCIDeviceControlMessage>
   13310:	e3500000 	cmp	r0, #0
   13314:	aa000005 	bge	13330 <USBKeyboardDeviceConfigure+0x1ec>
   13318:	e59f20f0 	ldr	r2, [pc, #240]	; 13410 <USBKeyboardDeviceConfigure+0x2cc>
   1331c:	e3a01001 	mov	r1, #1
   13320:	e59f00d8 	ldr	r0, [pc, #216]	; 13400 <USBKeyboardDeviceConfigure+0x2bc>
   13324:	eb001946 	bl	19844 <LogWrite>
   13328:	e3a04000 	mov	r4, #0
   1332c:	ea00002e 	b	133ec <USBKeyboardDeviceConfigure+0x2a8>
   13330:	e1a00006 	mov	r0, r6
   13334:	ebffee65 	bl	ecd0 <USBDeviceGetHost>
   13338:	e1a04000 	mov	r4, r0
   1333c:	e1a00006 	mov	r0, r6
   13340:	ebffee4d 	bl	ec7c <USBDeviceGetEndpoint0>
   13344:	e3a03000 	mov	r3, #0
   13348:	e58d300c 	str	r3, [sp, #12]
   1334c:	e58d3008 	str	r3, [sp, #8]
   13350:	e5d62038 	ldrb	r2, [r6, #56]	; 0x38
   13354:	e58d2004 	str	r2, [sp, #4]
   13358:	e58d3000 	str	r3, [sp]
   1335c:	e3a0300b 	mov	r3, #11
   13360:	e3a02021 	mov	r2, #33	; 0x21
   13364:	e1a01000 	mov	r1, r0
   13368:	e1a00004 	mov	r0, r4
   1336c:	ebffe1ef 	bl	bb30 <DWHCIDeviceControlMessage>
   13370:	e3500000 	cmp	r0, #0
   13374:	aa000005 	bge	13390 <USBKeyboardDeviceConfigure+0x24c>
   13378:	e59f2094 	ldr	r2, [pc, #148]	; 13414 <USBKeyboardDeviceConfigure+0x2d0>
   1337c:	e3a01001 	mov	r1, #1
   13380:	e59f0078 	ldr	r0, [pc, #120]	; 13400 <USBKeyboardDeviceConfigure+0x2bc>
   13384:	eb00192e 	bl	19844 <LogWrite>
   13388:	e3a04000 	mov	r4, #0
   1338c:	ea000016 	b	133ec <USBKeyboardDeviceConfigure+0x2a8>
   13390:	e28d0014 	add	r0, sp, #20
   13394:	ebfff6e8 	bl	10f3c <String>
   13398:	e59f3078 	ldr	r3, [pc, #120]	; 13418 <USBKeyboardDeviceConfigure+0x2d4>
   1339c:	e5932000 	ldr	r2, [r3]
   133a0:	e2821001 	add	r1, r2, #1
   133a4:	e5831000 	str	r1, [r3]
   133a8:	e59f106c 	ldr	r1, [pc, #108]	; 1341c <USBKeyboardDeviceConfigure+0x2d8>
   133ac:	e28d0014 	add	r0, sp, #20
   133b0:	ebfff96e 	bl	11970 <StringFormat>
   133b4:	ebfff30e 	bl	fff4 <DeviceNameServiceGet>
   133b8:	e1a04000 	mov	r4, r0
   133bc:	e28d0014 	add	r0, sp, #20
   133c0:	ebfff70d 	bl	10ffc <StringGet>
   133c4:	e3a03000 	mov	r3, #0
   133c8:	e1a02006 	mov	r2, r6
   133cc:	e1a01000 	mov	r1, r0
   133d0:	e1a00004 	mov	r0, r4
   133d4:	ebfff295 	bl	fe30 <DeviceNameServiceAddDevice>
   133d8:	e28d0014 	add	r0, sp, #20
   133dc:	ebfff6f6 	bl	10fbc <_String>
   133e0:	e1a00006 	mov	r0, r6
   133e4:	ebffff13 	bl	13038 <USBKeyboardDeviceStartRequest>
   133e8:	e1a04000 	mov	r4, r0
   133ec:	e1a00004 	mov	r0, r4
   133f0:	e28dd020 	add	sp, sp, #32
   133f4:	e8bd81f0 	pop	{r4, r5, r6, r7, r8, pc}
   133f8:	0001c7f4 	.word	0x0001c7f4
   133fc:	0001b4d8 	.word	0x0001b4d8
   13400:	0001c7ec 	.word	0x0001c7ec
   13404:	0001c854 	.word	0x0001c854
   13408:	0001c804 	.word	0x0001c804
   1340c:	0001c3d8 	.word	0x0001c3d8
   13410:	0001c874 	.word	0x0001c874
   13414:	0001c88c 	.word	0x0001c88c
   13418:	00008888 	.word	0x00008888
   1341c:	0001c8a8 	.word	0x0001c8a8

00013420 <USBKeyboardDeviceCompletionRoutine>:
   13420:	e92d40f0 	push	{r4, r5, r6, r7, lr}
   13424:	e24dd00c 	sub	sp, sp, #12
   13428:	e1a05000 	mov	r5, r0
   1342c:	e2524000 	subs	r4, r2, #0
   13430:	1a000003 	bne	13444 <USBKeyboardDeviceCompletionRoutine+0x24>
   13434:	e59f2268 	ldr	r2, [pc, #616]	; 136a4 <USBKeyboardDeviceCompletionRoutine+0x284>
   13438:	e59f1268 	ldr	r1, [pc, #616]	; 136a8 <USBKeyboardDeviceCompletionRoutine+0x288>
   1343c:	e59f0268 	ldr	r0, [pc, #616]	; 136ac <USBKeyboardDeviceCompletionRoutine+0x28c>
   13440:	eb001911 	bl	1988c <uspi_assertion_failed>
   13444:	e3550000 	cmp	r5, #0
   13448:	1a000003 	bne	1345c <USBKeyboardDeviceCompletionRoutine+0x3c>
   1344c:	e59f225c 	ldr	r2, [pc, #604]	; 136b0 <USBKeyboardDeviceCompletionRoutine+0x290>
   13450:	e59f1250 	ldr	r1, [pc, #592]	; 136a8 <USBKeyboardDeviceCompletionRoutine+0x288>
   13454:	e59f0258 	ldr	r0, [pc, #600]	; 136b4 <USBKeyboardDeviceCompletionRoutine+0x294>
   13458:	eb00190b 	bl	1988c <uspi_assertion_failed>
   1345c:	e5943050 	ldr	r3, [r4, #80]	; 0x50
   13460:	e1550003 	cmp	r5, r3
   13464:	0a000003 	beq	13478 <USBKeyboardDeviceCompletionRoutine+0x58>
   13468:	e59f2248 	ldr	r2, [pc, #584]	; 136b8 <USBKeyboardDeviceCompletionRoutine+0x298>
   1346c:	e59f1234 	ldr	r1, [pc, #564]	; 136a8 <USBKeyboardDeviceCompletionRoutine+0x288>
   13470:	e59f0244 	ldr	r0, [pc, #580]	; 136bc <USBKeyboardDeviceCompletionRoutine+0x29c>
   13474:	eb001904 	bl	1988c <uspi_assertion_failed>
   13478:	e1a00005 	mov	r0, r5
   1347c:	ebfff19f 	bl	fb00 <USBRequestGetStatus>
   13480:	e3500000 	cmp	r0, #0
   13484:	0a000073 	beq	13658 <USBKeyboardDeviceCompletionRoutine+0x238>
   13488:	e1a00005 	mov	r0, r5
   1348c:	ebfff1a6 	bl	fb2c <USBRequestGetResultLength>
   13490:	e3500008 	cmp	r0, #8
   13494:	1a00006f 	bne	13658 <USBKeyboardDeviceCompletionRoutine+0x238>
   13498:	e594504c 	ldr	r5, [r4, #76]	; 0x4c
   1349c:	e3550000 	cmp	r5, #0
   134a0:	0a00000a 	beq	134d0 <USBKeyboardDeviceCompletionRoutine+0xb0>
   134a4:	e3540000 	cmp	r4, #0
   134a8:	1a000003 	bne	134bc <USBKeyboardDeviceCompletionRoutine+0x9c>
   134ac:	e59f220c 	ldr	r2, [pc, #524]	; 136c0 <USBKeyboardDeviceCompletionRoutine+0x2a0>
   134b0:	e59f11f0 	ldr	r1, [pc, #496]	; 136a8 <USBKeyboardDeviceCompletionRoutine+0x288>
   134b4:	e59f01f0 	ldr	r0, [pc, #496]	; 136ac <USBKeyboardDeviceCompletionRoutine+0x28c>
   134b8:	eb0018f3 	bl	1988c <uspi_assertion_failed>
   134bc:	e5943054 	ldr	r3, [r4, #84]	; 0x54
   134c0:	e2831002 	add	r1, r3, #2
   134c4:	e5d30000 	ldrb	r0, [r3]
   134c8:	e12fff35 	blx	r5
   134cc:	ea000061 	b	13658 <USBKeyboardDeviceCompletionRoutine+0x238>
   134d0:	e3540000 	cmp	r4, #0
   134d4:	1a000003 	bne	134e8 <USBKeyboardDeviceCompletionRoutine+0xc8>
   134d8:	e3a02e16 	mov	r2, #352	; 0x160
   134dc:	e59f11c4 	ldr	r1, [pc, #452]	; 136a8 <USBKeyboardDeviceCompletionRoutine+0x288>
   134e0:	e59f01c4 	ldr	r0, [pc, #452]	; 136ac <USBKeyboardDeviceCompletionRoutine+0x28c>
   134e4:	eb0018e8 	bl	1988c <uspi_assertion_failed>
   134e8:	e5942054 	ldr	r2, [r4, #84]	; 0x54
   134ec:	e5d25007 	ldrb	r5, [r2, #7]
   134f0:	e3550000 	cmp	r5, #0
   134f4:	1a000064 	bne	1368c <USBKeyboardDeviceCompletionRoutine+0x26c>
   134f8:	e2823007 	add	r3, r2, #7
   134fc:	e2822002 	add	r2, r2, #2
   13500:	e5735001 	ldrb	r5, [r3, #-1]!
   13504:	e3550000 	cmp	r5, #0
   13508:	1a00005f 	bne	1368c <USBKeyboardDeviceCompletionRoutine+0x26c>
   1350c:	e1530002 	cmp	r3, r2
   13510:	1afffffa 	bne	13500 <USBKeyboardDeviceCompletionRoutine+0xe0>
   13514:	e5d43058 	ldrb	r3, [r4, #88]	; 0x58
   13518:	e3530000 	cmp	r3, #0
   1351c:	13a03000 	movne	r3, #0
   13520:	15c43058 	strbne	r3, [r4, #88]	; 0x58
   13524:	ea000045 	b	13640 <USBKeyboardDeviceCompletionRoutine+0x220>
   13528:	e59f7178 	ldr	r7, [pc, #376]	; 136a8 <USBKeyboardDeviceCompletionRoutine+0x288>
   1352c:	e59f6178 	ldr	r6, [pc, #376]	; 136ac <USBKeyboardDeviceCompletionRoutine+0x28c>
   13530:	e3a020d8 	mov	r2, #216	; 0xd8
   13534:	e1a01007 	mov	r1, r7
   13538:	e1a00006 	mov	r0, r6
   1353c:	eb0018d2 	bl	1988c <uspi_assertion_failed>
   13540:	e59f2178 	ldr	r2, [pc, #376]	; 136c0 <USBKeyboardDeviceCompletionRoutine+0x2a0>
   13544:	e1a01007 	mov	r1, r7
   13548:	e1a00006 	mov	r0, r6
   1354c:	eb0018ce 	bl	1988c <uspi_assertion_failed>
   13550:	e5943054 	ldr	r3, [r4, #84]	; 0x54
   13554:	e5d37000 	ldrb	r7, [r3]
   13558:	e2846060 	add	r6, r4, #96	; 0x60
   1355c:	e1a02007 	mov	r2, r7
   13560:	e1a01005 	mov	r1, r5
   13564:	e1a00006 	mov	r0, r6
   13568:	eb000fd6 	bl	174c8 <KeyMapTranslate>
   1356c:	e2403e13 	sub	r3, r0, #304	; 0x130
   13570:	e2433003 	sub	r3, r3, #3
   13574:	e353000f 	cmp	r3, #15
   13578:	979ff103 	ldrls	pc, [pc, r3, lsl #2]
   1357c:	ea000023 	b	13610 <USBKeyboardDeviceCompletionRoutine+0x1f0>
   13580:	00013658 	.word	0x00013658
   13584:	00013658 	.word	0x00013658
   13588:	00013658 	.word	0x00013658
   1358c:	000135c0 	.word	0x000135c0
   13590:	000135c0 	.word	0x000135c0
   13594:	000135c0 	.word	0x000135c0
   13598:	000135c0 	.word	0x000135c0
   1359c:	000135c0 	.word	0x000135c0
   135a0:	000135c0 	.word	0x000135c0
   135a4:	000135c0 	.word	0x000135c0
   135a8:	000135c0 	.word	0x000135c0
   135ac:	000135c0 	.word	0x000135c0
   135b0:	000135c0 	.word	0x000135c0
   135b4:	000135c0 	.word	0x000135c0
   135b8:	000135c0 	.word	0x000135c0
   135bc:	000135fc 	.word	0x000135fc
   135c0:	e5943044 	ldr	r3, [r4, #68]	; 0x44
   135c4:	e3530000 	cmp	r3, #0
   135c8:	0a000022 	beq	13658 <USBKeyboardDeviceCompletionRoutine+0x238>
   135cc:	e2400f4d 	sub	r0, r0, #308	; 0x134
   135d0:	e2405002 	sub	r5, r0, #2
   135d4:	e355000b 	cmp	r5, #11
   135d8:	9a000003 	bls	135ec <USBKeyboardDeviceCompletionRoutine+0x1cc>
   135dc:	e3a020f6 	mov	r2, #246	; 0xf6
   135e0:	e59f10c0 	ldr	r1, [pc, #192]	; 136a8 <USBKeyboardDeviceCompletionRoutine+0x288>
   135e4:	e59f00d8 	ldr	r0, [pc, #216]	; 136c4 <USBKeyboardDeviceCompletionRoutine+0x2a4>
   135e8:	eb0018a7 	bl	1988c <uspi_assertion_failed>
   135ec:	e5943044 	ldr	r3, [r4, #68]	; 0x44
   135f0:	e1a00005 	mov	r0, r5
   135f4:	e12fff33 	blx	r3
   135f8:	ea000016 	b	13658 <USBKeyboardDeviceCompletionRoutine+0x238>
   135fc:	e5943048 	ldr	r3, [r4, #72]	; 0x48
   13600:	e3530000 	cmp	r3, #0
   13604:	0a000013 	beq	13658 <USBKeyboardDeviceCompletionRoutine+0x238>
   13608:	e12fff33 	blx	r3
   1360c:	ea000011 	b	13658 <USBKeyboardDeviceCompletionRoutine+0x238>
   13610:	e28d3004 	add	r3, sp, #4
   13614:	e1a02007 	mov	r2, r7
   13618:	e1a01000 	mov	r1, r0
   1361c:	e1a00006 	mov	r0, r6
   13620:	eb001001 	bl	1762c <KeyMapGetString>
   13624:	e3500000 	cmp	r0, #0
   13628:	0a00000a 	beq	13658 <USBKeyboardDeviceCompletionRoutine+0x238>
   1362c:	e5943040 	ldr	r3, [r4, #64]	; 0x40
   13630:	e3530000 	cmp	r3, #0
   13634:	0a000007 	beq	13658 <USBKeyboardDeviceCompletionRoutine+0x238>
   13638:	e12fff33 	blx	r3
   1363c:	ea000005 	b	13658 <USBKeyboardDeviceCompletionRoutine+0x238>
   13640:	e594005c 	ldr	r0, [r4, #92]	; 0x5c
   13644:	e3500000 	cmp	r0, #0
   13648:	0a000002 	beq	13658 <USBKeyboardDeviceCompletionRoutine+0x238>
   1364c:	eb001831 	bl	19718 <CancelKernelTimer>
   13650:	e3a03000 	mov	r3, #0
   13654:	e584305c 	str	r3, [r4, #92]	; 0x5c
   13658:	e5940050 	ldr	r0, [r4, #80]	; 0x50
   1365c:	ebfff0ed 	bl	fa18 <_USBRequest>
   13660:	e5940050 	ldr	r0, [r4, #80]	; 0x50
   13664:	eb0010ca 	bl	17994 <free>
   13668:	e3a03000 	mov	r3, #0
   1366c:	e5843050 	str	r3, [r4, #80]	; 0x50
   13670:	e1a00004 	mov	r0, r4
   13674:	ebfffe6f 	bl	13038 <USBKeyboardDeviceStartRequest>
   13678:	ea000007 	b	1369c <USBKeyboardDeviceCompletionRoutine+0x27c>
   1367c:	e5c45058 	strb	r5, [r4, #88]	; 0x58
   13680:	e3540000 	cmp	r4, #0
   13684:	1affffb1 	bne	13550 <USBKeyboardDeviceCompletionRoutine+0x130>
   13688:	eaffffa6 	b	13528 <USBKeyboardDeviceCompletionRoutine+0x108>
   1368c:	e5d43058 	ldrb	r3, [r4, #88]	; 0x58
   13690:	e1530005 	cmp	r3, r5
   13694:	1afffff8 	bne	1367c <USBKeyboardDeviceCompletionRoutine+0x25c>
   13698:	eaffffe8 	b	13640 <USBKeyboardDeviceCompletionRoutine+0x220>
   1369c:	e28dd00c 	add	sp, sp, #12
   136a0:	e8bd80f0 	pop	{r4, r5, r6, r7, pc}
   136a4:	00000123 	.word	0x00000123
   136a8:	0001c7f4 	.word	0x0001c7f4
   136ac:	0001b4d8 	.word	0x0001b4d8
   136b0:	00000125 	.word	0x00000125
   136b4:	0001b5a0 	.word	0x0001b5a0
   136b8:	00000126 	.word	0x00000126
   136bc:	0001c8b0 	.word	0x0001c8b0
   136c0:	0000015a 	.word	0x0000015a
   136c4:	0001c8c8 	.word	0x0001c8c8

000136c8 <USBKeyboardDevice>:
   136c8:	e92d4070 	push	{r4, r5, r6, lr}
   136cc:	e1a05001 	mov	r5, r1
   136d0:	e2504000 	subs	r4, r0, #0
   136d4:	1a000003 	bne	136e8 <USBKeyboardDevice+0x20>
   136d8:	e3a02031 	mov	r2, #49	; 0x31
   136dc:	e59f1070 	ldr	r1, [pc, #112]	; 13754 <USBKeyboardDevice+0x8c>
   136e0:	e59f0070 	ldr	r0, [pc, #112]	; 13758 <USBKeyboardDevice+0x90>
   136e4:	eb001868 	bl	1988c <uspi_assertion_failed>
   136e8:	e1a01005 	mov	r1, r5
   136ec:	e1a00004 	mov	r0, r4
   136f0:	ebffec20 	bl	e778 <USBDeviceCopy>
   136f4:	e59f3060 	ldr	r3, [pc, #96]	; 1375c <USBKeyboardDevice+0x94>
   136f8:	e5843000 	str	r3, [r4]
   136fc:	e3a03000 	mov	r3, #0
   13700:	e584303c 	str	r3, [r4, #60]	; 0x3c
   13704:	e5843040 	str	r3, [r4, #64]	; 0x40
   13708:	e5843044 	str	r3, [r4, #68]	; 0x44
   1370c:	e5843048 	str	r3, [r4, #72]	; 0x48
   13710:	e584304c 	str	r3, [r4, #76]	; 0x4c
   13714:	e5843050 	str	r3, [r4, #80]	; 0x50
   13718:	e5843054 	str	r3, [r4, #84]	; 0x54
   1371c:	e5c43058 	strb	r3, [r4, #88]	; 0x58
   13720:	e584305c 	str	r3, [r4, #92]	; 0x5c
   13724:	e2840060 	add	r0, r4, #96	; 0x60
   13728:	eb000f19 	bl	17394 <KeyMap>
   1372c:	e3a00008 	mov	r0, #8
   13730:	eb00102e 	bl	177f0 <malloc>
   13734:	e5840054 	str	r0, [r4, #84]	; 0x54
   13738:	e3500000 	cmp	r0, #0
   1373c:	18bd8070 	popne	{r4, r5, r6, pc}
   13740:	e3a02043 	mov	r2, #67	; 0x43
   13744:	e59f1008 	ldr	r1, [pc, #8]	; 13754 <USBKeyboardDevice+0x8c>
   13748:	e59f0010 	ldr	r0, [pc, #16]	; 13760 <USBKeyboardDevice+0x98>
   1374c:	eb00184e 	bl	1988c <uspi_assertion_failed>
   13750:	e8bd8070 	pop	{r4, r5, r6, pc}
   13754:	0001c7f4 	.word	0x0001c7f4
   13758:	0001b4d8 	.word	0x0001b4d8
   1375c:	00013144 	.word	0x00013144
   13760:	0001c824 	.word	0x0001c824

00013764 <_CUSBKeyboardDevice>:
   13764:	e92d4010 	push	{r4, lr}
   13768:	e2504000 	subs	r4, r0, #0
   1376c:	1a000003 	bne	13780 <_CUSBKeyboardDevice+0x1c>
   13770:	e3a02048 	mov	r2, #72	; 0x48
   13774:	e59f1050 	ldr	r1, [pc, #80]	; 137cc <_CUSBKeyboardDevice+0x68>
   13778:	e59f0050 	ldr	r0, [pc, #80]	; 137d0 <_CUSBKeyboardDevice+0x6c>
   1377c:	eb001842 	bl	1988c <uspi_assertion_failed>
   13780:	e5940054 	ldr	r0, [r4, #84]	; 0x54
   13784:	e3500000 	cmp	r0, #0
   13788:	0a000002 	beq	13798 <_CUSBKeyboardDevice+0x34>
   1378c:	eb001080 	bl	17994 <free>
   13790:	e3a03000 	mov	r3, #0
   13794:	e5843054 	str	r3, [r4, #84]	; 0x54
   13798:	e594003c 	ldr	r0, [r4, #60]	; 0x3c
   1379c:	e3500000 	cmp	r0, #0
   137a0:	0a000004 	beq	137b8 <_CUSBKeyboardDevice+0x54>
   137a4:	ebffefa1 	bl	f630 <_USBEndpoint>
   137a8:	e594003c 	ldr	r0, [r4, #60]	; 0x3c
   137ac:	eb001078 	bl	17994 <free>
   137b0:	e3a03000 	mov	r3, #0
   137b4:	e584303c 	str	r3, [r4, #60]	; 0x3c
   137b8:	e2840060 	add	r0, r4, #96	; 0x60
   137bc:	eb000f08 	bl	173e4 <_KeyMap>
   137c0:	e1a00004 	mov	r0, r4
   137c4:	ebffec5f 	bl	e948 <_USBDevice>
   137c8:	e8bd8010 	pop	{r4, pc}
   137cc:	0001c7f4 	.word	0x0001c7f4
   137d0:	0001b4d8 	.word	0x0001b4d8

000137d4 <USBKeyboardDeviceRegisterKeyPressedHandler>:
   137d4:	e92d4070 	push	{r4, r5, r6, lr}
   137d8:	e1a04001 	mov	r4, r1
   137dc:	e2505000 	subs	r5, r0, #0
   137e0:	1a000003 	bne	137f4 <USBKeyboardDeviceRegisterKeyPressedHandler+0x20>
   137e4:	e3a020bc 	mov	r2, #188	; 0xbc
   137e8:	e59f1024 	ldr	r1, [pc, #36]	; 13814 <USBKeyboardDeviceRegisterKeyPressedHandler+0x40>
   137ec:	e59f0024 	ldr	r0, [pc, #36]	; 13818 <USBKeyboardDeviceRegisterKeyPressedHandler+0x44>
   137f0:	eb001825 	bl	1988c <uspi_assertion_failed>
   137f4:	e3540000 	cmp	r4, #0
   137f8:	1a000003 	bne	1380c <USBKeyboardDeviceRegisterKeyPressedHandler+0x38>
   137fc:	e3a020bd 	mov	r2, #189	; 0xbd
   13800:	e59f100c 	ldr	r1, [pc, #12]	; 13814 <USBKeyboardDeviceRegisterKeyPressedHandler+0x40>
   13804:	e59f0010 	ldr	r0, [pc, #16]	; 1381c <USBKeyboardDeviceRegisterKeyPressedHandler+0x48>
   13808:	eb00181f 	bl	1988c <uspi_assertion_failed>
   1380c:	e5854040 	str	r4, [r5, #64]	; 0x40
   13810:	e8bd8070 	pop	{r4, r5, r6, pc}
   13814:	0001c7f4 	.word	0x0001c7f4
   13818:	0001b4d8 	.word	0x0001b4d8
   1381c:	0001c8d8 	.word	0x0001c8d8

00013820 <USBKeyboardDeviceRegisterSelectConsoleHandler>:
   13820:	e92d4070 	push	{r4, r5, r6, lr}
   13824:	e1a04001 	mov	r4, r1
   13828:	e2505000 	subs	r5, r0, #0
   1382c:	1a000003 	bne	13840 <USBKeyboardDeviceRegisterSelectConsoleHandler+0x20>
   13830:	e3a020c3 	mov	r2, #195	; 0xc3
   13834:	e59f1024 	ldr	r1, [pc, #36]	; 13860 <USBKeyboardDeviceRegisterSelectConsoleHandler+0x40>
   13838:	e59f0024 	ldr	r0, [pc, #36]	; 13864 <USBKeyboardDeviceRegisterSelectConsoleHandler+0x44>
   1383c:	eb001812 	bl	1988c <uspi_assertion_failed>
   13840:	e3540000 	cmp	r4, #0
   13844:	1a000003 	bne	13858 <USBKeyboardDeviceRegisterSelectConsoleHandler+0x38>
   13848:	e3a020c4 	mov	r2, #196	; 0xc4
   1384c:	e59f100c 	ldr	r1, [pc, #12]	; 13860 <USBKeyboardDeviceRegisterSelectConsoleHandler+0x40>
   13850:	e59f0010 	ldr	r0, [pc, #16]	; 13868 <USBKeyboardDeviceRegisterSelectConsoleHandler+0x48>
   13854:	eb00180c 	bl	1988c <uspi_assertion_failed>
   13858:	e5854044 	str	r4, [r5, #68]	; 0x44
   1385c:	e8bd8070 	pop	{r4, r5, r6, pc}
   13860:	0001c7f4 	.word	0x0001c7f4
   13864:	0001b4d8 	.word	0x0001b4d8
   13868:	0001c8f0 	.word	0x0001c8f0

0001386c <USBKeyboardDeviceRegisterShutdownHandler>:
   1386c:	e92d4070 	push	{r4, r5, r6, lr}
   13870:	e1a04001 	mov	r4, r1
   13874:	e2505000 	subs	r5, r0, #0
   13878:	1a000003 	bne	1388c <USBKeyboardDeviceRegisterShutdownHandler+0x20>
   1387c:	e3a020ca 	mov	r2, #202	; 0xca
   13880:	e59f1024 	ldr	r1, [pc, #36]	; 138ac <USBKeyboardDeviceRegisterShutdownHandler+0x40>
   13884:	e59f0024 	ldr	r0, [pc, #36]	; 138b0 <USBKeyboardDeviceRegisterShutdownHandler+0x44>
   13888:	eb0017ff 	bl	1988c <uspi_assertion_failed>
   1388c:	e3540000 	cmp	r4, #0
   13890:	1a000003 	bne	138a4 <USBKeyboardDeviceRegisterShutdownHandler+0x38>
   13894:	e3a020cb 	mov	r2, #203	; 0xcb
   13898:	e59f100c 	ldr	r1, [pc, #12]	; 138ac <USBKeyboardDeviceRegisterShutdownHandler+0x40>
   1389c:	e59f0010 	ldr	r0, [pc, #16]	; 138b4 <USBKeyboardDeviceRegisterShutdownHandler+0x48>
   138a0:	eb0017f9 	bl	1988c <uspi_assertion_failed>
   138a4:	e5854048 	str	r4, [r5, #72]	; 0x48
   138a8:	e8bd8070 	pop	{r4, r5, r6, pc}
   138ac:	0001c7f4 	.word	0x0001c7f4
   138b0:	0001b4d8 	.word	0x0001b4d8
   138b4:	0001c90c 	.word	0x0001c90c

000138b8 <USBKeyboardDeviceRegisterKeyStatusHandlerRaw>:
   138b8:	e92d4070 	push	{r4, r5, r6, lr}
   138bc:	e1a04001 	mov	r4, r1
   138c0:	e2505000 	subs	r5, r0, #0
   138c4:	1a000003 	bne	138d8 <USBKeyboardDeviceRegisterKeyStatusHandlerRaw+0x20>
   138c8:	e3a020d1 	mov	r2, #209	; 0xd1
   138cc:	e59f1024 	ldr	r1, [pc, #36]	; 138f8 <USBKeyboardDeviceRegisterKeyStatusHandlerRaw+0x40>
   138d0:	e59f0024 	ldr	r0, [pc, #36]	; 138fc <USBKeyboardDeviceRegisterKeyStatusHandlerRaw+0x44>
   138d4:	eb0017ec 	bl	1988c <uspi_assertion_failed>
   138d8:	e3540000 	cmp	r4, #0
   138dc:	1a000003 	bne	138f0 <USBKeyboardDeviceRegisterKeyStatusHandlerRaw+0x38>
   138e0:	e3a020d2 	mov	r2, #210	; 0xd2
   138e4:	e59f100c 	ldr	r1, [pc, #12]	; 138f8 <USBKeyboardDeviceRegisterKeyStatusHandlerRaw+0x40>
   138e8:	e59f0010 	ldr	r0, [pc, #16]	; 13900 <USBKeyboardDeviceRegisterKeyStatusHandlerRaw+0x48>
   138ec:	eb0017e6 	bl	1988c <uspi_assertion_failed>
   138f0:	e585404c 	str	r4, [r5, #76]	; 0x4c
   138f4:	e8bd8070 	pop	{r4, r5, r6, pc}
   138f8:	0001c7f4 	.word	0x0001c7f4
   138fc:	0001b4d8 	.word	0x0001b4d8
   13900:	0001c924 	.word	0x0001c924

00013904 <DWHCIRootPort>:
   13904:	e92d4070 	push	{r4, r5, r6, lr}
   13908:	e1a04001 	mov	r4, r1
   1390c:	e2505000 	subs	r5, r0, #0
   13910:	1a000003 	bne	13924 <DWHCIRootPort+0x20>
   13914:	e3a0201f 	mov	r2, #31
   13918:	e59f102c 	ldr	r1, [pc, #44]	; 1394c <DWHCIRootPort+0x48>
   1391c:	e59f002c 	ldr	r0, [pc, #44]	; 13950 <DWHCIRootPort+0x4c>
   13920:	eb0017d9 	bl	1988c <uspi_assertion_failed>
   13924:	e5854000 	str	r4, [r5]
   13928:	e3a03000 	mov	r3, #0
   1392c:	e5853004 	str	r3, [r5, #4]
   13930:	e1540003 	cmp	r4, r3
   13934:	18bd8070 	popne	{r4, r5, r6, pc}
   13938:	e3a02024 	mov	r2, #36	; 0x24
   1393c:	e59f1008 	ldr	r1, [pc, #8]	; 1394c <DWHCIRootPort+0x48>
   13940:	e59f000c 	ldr	r0, [pc, #12]	; 13954 <DWHCIRootPort+0x50>
   13944:	eb0017d0 	bl	1988c <uspi_assertion_failed>
   13948:	e8bd8070 	pop	{r4, r5, r6, pc}
   1394c:	0001c948 	.word	0x0001c948
   13950:	0001b4d8 	.word	0x0001b4d8
   13954:	0001bcb0 	.word	0x0001bcb0

00013958 <_DWHCIRootPort>:
   13958:	e92d4010 	push	{r4, lr}
   1395c:	e2504000 	subs	r4, r0, #0
   13960:	1a000003 	bne	13974 <_DWHCIRootPort+0x1c>
   13964:	e3a02029 	mov	r2, #41	; 0x29
   13968:	e59f1030 	ldr	r1, [pc, #48]	; 139a0 <_DWHCIRootPort+0x48>
   1396c:	e59f0030 	ldr	r0, [pc, #48]	; 139a4 <_DWHCIRootPort+0x4c>
   13970:	eb0017c5 	bl	1988c <uspi_assertion_failed>
   13974:	e5940004 	ldr	r0, [r4, #4]
   13978:	e3500000 	cmp	r0, #0
   1397c:	0a000004 	beq	13994 <_DWHCIRootPort+0x3c>
   13980:	ebffebf0 	bl	e948 <_USBDevice>
   13984:	e5940004 	ldr	r0, [r4, #4]
   13988:	eb001001 	bl	17994 <free>
   1398c:	e3a03000 	mov	r3, #0
   13990:	e5843004 	str	r3, [r4, #4]
   13994:	e3a03000 	mov	r3, #0
   13998:	e5843000 	str	r3, [r4]
   1399c:	e8bd8010 	pop	{r4, pc}
   139a0:	0001c948 	.word	0x0001c948
   139a4:	0001b4d8 	.word	0x0001b4d8

000139a8 <DWHCIRootPortInitialize>:
   139a8:	e92d4030 	push	{r4, r5, lr}
   139ac:	e24dd00c 	sub	sp, sp, #12
   139b0:	e2504000 	subs	r4, r0, #0
   139b4:	1a000003 	bne	139c8 <DWHCIRootPortInitialize+0x20>
   139b8:	e3a02037 	mov	r2, #55	; 0x37
   139bc:	e59f1214 	ldr	r1, [pc, #532]	; 13bd8 <DWHCIRootPortInitialize+0x230>
   139c0:	e59f0214 	ldr	r0, [pc, #532]	; 13bdc <DWHCIRootPortInitialize+0x234>
   139c4:	eb0017b0 	bl	1988c <uspi_assertion_failed>
   139c8:	e5943000 	ldr	r3, [r4]
   139cc:	e3530000 	cmp	r3, #0
   139d0:	1a000003 	bne	139e4 <DWHCIRootPortInitialize+0x3c>
   139d4:	e3a02039 	mov	r2, #57	; 0x39
   139d8:	e59f11f8 	ldr	r1, [pc, #504]	; 13bd8 <DWHCIRootPortInitialize+0x230>
   139dc:	e59f01fc 	ldr	r0, [pc, #508]	; 13be0 <DWHCIRootPortInitialize+0x238>
   139e0:	eb0017a9 	bl	1988c <uspi_assertion_failed>
   139e4:	e5940000 	ldr	r0, [r4]
   139e8:	ebffe569 	bl	cf94 <DWHCIDeviceGetPortSpeed>
   139ec:	e1a05000 	mov	r5, r0
   139f0:	e3500003 	cmp	r0, #3
   139f4:	1a000005 	bne	13a10 <DWHCIRootPortInitialize+0x68>
   139f8:	e59f21e4 	ldr	r2, [pc, #484]	; 13be4 <DWHCIRootPortInitialize+0x23c>
   139fc:	e3a01001 	mov	r1, #1
   13a00:	e59f01e0 	ldr	r0, [pc, #480]	; 13be8 <DWHCIRootPortInitialize+0x240>
   13a04:	eb00178e 	bl	19844 <LogWrite>
   13a08:	e3a05000 	mov	r5, #0
   13a0c:	ea00006e 	b	13bcc <DWHCIRootPortInitialize+0x224>
   13a10:	e5943004 	ldr	r3, [r4, #4]
   13a14:	e3530000 	cmp	r3, #0
   13a18:	0a000003 	beq	13a2c <DWHCIRootPortInitialize+0x84>
   13a1c:	e3a02043 	mov	r2, #67	; 0x43
   13a20:	e59f11b0 	ldr	r1, [pc, #432]	; 13bd8 <DWHCIRootPortInitialize+0x230>
   13a24:	e59f01c0 	ldr	r0, [pc, #448]	; 13bec <DWHCIRootPortInitialize+0x244>
   13a28:	eb001797 	bl	1988c <uspi_assertion_failed>
   13a2c:	e3a00038 	mov	r0, #56	; 0x38
   13a30:	eb000f6e 	bl	177f0 <malloc>
   13a34:	e5840004 	str	r0, [r4, #4]
   13a38:	e3500000 	cmp	r0, #0
   13a3c:	1a000003 	bne	13a50 <DWHCIRootPortInitialize+0xa8>
   13a40:	e3a02045 	mov	r2, #69	; 0x45
   13a44:	e59f118c 	ldr	r1, [pc, #396]	; 13bd8 <DWHCIRootPortInitialize+0x230>
   13a48:	e59f01a0 	ldr	r0, [pc, #416]	; 13bf0 <DWHCIRootPortInitialize+0x248>
   13a4c:	eb00178e 	bl	1988c <uspi_assertion_failed>
   13a50:	e5941000 	ldr	r1, [r4]
   13a54:	e5940004 	ldr	r0, [r4, #4]
   13a58:	e3a03001 	mov	r3, #1
   13a5c:	e58d3000 	str	r3, [sp]
   13a60:	e3a03000 	mov	r3, #0
   13a64:	e1a02005 	mov	r2, r5
   13a68:	ebffeafe 	bl	e668 <USBDevice>
   13a6c:	e5940004 	ldr	r0, [r4, #4]
   13a70:	ebffed17 	bl	eed4 <USBDeviceInitialize>
   13a74:	e2505000 	subs	r5, r0, #0
   13a78:	1a000006 	bne	13a98 <DWHCIRootPortInitialize+0xf0>
   13a7c:	e5940004 	ldr	r0, [r4, #4]
   13a80:	ebffebb0 	bl	e948 <_USBDevice>
   13a84:	e5940004 	ldr	r0, [r4, #4]
   13a88:	eb000fc1 	bl	17994 <free>
   13a8c:	e3a03000 	mov	r3, #0
   13a90:	e5843004 	str	r3, [r4, #4]
   13a94:	ea00004c 	b	13bcc <DWHCIRootPortInitialize+0x224>
   13a98:	e5940004 	ldr	r0, [r4, #4]
   13a9c:	eb000b44 	bl	167b4 <USBStandardHubGetDeviceNames>
   13aa0:	e2505000 	subs	r5, r0, #0
   13aa4:	1a000003 	bne	13ab8 <DWHCIRootPortInitialize+0x110>
   13aa8:	e3a02052 	mov	r2, #82	; 0x52
   13aac:	e59f1124 	ldr	r1, [pc, #292]	; 13bd8 <DWHCIRootPortInitialize+0x230>
   13ab0:	e59f013c 	ldr	r0, [pc, #316]	; 13bf4 <DWHCIRootPortInitialize+0x24c>
   13ab4:	eb001774 	bl	1988c <uspi_assertion_failed>
   13ab8:	e1a00005 	mov	r0, r5
   13abc:	ebfff54e 	bl	10ffc <StringGet>
   13ac0:	e1a03000 	mov	r3, r0
   13ac4:	e59f212c 	ldr	r2, [pc, #300]	; 13bf8 <DWHCIRootPortInitialize+0x250>
   13ac8:	e3a01003 	mov	r1, #3
   13acc:	e59f0114 	ldr	r0, [pc, #276]	; 13be8 <DWHCIRootPortInitialize+0x240>
   13ad0:	eb00175b 	bl	19844 <LogWrite>
   13ad4:	e1a00005 	mov	r0, r5
   13ad8:	ebfff537 	bl	10fbc <_String>
   13adc:	e1a00005 	mov	r0, r5
   13ae0:	eb000fab 	bl	17994 <free>
   13ae4:	e5940004 	ldr	r0, [r4, #4]
   13ae8:	eb000abd 	bl	165e4 <USBDeviceFactoryGetDevice>
   13aec:	e2505000 	subs	r5, r0, #0
   13af0:	0a00001e 	beq	13b70 <DWHCIRootPortInitialize+0x1c8>
   13af4:	e5940004 	ldr	r0, [r4, #4]
   13af8:	ebffeb92 	bl	e948 <_USBDevice>
   13afc:	e5940004 	ldr	r0, [r4, #4]
   13b00:	eb000fa3 	bl	17994 <free>
   13b04:	e5845004 	str	r5, [r4, #4]
   13b08:	e5953000 	ldr	r3, [r5]
   13b0c:	e1a00005 	mov	r0, r5
   13b10:	e12fff33 	blx	r3
   13b14:	e2505000 	subs	r5, r0, #0
   13b18:	1a00000a 	bne	13b48 <DWHCIRootPortInitialize+0x1a0>
   13b1c:	e59f20d8 	ldr	r2, [pc, #216]	; 13bfc <DWHCIRootPortInitialize+0x254>
   13b20:	e3a01001 	mov	r1, #1
   13b24:	e59f00bc 	ldr	r0, [pc, #188]	; 13be8 <DWHCIRootPortInitialize+0x240>
   13b28:	eb001745 	bl	19844 <LogWrite>
   13b2c:	e5940004 	ldr	r0, [r4, #4]
   13b30:	ebffeb84 	bl	e948 <_USBDevice>
   13b34:	e5940004 	ldr	r0, [r4, #4]
   13b38:	eb000f95 	bl	17994 <free>
   13b3c:	e3a03000 	mov	r3, #0
   13b40:	e5843004 	str	r3, [r4, #4]
   13b44:	ea000020 	b	13bcc <DWHCIRootPortInitialize+0x224>
   13b48:	e59f20b0 	ldr	r2, [pc, #176]	; 13c00 <DWHCIRootPortInitialize+0x258>
   13b4c:	e3a01004 	mov	r1, #4
   13b50:	e59f0090 	ldr	r0, [pc, #144]	; 13be8 <DWHCIRootPortInitialize+0x240>
   13b54:	eb00173a 	bl	19844 <LogWrite>
   13b58:	e5940000 	ldr	r0, [r4]
   13b5c:	ebffe52d 	bl	d018 <DWHCIDeviceOvercurrentDetected>
   13b60:	e3500000 	cmp	r0, #0
   13b64:	03a05001 	moveq	r5, #1
   13b68:	0a000017 	beq	13bcc <DWHCIRootPortInitialize+0x224>
   13b6c:	ea00000a 	b	13b9c <DWHCIRootPortInitialize+0x1f4>
   13b70:	e59f208c 	ldr	r2, [pc, #140]	; 13c04 <DWHCIRootPortInitialize+0x25c>
   13b74:	e3a01003 	mov	r1, #3
   13b78:	e59f0068 	ldr	r0, [pc, #104]	; 13be8 <DWHCIRootPortInitialize+0x240>
   13b7c:	eb001730 	bl	19844 <LogWrite>
   13b80:	e5940004 	ldr	r0, [r4, #4]
   13b84:	ebffeb6f 	bl	e948 <_USBDevice>
   13b88:	e5940004 	ldr	r0, [r4, #4]
   13b8c:	eb000f80 	bl	17994 <free>
   13b90:	e3a05000 	mov	r5, #0
   13b94:	e5845004 	str	r5, [r4, #4]
   13b98:	ea00000b 	b	13bcc <DWHCIRootPortInitialize+0x224>
   13b9c:	e59f2064 	ldr	r2, [pc, #100]	; 13c08 <DWHCIRootPortInitialize+0x260>
   13ba0:	e3a01001 	mov	r1, #1
   13ba4:	e59f003c 	ldr	r0, [pc, #60]	; 13be8 <DWHCIRootPortInitialize+0x240>
   13ba8:	eb001725 	bl	19844 <LogWrite>
   13bac:	e5940000 	ldr	r0, [r4]
   13bb0:	ebffe534 	bl	d088 <DWHCIDeviceDisableRootPort>
   13bb4:	e5940004 	ldr	r0, [r4, #4]
   13bb8:	ebffeb62 	bl	e948 <_USBDevice>
   13bbc:	e5940004 	ldr	r0, [r4, #4]
   13bc0:	eb000f73 	bl	17994 <free>
   13bc4:	e3a05000 	mov	r5, #0
   13bc8:	e5845004 	str	r5, [r4, #4]
   13bcc:	e1a00005 	mov	r0, r5
   13bd0:	e28dd00c 	add	sp, sp, #12
   13bd4:	e8bd8030 	pop	{r4, r5, pc}
   13bd8:	0001c948 	.word	0x0001c948
   13bdc:	0001b4d8 	.word	0x0001b4d8
   13be0:	0001bcb0 	.word	0x0001bcb0
   13be4:	0001c958 	.word	0x0001c958
   13be8:	0001c940 	.word	0x0001c940
   13bec:	0001c974 	.word	0x0001c974
   13bf0:	0001bb9c 	.word	0x0001bb9c
   13bf4:	0001c98c 	.word	0x0001c98c
   13bf8:	0001c998 	.word	0x0001c998
   13bfc:	0001c9a8 	.word	0x0001c9a8
   13c00:	0001c9c0 	.word	0x0001c9c0
   13c04:	0001c9d4 	.word	0x0001c9d4
   13c08:	0001c9ec 	.word	0x0001c9ec

00013c0c <USBMouseDeviceStartRequest>:
   13c0c:	e92d4030 	push	{r4, r5, lr}
   13c10:	e24dd00c 	sub	sp, sp, #12
   13c14:	e2504000 	subs	r4, r0, #0
   13c18:	1a000003 	bne	13c2c <USBMouseDeviceStartRequest+0x20>
   13c1c:	e3a020af 	mov	r2, #175	; 0xaf
   13c20:	e59f10c4 	ldr	r1, [pc, #196]	; 13cec <USBMouseDeviceStartRequest+0xe0>
   13c24:	e59f00c4 	ldr	r0, [pc, #196]	; 13cf0 <USBMouseDeviceStartRequest+0xe4>
   13c28:	eb001717 	bl	1988c <uspi_assertion_failed>
   13c2c:	e594303c 	ldr	r3, [r4, #60]	; 0x3c
   13c30:	e3530000 	cmp	r3, #0
   13c34:	1a000003 	bne	13c48 <USBMouseDeviceStartRequest+0x3c>
   13c38:	e3a020b1 	mov	r2, #177	; 0xb1
   13c3c:	e59f10a8 	ldr	r1, [pc, #168]	; 13cec <USBMouseDeviceStartRequest+0xe0>
   13c40:	e59f00ac 	ldr	r0, [pc, #172]	; 13cf4 <USBMouseDeviceStartRequest+0xe8>
   13c44:	eb001710 	bl	1988c <uspi_assertion_failed>
   13c48:	e5943048 	ldr	r3, [r4, #72]	; 0x48
   13c4c:	e3530000 	cmp	r3, #0
   13c50:	1a000003 	bne	13c64 <USBMouseDeviceStartRequest+0x58>
   13c54:	e3a020b2 	mov	r2, #178	; 0xb2
   13c58:	e59f108c 	ldr	r1, [pc, #140]	; 13cec <USBMouseDeviceStartRequest+0xe0>
   13c5c:	e59f0094 	ldr	r0, [pc, #148]	; 13cf8 <USBMouseDeviceStartRequest+0xec>
   13c60:	eb001709 	bl	1988c <uspi_assertion_failed>
   13c64:	e5943044 	ldr	r3, [r4, #68]	; 0x44
   13c68:	e3530000 	cmp	r3, #0
   13c6c:	0a000003 	beq	13c80 <USBMouseDeviceStartRequest+0x74>
   13c70:	e3a020b4 	mov	r2, #180	; 0xb4
   13c74:	e59f1070 	ldr	r1, [pc, #112]	; 13cec <USBMouseDeviceStartRequest+0xe0>
   13c78:	e59f007c 	ldr	r0, [pc, #124]	; 13cfc <USBMouseDeviceStartRequest+0xf0>
   13c7c:	eb001702 	bl	1988c <uspi_assertion_failed>
   13c80:	e3a00024 	mov	r0, #36	; 0x24
   13c84:	eb000ed9 	bl	177f0 <malloc>
   13c88:	e5840044 	str	r0, [r4, #68]	; 0x44
   13c8c:	e3500000 	cmp	r0, #0
   13c90:	1a000003 	bne	13ca4 <USBMouseDeviceStartRequest+0x98>
   13c94:	e3a020b6 	mov	r2, #182	; 0xb6
   13c98:	e59f104c 	ldr	r1, [pc, #76]	; 13cec <USBMouseDeviceStartRequest+0xe0>
   13c9c:	e59f005c 	ldr	r0, [pc, #92]	; 13d00 <USBMouseDeviceStartRequest+0xf4>
   13ca0:	eb0016f9 	bl	1988c <uspi_assertion_failed>
   13ca4:	e5942048 	ldr	r2, [r4, #72]	; 0x48
   13ca8:	e594103c 	ldr	r1, [r4, #60]	; 0x3c
   13cac:	e5940044 	ldr	r0, [r4, #68]	; 0x44
   13cb0:	e3a05000 	mov	r5, #0
   13cb4:	e58d5000 	str	r5, [sp]
   13cb8:	e3a03003 	mov	r3, #3
   13cbc:	ebffef2b 	bl	f970 <USBRequest>
   13cc0:	e1a03004 	mov	r3, r4
   13cc4:	e1a02005 	mov	r2, r5
   13cc8:	e59f1034 	ldr	r1, [pc, #52]	; 13d04 <USBMouseDeviceStartRequest+0xf8>
   13ccc:	e5940044 	ldr	r0, [r4, #68]	; 0x44
   13cd0:	ebffefe5 	bl	fc6c <USBRequestSetCompletionRoutine>
   13cd4:	e1a00004 	mov	r0, r4
   13cd8:	ebffebfc 	bl	ecd0 <USBDeviceGetHost>
   13cdc:	e5941044 	ldr	r1, [r4, #68]	; 0x44
   13ce0:	ebffde89 	bl	b70c <DWHCIDeviceSubmitAsyncRequest>
   13ce4:	e28dd00c 	add	sp, sp, #12
   13ce8:	e8bd8030 	pop	{r4, r5, pc}
   13cec:	0001ca0c 	.word	0x0001ca0c
   13cf0:	0001b4d8 	.word	0x0001b4d8
   13cf4:	0001c804 	.word	0x0001c804
   13cf8:	0001c824 	.word	0x0001c824
   13cfc:	0001c840 	.word	0x0001c840
   13d00:	0001bb88 	.word	0x0001bb88
   13d04:	00013fe4 	.word	0x00013fe4

00013d08 <USBMouseDeviceConfigure>:
   13d08:	e92d41f0 	push	{r4, r5, r6, r7, r8, lr}
   13d0c:	e24dd020 	sub	sp, sp, #32
   13d10:	e2506000 	subs	r6, r0, #0
   13d14:	1a000003 	bne	13d28 <USBMouseDeviceConfigure+0x20>
   13d18:	e3a0204a 	mov	r2, #74	; 0x4a
   13d1c:	e59f1298 	ldr	r1, [pc, #664]	; 13fbc <USBMouseDeviceConfigure+0x2b4>
   13d20:	e59f0298 	ldr	r0, [pc, #664]	; 13fc0 <USBMouseDeviceConfigure+0x2b8>
   13d24:	eb0016d8 	bl	1988c <uspi_assertion_failed>
   13d28:	e1a04006 	mov	r4, r6
   13d2c:	e3a01002 	mov	r1, #2
   13d30:	e1a00006 	mov	r0, r6
   13d34:	ebffec22 	bl	edc4 <USBDeviceGetDescriptor>
   13d38:	e3500000 	cmp	r0, #0
   13d3c:	0a000004 	beq	13d54 <USBMouseDeviceConfigure+0x4c>
   13d40:	e5d03004 	ldrb	r3, [r0, #4]
   13d44:	e3530000 	cmp	r3, #0
   13d48:	13a05004 	movne	r5, #4
   13d4c:	13a07005 	movne	r7, #5
   13d50:	1a000035 	bne	13e2c <USBMouseDeviceConfigure+0x124>
   13d54:	e59f1268 	ldr	r1, [pc, #616]	; 13fc4 <USBMouseDeviceConfigure+0x2bc>
   13d58:	e1a00006 	mov	r0, r6
   13d5c:	ebffec30 	bl	ee24 <USBDeviceConfigurationError>
   13d60:	e3a04000 	mov	r4, #0
   13d64:	ea000091 	b	13fb0 <USBMouseDeviceConfigure+0x2a8>
   13d68:	e5d03004 	ldrb	r3, [r0, #4]
   13d6c:	e3530000 	cmp	r3, #0
   13d70:	0a00002d 	beq	13e2c <USBMouseDeviceConfigure+0x124>
   13d74:	e5d03005 	ldrb	r3, [r0, #5]
   13d78:	e3530003 	cmp	r3, #3
   13d7c:	1a00002a 	bne	13e2c <USBMouseDeviceConfigure+0x124>
   13d80:	e5d03006 	ldrb	r3, [r0, #6]
   13d84:	e3530001 	cmp	r3, #1
   13d88:	1a000027 	bne	13e2c <USBMouseDeviceConfigure+0x124>
   13d8c:	e5d03007 	ldrb	r3, [r0, #7]
   13d90:	e3530002 	cmp	r3, #2
   13d94:	1a000024 	bne	13e2c <USBMouseDeviceConfigure+0x124>
   13d98:	e5d03002 	ldrb	r3, [r0, #2]
   13d9c:	e5c63038 	strb	r3, [r6, #56]	; 0x38
   13da0:	e5d03003 	ldrb	r3, [r0, #3]
   13da4:	e5c63039 	strb	r3, [r6, #57]	; 0x39
   13da8:	e1a01007 	mov	r1, r7
   13dac:	e1a00004 	mov	r0, r4
   13db0:	ebffec03 	bl	edc4 <USBDeviceGetDescriptor>
   13db4:	e2508000 	subs	r8, r0, #0
   13db8:	0a00001b 	beq	13e2c <USBMouseDeviceConfigure+0x124>
   13dbc:	e1d830d2 	ldrsb	r3, [r8, #2]
   13dc0:	e3530000 	cmp	r3, #0
   13dc4:	aa000018 	bge	13e2c <USBMouseDeviceConfigure+0x124>
   13dc8:	e5d83003 	ldrb	r3, [r8, #3]
   13dcc:	e203303f 	and	r3, r3, #63	; 0x3f
   13dd0:	e3530003 	cmp	r3, #3
   13dd4:	1a000014 	bne	13e2c <USBMouseDeviceConfigure+0x124>
   13dd8:	e596303c 	ldr	r3, [r6, #60]	; 0x3c
   13ddc:	e3530000 	cmp	r3, #0
   13de0:	0a000003 	beq	13df4 <USBMouseDeviceConfigure+0xec>
   13de4:	e3a0206d 	mov	r2, #109	; 0x6d
   13de8:	e59f11cc 	ldr	r1, [pc, #460]	; 13fbc <USBMouseDeviceConfigure+0x2b4>
   13dec:	e59f01d4 	ldr	r0, [pc, #468]	; 13fc8 <USBMouseDeviceConfigure+0x2c0>
   13df0:	eb0016a5 	bl	1988c <uspi_assertion_failed>
   13df4:	e3a00018 	mov	r0, #24
   13df8:	eb000e7c 	bl	177f0 <malloc>
   13dfc:	e586003c 	str	r0, [r6, #60]	; 0x3c
   13e00:	e3500000 	cmp	r0, #0
   13e04:	1a000003 	bne	13e18 <USBMouseDeviceConfigure+0x110>
   13e08:	e3a0206f 	mov	r2, #111	; 0x6f
   13e0c:	e59f11a8 	ldr	r1, [pc, #424]	; 13fbc <USBMouseDeviceConfigure+0x2b4>
   13e10:	e59f01b4 	ldr	r0, [pc, #436]	; 13fcc <USBMouseDeviceConfigure+0x2c4>
   13e14:	eb00169c 	bl	1988c <uspi_assertion_failed>
   13e18:	e1a02008 	mov	r2, r8
   13e1c:	e1a01006 	mov	r1, r6
   13e20:	e596003c 	ldr	r0, [r6, #60]	; 0x3c
   13e24:	ebffed6f 	bl	f3e8 <USBEndpoint2>
   13e28:	ea000004 	b	13e40 <USBMouseDeviceConfigure+0x138>
   13e2c:	e1a01005 	mov	r1, r5
   13e30:	e1a00004 	mov	r0, r4
   13e34:	ebffebe2 	bl	edc4 <USBDeviceGetDescriptor>
   13e38:	e3500000 	cmp	r0, #0
   13e3c:	1affffc9 	bne	13d68 <USBMouseDeviceConfigure+0x60>
   13e40:	e596303c 	ldr	r3, [r6, #60]	; 0x3c
   13e44:	e3530000 	cmp	r3, #0
   13e48:	1a000004 	bne	13e60 <USBMouseDeviceConfigure+0x158>
   13e4c:	e59f1170 	ldr	r1, [pc, #368]	; 13fc4 <USBMouseDeviceConfigure+0x2bc>
   13e50:	e1a00006 	mov	r0, r6
   13e54:	ebffebf2 	bl	ee24 <USBDeviceConfigurationError>
   13e58:	e3a04000 	mov	r4, #0
   13e5c:	ea000053 	b	13fb0 <USBMouseDeviceConfigure+0x2a8>
   13e60:	e1a00006 	mov	r0, r6
   13e64:	ebffe9cd 	bl	e5a0 <USBDeviceConfigure>
   13e68:	e2504000 	subs	r4, r0, #0
   13e6c:	1a000004 	bne	13e84 <USBMouseDeviceConfigure+0x17c>
   13e70:	e59f2158 	ldr	r2, [pc, #344]	; 13fd0 <USBMouseDeviceConfigure+0x2c8>
   13e74:	e3a01001 	mov	r1, #1
   13e78:	e59f0144 	ldr	r0, [pc, #324]	; 13fc4 <USBMouseDeviceConfigure+0x2bc>
   13e7c:	eb001670 	bl	19844 <LogWrite>
   13e80:	ea00004a 	b	13fb0 <USBMouseDeviceConfigure+0x2a8>
   13e84:	e5d63039 	ldrb	r3, [r6, #57]	; 0x39
   13e88:	e3530000 	cmp	r3, #0
   13e8c:	0a000018 	beq	13ef4 <USBMouseDeviceConfigure+0x1ec>
   13e90:	e1a00006 	mov	r0, r6
   13e94:	ebffeb8d 	bl	ecd0 <USBDeviceGetHost>
   13e98:	e1a04000 	mov	r4, r0
   13e9c:	e1a00006 	mov	r0, r6
   13ea0:	ebffeb75 	bl	ec7c <USBDeviceGetEndpoint0>
   13ea4:	e3a03000 	mov	r3, #0
   13ea8:	e58d300c 	str	r3, [sp, #12]
   13eac:	e58d3008 	str	r3, [sp, #8]
   13eb0:	e5d63038 	ldrb	r3, [r6, #56]	; 0x38
   13eb4:	e58d3004 	str	r3, [sp, #4]
   13eb8:	e5d63039 	ldrb	r3, [r6, #57]	; 0x39
   13ebc:	e58d3000 	str	r3, [sp]
   13ec0:	e3a0300b 	mov	r3, #11
   13ec4:	e3a02001 	mov	r2, #1
   13ec8:	e1a01000 	mov	r1, r0
   13ecc:	e1a00004 	mov	r0, r4
   13ed0:	ebffdf16 	bl	bb30 <DWHCIDeviceControlMessage>
   13ed4:	e3500000 	cmp	r0, #0
   13ed8:	aa000005 	bge	13ef4 <USBMouseDeviceConfigure+0x1ec>
   13edc:	e59f20f0 	ldr	r2, [pc, #240]	; 13fd4 <USBMouseDeviceConfigure+0x2cc>
   13ee0:	e3a01001 	mov	r1, #1
   13ee4:	e59f00d8 	ldr	r0, [pc, #216]	; 13fc4 <USBMouseDeviceConfigure+0x2bc>
   13ee8:	eb001655 	bl	19844 <LogWrite>
   13eec:	e3a04000 	mov	r4, #0
   13ef0:	ea00002e 	b	13fb0 <USBMouseDeviceConfigure+0x2a8>
   13ef4:	e1a00006 	mov	r0, r6
   13ef8:	ebffeb74 	bl	ecd0 <USBDeviceGetHost>
   13efc:	e1a04000 	mov	r4, r0
   13f00:	e1a00006 	mov	r0, r6
   13f04:	ebffeb5c 	bl	ec7c <USBDeviceGetEndpoint0>
   13f08:	e3a03000 	mov	r3, #0
   13f0c:	e58d300c 	str	r3, [sp, #12]
   13f10:	e58d3008 	str	r3, [sp, #8]
   13f14:	e5d62038 	ldrb	r2, [r6, #56]	; 0x38
   13f18:	e58d2004 	str	r2, [sp, #4]
   13f1c:	e58d3000 	str	r3, [sp]
   13f20:	e3a0300b 	mov	r3, #11
   13f24:	e3a02021 	mov	r2, #33	; 0x21
   13f28:	e1a01000 	mov	r1, r0
   13f2c:	e1a00004 	mov	r0, r4
   13f30:	ebffdefe 	bl	bb30 <DWHCIDeviceControlMessage>
   13f34:	e3500000 	cmp	r0, #0
   13f38:	aa000005 	bge	13f54 <USBMouseDeviceConfigure+0x24c>
   13f3c:	e59f2094 	ldr	r2, [pc, #148]	; 13fd8 <USBMouseDeviceConfigure+0x2d0>
   13f40:	e3a01001 	mov	r1, #1
   13f44:	e59f0078 	ldr	r0, [pc, #120]	; 13fc4 <USBMouseDeviceConfigure+0x2bc>
   13f48:	eb00163d 	bl	19844 <LogWrite>
   13f4c:	e3a04000 	mov	r4, #0
   13f50:	ea000016 	b	13fb0 <USBMouseDeviceConfigure+0x2a8>
   13f54:	e28d0014 	add	r0, sp, #20
   13f58:	ebfff3f7 	bl	10f3c <String>
   13f5c:	e59f3078 	ldr	r3, [pc, #120]	; 13fdc <USBMouseDeviceConfigure+0x2d4>
   13f60:	e5932000 	ldr	r2, [r3]
   13f64:	e2821001 	add	r1, r2, #1
   13f68:	e5831000 	str	r1, [r3]
   13f6c:	e59f106c 	ldr	r1, [pc, #108]	; 13fe0 <USBMouseDeviceConfigure+0x2d8>
   13f70:	e28d0014 	add	r0, sp, #20
   13f74:	ebfff67d 	bl	11970 <StringFormat>
   13f78:	ebfff01d 	bl	fff4 <DeviceNameServiceGet>
   13f7c:	e1a04000 	mov	r4, r0
   13f80:	e28d0014 	add	r0, sp, #20
   13f84:	ebfff41c 	bl	10ffc <StringGet>
   13f88:	e3a03000 	mov	r3, #0
   13f8c:	e1a02006 	mov	r2, r6
   13f90:	e1a01000 	mov	r1, r0
   13f94:	e1a00004 	mov	r0, r4
   13f98:	ebffefa4 	bl	fe30 <DeviceNameServiceAddDevice>
   13f9c:	e28d0014 	add	r0, sp, #20
   13fa0:	ebfff405 	bl	10fbc <_String>
   13fa4:	e1a00006 	mov	r0, r6
   13fa8:	ebffff17 	bl	13c0c <USBMouseDeviceStartRequest>
   13fac:	e1a04000 	mov	r4, r0
   13fb0:	e1a00004 	mov	r0, r4
   13fb4:	e28dd020 	add	sp, sp, #32
   13fb8:	e8bd81f0 	pop	{r4, r5, r6, r7, r8, pc}
   13fbc:	0001ca0c 	.word	0x0001ca0c
   13fc0:	0001b4d8 	.word	0x0001b4d8
   13fc4:	0001ca04 	.word	0x0001ca04
   13fc8:	0001c854 	.word	0x0001c854
   13fcc:	0001c804 	.word	0x0001c804
   13fd0:	0001c3d8 	.word	0x0001c3d8
   13fd4:	0001c874 	.word	0x0001c874
   13fd8:	0001c88c 	.word	0x0001c88c
   13fdc:	0000888c 	.word	0x0000888c
   13fe0:	0001ca18 	.word	0x0001ca18

00013fe4 <USBMouseDeviceCompletionRoutine>:
   13fe4:	e92d41f0 	push	{r4, r5, r6, r7, r8, lr}
   13fe8:	e1a05000 	mov	r5, r0
   13fec:	e2524000 	subs	r4, r2, #0
   13ff0:	1a000003 	bne	14004 <USBMouseDeviceCompletionRoutine+0x20>
   13ff4:	e3a020c0 	mov	r2, #192	; 0xc0
   13ff8:	e59f10d8 	ldr	r1, [pc, #216]	; 140d8 <USBMouseDeviceCompletionRoutine+0xf4>
   13ffc:	e59f00d8 	ldr	r0, [pc, #216]	; 140dc <USBMouseDeviceCompletionRoutine+0xf8>
   14000:	eb001621 	bl	1988c <uspi_assertion_failed>
   14004:	e3550000 	cmp	r5, #0
   14008:	1a000003 	bne	1401c <USBMouseDeviceCompletionRoutine+0x38>
   1400c:	e3a020c2 	mov	r2, #194	; 0xc2
   14010:	e59f10c0 	ldr	r1, [pc, #192]	; 140d8 <USBMouseDeviceCompletionRoutine+0xf4>
   14014:	e59f00c4 	ldr	r0, [pc, #196]	; 140e0 <USBMouseDeviceCompletionRoutine+0xfc>
   14018:	eb00161b 	bl	1988c <uspi_assertion_failed>
   1401c:	e5943044 	ldr	r3, [r4, #68]	; 0x44
   14020:	e1550003 	cmp	r5, r3
   14024:	0a000003 	beq	14038 <USBMouseDeviceCompletionRoutine+0x54>
   14028:	e3a020c3 	mov	r2, #195	; 0xc3
   1402c:	e59f10a4 	ldr	r1, [pc, #164]	; 140d8 <USBMouseDeviceCompletionRoutine+0xf4>
   14030:	e59f00ac 	ldr	r0, [pc, #172]	; 140e4 <USBMouseDeviceCompletionRoutine+0x100>
   14034:	eb001614 	bl	1988c <uspi_assertion_failed>
   14038:	e1a00005 	mov	r0, r5
   1403c:	ebffeeaf 	bl	fb00 <USBRequestGetStatus>
   14040:	e3500000 	cmp	r0, #0
   14044:	0a00001a 	beq	140b4 <USBMouseDeviceCompletionRoutine+0xd0>
   14048:	e1a00005 	mov	r0, r5
   1404c:	ebffeeb6 	bl	fb2c <USBRequestGetResultLength>
   14050:	e3500003 	cmp	r0, #3
   14054:	1a000016 	bne	140b4 <USBMouseDeviceCompletionRoutine+0xd0>
   14058:	e5943040 	ldr	r3, [r4, #64]	; 0x40
   1405c:	e3530000 	cmp	r3, #0
   14060:	0a000013 	beq	140b4 <USBMouseDeviceCompletionRoutine+0xd0>
   14064:	e5943048 	ldr	r3, [r4, #72]	; 0x48
   14068:	e3530000 	cmp	r3, #0
   1406c:	1a000003 	bne	14080 <USBMouseDeviceCompletionRoutine+0x9c>
   14070:	e3a020c9 	mov	r2, #201	; 0xc9
   14074:	e59f105c 	ldr	r1, [pc, #92]	; 140d8 <USBMouseDeviceCompletionRoutine+0xf4>
   14078:	e59f0068 	ldr	r0, [pc, #104]	; 140e8 <USBMouseDeviceCompletionRoutine+0x104>
   1407c:	eb001602 	bl	1988c <uspi_assertion_failed>
   14080:	e5945040 	ldr	r5, [r4, #64]	; 0x40
   14084:	e5943048 	ldr	r3, [r4, #72]	; 0x48
   14088:	e5d36000 	ldrb	r6, [r3]
   1408c:	e1d300d1 	ldrsb	r0, [r3, #1]
   14090:	ebfff6e0 	bl	11c18 <uspi_char2int>
   14094:	e1a07000 	mov	r7, r0
   14098:	e5943048 	ldr	r3, [r4, #72]	; 0x48
   1409c:	e1d300d2 	ldrsb	r0, [r3, #2]
   140a0:	ebfff6dc 	bl	11c18 <uspi_char2int>
   140a4:	e1a02000 	mov	r2, r0
   140a8:	e1a01007 	mov	r1, r7
   140ac:	e1a00006 	mov	r0, r6
   140b0:	e12fff35 	blx	r5
   140b4:	e5940044 	ldr	r0, [r4, #68]	; 0x44
   140b8:	ebffee56 	bl	fa18 <_USBRequest>
   140bc:	e5940044 	ldr	r0, [r4, #68]	; 0x44
   140c0:	eb000e33 	bl	17994 <free>
   140c4:	e3a03000 	mov	r3, #0
   140c8:	e5843044 	str	r3, [r4, #68]	; 0x44
   140cc:	e1a00004 	mov	r0, r4
   140d0:	ebfffecd 	bl	13c0c <USBMouseDeviceStartRequest>
   140d4:	e8bd81f0 	pop	{r4, r5, r6, r7, r8, pc}
   140d8:	0001ca0c 	.word	0x0001ca0c
   140dc:	0001b4d8 	.word	0x0001b4d8
   140e0:	0001b5a0 	.word	0x0001b5a0
   140e4:	0001c8b0 	.word	0x0001c8b0
   140e8:	0001c824 	.word	0x0001c824

000140ec <USBMouseDevice>:
   140ec:	e92d4070 	push	{r4, r5, r6, lr}
   140f0:	e1a05001 	mov	r5, r1
   140f4:	e2504000 	subs	r4, r0, #0
   140f8:	1a000003 	bne	1410c <USBMouseDevice+0x20>
   140fc:	e3a02025 	mov	r2, #37	; 0x25
   14100:	e59f1054 	ldr	r1, [pc, #84]	; 1415c <USBMouseDevice+0x70>
   14104:	e59f0054 	ldr	r0, [pc, #84]	; 14160 <USBMouseDevice+0x74>
   14108:	eb0015df 	bl	1988c <uspi_assertion_failed>
   1410c:	e1a01005 	mov	r1, r5
   14110:	e1a00004 	mov	r0, r4
   14114:	ebffe997 	bl	e778 <USBDeviceCopy>
   14118:	e59f3044 	ldr	r3, [pc, #68]	; 14164 <USBMouseDevice+0x78>
   1411c:	e5843000 	str	r3, [r4]
   14120:	e3a03000 	mov	r3, #0
   14124:	e584303c 	str	r3, [r4, #60]	; 0x3c
   14128:	e5843040 	str	r3, [r4, #64]	; 0x40
   1412c:	e5843044 	str	r3, [r4, #68]	; 0x44
   14130:	e5843048 	str	r3, [r4, #72]	; 0x48
   14134:	e3a00003 	mov	r0, #3
   14138:	eb000dac 	bl	177f0 <malloc>
   1413c:	e5840048 	str	r0, [r4, #72]	; 0x48
   14140:	e3500000 	cmp	r0, #0
   14144:	18bd8070 	popne	{r4, r5, r6, pc}
   14148:	e3a02030 	mov	r2, #48	; 0x30
   1414c:	e59f1008 	ldr	r1, [pc, #8]	; 1415c <USBMouseDevice+0x70>
   14150:	e59f0010 	ldr	r0, [pc, #16]	; 14168 <USBMouseDevice+0x7c>
   14154:	eb0015cc 	bl	1988c <uspi_assertion_failed>
   14158:	e8bd8070 	pop	{r4, r5, r6, pc}
   1415c:	0001ca0c 	.word	0x0001ca0c
   14160:	0001b4d8 	.word	0x0001b4d8
   14164:	00013d08 	.word	0x00013d08
   14168:	0001c824 	.word	0x0001c824

0001416c <_CUSBMouseDevice>:
   1416c:	e92d4010 	push	{r4, lr}
   14170:	e2504000 	subs	r4, r0, #0
   14174:	1a000003 	bne	14188 <_CUSBMouseDevice+0x1c>
   14178:	e3a02035 	mov	r2, #53	; 0x35
   1417c:	e59f1048 	ldr	r1, [pc, #72]	; 141cc <_CUSBMouseDevice+0x60>
   14180:	e59f0048 	ldr	r0, [pc, #72]	; 141d0 <_CUSBMouseDevice+0x64>
   14184:	eb0015c0 	bl	1988c <uspi_assertion_failed>
   14188:	e5940048 	ldr	r0, [r4, #72]	; 0x48
   1418c:	e3500000 	cmp	r0, #0
   14190:	0a000002 	beq	141a0 <_CUSBMouseDevice+0x34>
   14194:	eb000dfe 	bl	17994 <free>
   14198:	e3a03000 	mov	r3, #0
   1419c:	e5843048 	str	r3, [r4, #72]	; 0x48
   141a0:	e594003c 	ldr	r0, [r4, #60]	; 0x3c
   141a4:	e3500000 	cmp	r0, #0
   141a8:	0a000004 	beq	141c0 <_CUSBMouseDevice+0x54>
   141ac:	ebffed1f 	bl	f630 <_USBEndpoint>
   141b0:	e594003c 	ldr	r0, [r4, #60]	; 0x3c
   141b4:	eb000df6 	bl	17994 <free>
   141b8:	e3a03000 	mov	r3, #0
   141bc:	e584303c 	str	r3, [r4, #60]	; 0x3c
   141c0:	e1a00004 	mov	r0, r4
   141c4:	ebffe9df 	bl	e948 <_USBDevice>
   141c8:	e8bd8010 	pop	{r4, pc}
   141cc:	0001ca0c 	.word	0x0001ca0c
   141d0:	0001b4d8 	.word	0x0001b4d8

000141d4 <USBMouseDeviceRegisterStatusHandler>:
   141d4:	e92d4070 	push	{r4, r5, r6, lr}
   141d8:	e1a04001 	mov	r4, r1
   141dc:	e2505000 	subs	r5, r0, #0
   141e0:	1a000003 	bne	141f4 <USBMouseDeviceRegisterStatusHandler+0x20>
   141e4:	e3a020a8 	mov	r2, #168	; 0xa8
   141e8:	e59f1024 	ldr	r1, [pc, #36]	; 14214 <USBMouseDeviceRegisterStatusHandler+0x40>
   141ec:	e59f0024 	ldr	r0, [pc, #36]	; 14218 <USBMouseDeviceRegisterStatusHandler+0x44>
   141f0:	eb0015a5 	bl	1988c <uspi_assertion_failed>
   141f4:	e3540000 	cmp	r4, #0
   141f8:	1a000003 	bne	1420c <USBMouseDeviceRegisterStatusHandler+0x38>
   141fc:	e3a020a9 	mov	r2, #169	; 0xa9
   14200:	e59f100c 	ldr	r1, [pc, #12]	; 14214 <USBMouseDeviceRegisterStatusHandler+0x40>
   14204:	e59f0010 	ldr	r0, [pc, #16]	; 1421c <USBMouseDeviceRegisterStatusHandler+0x48>
   14208:	eb00159f 	bl	1988c <uspi_assertion_failed>
   1420c:	e5854040 	str	r4, [r5, #64]	; 0x40
   14210:	e8bd8070 	pop	{r4, r5, r6, pc}
   14214:	0001ca0c 	.word	0x0001ca0c
   14218:	0001b4d8 	.word	0x0001b4d8
   1421c:	0001ca24 	.word	0x0001ca24

00014220 <_DWHCIFrameSchedulerNoSplit>:
   14220:	e12fff1e 	bx	lr

00014224 <DWHCIFrameSchedulerNoSplitStartSplit>:
   14224:	e92d4010 	push	{r4, lr}
   14228:	e3a02032 	mov	r2, #50	; 0x32
   1422c:	e59f1008 	ldr	r1, [pc, #8]	; 1423c <DWHCIFrameSchedulerNoSplitStartSplit+0x18>
   14230:	e59f0008 	ldr	r0, [pc, #8]	; 14240 <DWHCIFrameSchedulerNoSplitStartSplit+0x1c>
   14234:	eb001594 	bl	1988c <uspi_assertion_failed>
   14238:	e8bd8010 	pop	{r4, pc}
   1423c:	0001ca38 	.word	0x0001ca38
   14240:	0001d8fc 	.word	0x0001d8fc

00014244 <DWHCIFrameSchedulerNoSplitCompleteSplit>:
   14244:	e92d4010 	push	{r4, lr}
   14248:	e3a02037 	mov	r2, #55	; 0x37
   1424c:	e59f100c 	ldr	r1, [pc, #12]	; 14260 <DWHCIFrameSchedulerNoSplitCompleteSplit+0x1c>
   14250:	e59f000c 	ldr	r0, [pc, #12]	; 14264 <DWHCIFrameSchedulerNoSplitCompleteSplit+0x20>
   14254:	eb00158c 	bl	1988c <uspi_assertion_failed>
   14258:	e3a00000 	mov	r0, #0
   1425c:	e8bd8010 	pop	{r4, pc}
   14260:	0001ca38 	.word	0x0001ca38
   14264:	0001d8fc 	.word	0x0001d8fc

00014268 <DWHCIFrameSchedulerNoSplitTransactionComplete>:
   14268:	e92d4010 	push	{r4, lr}
   1426c:	e3a0203d 	mov	r2, #61	; 0x3d
   14270:	e59f1008 	ldr	r1, [pc, #8]	; 14280 <DWHCIFrameSchedulerNoSplitTransactionComplete+0x18>
   14274:	e59f0008 	ldr	r0, [pc, #8]	; 14284 <DWHCIFrameSchedulerNoSplitTransactionComplete+0x1c>
   14278:	eb001583 	bl	1988c <uspi_assertion_failed>
   1427c:	e8bd8010 	pop	{r4, pc}
   14280:	0001ca38 	.word	0x0001ca38
   14284:	0001d8fc 	.word	0x0001d8fc

00014288 <DWHCIFrameSchedulerNoSplitIsOddFrame>:
   14288:	e92d4010 	push	{r4, lr}
   1428c:	e2504000 	subs	r4, r0, #0
   14290:	1a000003 	bne	142a4 <DWHCIFrameSchedulerNoSplitIsOddFrame+0x1c>
   14294:	e3a02058 	mov	r2, #88	; 0x58
   14298:	e59f1010 	ldr	r1, [pc, #16]	; 142b0 <DWHCIFrameSchedulerNoSplitIsOddFrame+0x28>
   1429c:	e59f0010 	ldr	r0, [pc, #16]	; 142b4 <DWHCIFrameSchedulerNoSplitIsOddFrame+0x2c>
   142a0:	eb001579 	bl	1988c <uspi_assertion_failed>
   142a4:	e594001c 	ldr	r0, [r4, #28]
   142a8:	e2000001 	and	r0, r0, #1
   142ac:	e8bd8010 	pop	{r4, pc}
   142b0:	0001ca38 	.word	0x0001ca38
   142b4:	0001b4d8 	.word	0x0001b4d8

000142b8 <DWHCIFrameSchedulerNoSplitWaitForFrame>:
   142b8:	e92d4010 	push	{r4, lr}
   142bc:	e24dd010 	sub	sp, sp, #16
   142c0:	e2504000 	subs	r4, r0, #0
   142c4:	1a000003 	bne	142d8 <DWHCIFrameSchedulerNoSplitWaitForFrame+0x20>
   142c8:	e3a02043 	mov	r2, #67	; 0x43
   142cc:	e59f105c 	ldr	r1, [pc, #92]	; 14330 <DWHCIFrameSchedulerNoSplitWaitForFrame+0x78>
   142d0:	e59f005c 	ldr	r0, [pc, #92]	; 14334 <DWHCIFrameSchedulerNoSplitWaitForFrame+0x7c>
   142d4:	eb00156c 	bl	1988c <uspi_assertion_failed>
   142d8:	e59f1058 	ldr	r1, [pc, #88]	; 14338 <DWHCIFrameSchedulerNoSplitWaitForFrame+0x80>
   142dc:	e28d0004 	add	r0, sp, #4
   142e0:	ebffe42a 	bl	d390 <DWHCIRegister>
   142e4:	e28d0004 	add	r0, sp, #4
   142e8:	ebffe452 	bl	d438 <DWHCIRegisterRead>
   142ec:	e2800001 	add	r0, r0, #1
   142f0:	e1a00900 	lsl	r0, r0, #18
   142f4:	e1a00920 	lsr	r0, r0, #18
   142f8:	e584001c 	str	r0, [r4, #28]
   142fc:	e5943018 	ldr	r3, [r4, #24]
   14300:	e3530000 	cmp	r3, #0
   14304:	1a000005 	bne	14320 <DWHCIFrameSchedulerNoSplitWaitForFrame+0x68>
   14308:	e28d0004 	add	r0, sp, #4
   1430c:	ebffe449 	bl	d438 <DWHCIRegisterRead>
   14310:	e1a00900 	lsl	r0, r0, #18
   14314:	e594301c 	ldr	r3, [r4, #28]
   14318:	e1530920 	cmp	r3, r0, lsr #18
   1431c:	1afffff9 	bne	14308 <DWHCIFrameSchedulerNoSplitWaitForFrame+0x50>
   14320:	e28d0004 	add	r0, sp, #4
   14324:	ebffe437 	bl	d408 <_DWHCIRegister>
   14328:	e28dd010 	add	sp, sp, #16
   1432c:	e8bd8010 	pop	{r4, pc}
   14330:	0001ca38 	.word	0x0001ca38
   14334:	0001b4d8 	.word	0x0001b4d8
   14338:	20980408 	.word	0x20980408

0001433c <DWHCIFrameSchedulerNoSplit>:
   1433c:	e92d4070 	push	{r4, r5, r6, lr}
   14340:	e1a05001 	mov	r5, r1
   14344:	e2504000 	subs	r4, r0, #0
   14348:	1a000003 	bne	1435c <DWHCIFrameSchedulerNoSplit+0x20>
   1434c:	e3a0201c 	mov	r2, #28
   14350:	e59f1044 	ldr	r1, [pc, #68]	; 1439c <DWHCIFrameSchedulerNoSplit+0x60>
   14354:	e59f0044 	ldr	r0, [pc, #68]	; 143a0 <DWHCIFrameSchedulerNoSplit+0x64>
   14358:	eb00154b 	bl	1988c <uspi_assertion_failed>
   1435c:	e59f3040 	ldr	r3, [pc, #64]	; 143a4 <DWHCIFrameSchedulerNoSplit+0x68>
   14360:	e5843000 	str	r3, [r4]
   14364:	e59f303c 	ldr	r3, [pc, #60]	; 143a8 <DWHCIFrameSchedulerNoSplit+0x6c>
   14368:	e5843004 	str	r3, [r4, #4]
   1436c:	e59f3038 	ldr	r3, [pc, #56]	; 143ac <DWHCIFrameSchedulerNoSplit+0x70>
   14370:	e5843008 	str	r3, [r4, #8]
   14374:	e59f3034 	ldr	r3, [pc, #52]	; 143b0 <DWHCIFrameSchedulerNoSplit+0x74>
   14378:	e584300c 	str	r3, [r4, #12]
   1437c:	e59f3030 	ldr	r3, [pc, #48]	; 143b4 <DWHCIFrameSchedulerNoSplit+0x78>
   14380:	e5843010 	str	r3, [r4, #16]
   14384:	e59f302c 	ldr	r3, [pc, #44]	; 143b8 <DWHCIFrameSchedulerNoSplit+0x7c>
   14388:	e5843014 	str	r3, [r4, #20]
   1438c:	e5845018 	str	r5, [r4, #24]
   14390:	e3a03901 	mov	r3, #16384	; 0x4000
   14394:	e584301c 	str	r3, [r4, #28]
   14398:	e8bd8070 	pop	{r4, r5, r6, pc}
   1439c:	0001ca38 	.word	0x0001ca38
   143a0:	0001b4d8 	.word	0x0001b4d8
   143a4:	00014220 	.word	0x00014220
   143a8:	00014224 	.word	0x00014224
   143ac:	00014244 	.word	0x00014244
   143b0:	00014268 	.word	0x00014268
   143b4:	000142b8 	.word	0x000142b8
   143b8:	00014288 	.word	0x00014288

000143bc <BitGetUnsigned>:
   143bc:	e92d4ff0 	push	{r4, r5, r6, r7, r8, r9, sl, fp, lr}
   143c0:	e24dd00c 	sub	sp, sp, #12
   143c4:	e1a0e1a1 	lsr	lr, r1, #3
   143c8:	e0814002 	add	r4, r1, r2
   143cc:	e2846007 	add	r6, r4, #7
   143d0:	e1a061a6 	lsr	r6, r6, #3
   143d4:	e15e0006 	cmp	lr, r6
   143d8:	2a000030 	bcs	144a0 <BitGetUnsigned+0xe4>
   143dc:	e2444001 	sub	r4, r4, #1
   143e0:	e1a041a4 	lsr	r4, r4, #3
   143e4:	e2011007 	and	r1, r1, #7
   143e8:	e0823001 	add	r3, r2, r1
   143ec:	e3a07001 	mov	r7, #1
   143f0:	e1a03317 	lsl	r3, r7, r3
   143f4:	e6ef3073 	uxtb	r3, r3
   143f8:	e1a07117 	lsl	r7, r7, r1
   143fc:	e6ef7077 	uxtb	r7, r7
   14400:	e067a003 	rsb	sl, r7, r3
   14404:	e6efa07a 	uxtb	sl, sl
   14408:	e2677000 	rsb	r7, r7, #0
   1440c:	e6ef7077 	uxtb	r7, r7
   14410:	e2433001 	sub	r3, r3, #1
   14414:	e6ef3073 	uxtb	r3, r3
   14418:	e58d3004 	str	r3, [sp, #4]
   1441c:	e080c00e 	add	ip, r0, lr
   14420:	e1a0300e 	mov	r3, lr
   14424:	e3a05000 	mov	r5, #0
   14428:	e1a00005 	mov	r0, r5
   1442c:	e261b008 	rsb	fp, r1, #8
   14430:	e15e0004 	cmp	lr, r4
   14434:	05dc0000 	ldrbeq	r0, [ip]
   14438:	0000000a 	andeq	r0, r0, sl
   1443c:	01a00150 	asreq	r0, r0, r1
   14440:	0a000011 	beq	1448c <BitGetUnsigned+0xd0>
   14444:	e15e0003 	cmp	lr, r3
   14448:	1a000006 	bne	14468 <BitGetUnsigned+0xac>
   1444c:	e085500b 	add	r5, r5, fp
   14450:	e5dc0000 	ldrb	r0, [ip]
   14454:	e0000007 	and	r0, r0, r7
   14458:	e1a00150 	asr	r0, r0, r1
   1445c:	e0658002 	rsb	r8, r5, r2
   14460:	e1a00810 	lsl	r0, r0, r8
   14464:	ea000008 	b	1448c <BitGetUnsigned+0xd0>
   14468:	e1540003 	cmp	r4, r3
   1446c:	05dc8000 	ldrbeq	r8, [ip]
   14470:	059d9004 	ldreq	r9, [sp, #4]
   14474:	00088009 	andeq	r8, r8, r9
   14478:	01800008 	orreq	r0, r0, r8
   1447c:	12855008 	addne	r5, r5, #8
   14480:	15dc9000 	ldrbne	r9, [ip]
   14484:	10658002 	rsbne	r8, r5, r2
   14488:	11800819 	orrne	r0, r0, r9, lsl r8
   1448c:	e2833001 	add	r3, r3, #1
   14490:	e28cc001 	add	ip, ip, #1
   14494:	e1530006 	cmp	r3, r6
   14498:	1affffe4 	bne	14430 <BitGetUnsigned+0x74>
   1449c:	ea000000 	b	144a4 <BitGetUnsigned+0xe8>
   144a0:	e3a00000 	mov	r0, #0
   144a4:	e28dd00c 	add	sp, sp, #12
   144a8:	e8bd8ff0 	pop	{r4, r5, r6, r7, r8, r9, sl, fp, pc}

000144ac <USBGamePadDeviceDecodeReport>:
   144ac:	e92d4ff0 	push	{r4, r5, r6, r7, r8, r9, sl, fp, lr}
   144b0:	e24dd03c 	sub	sp, sp, #60	; 0x3c
   144b4:	e1a0b000 	mov	fp, r0
   144b8:	e59030c8 	ldr	r3, [r0, #200]	; 0xc8
   144bc:	e58d3000 	str	r3, [sp]
   144c0:	e59060c0 	ldr	r6, [r0, #192]	; 0xc0
   144c4:	e1d07bbc 	ldrh	r7, [r0, #188]	; 0xbc
   144c8:	e3570000 	cmp	r7, #0
   144cc:	0a0000fa 	beq	148bc <USBGamePadDeviceDecodeReport+0x410>
   144d0:	e3a05000 	mov	r5, #0
   144d4:	e1a09005 	mov	r9, r5
   144d8:	e58d501c 	str	r5, [sp, #28]
   144dc:	e58d5018 	str	r5, [sp, #24]
   144e0:	e59f3410 	ldr	r3, [pc, #1040]	; 148f8 <USBGamePadDeviceDecodeReport+0x44c>
   144e4:	e58d3008 	str	r3, [sp, #8]
   144e8:	e58d3010 	str	r3, [sp, #16]
   144ec:	e58d3014 	str	r3, [sp, #20]
   144f0:	e58d300c 	str	r3, [sp, #12]
   144f4:	e58d5004 	str	r5, [sp, #4]
   144f8:	e1a0a005 	mov	sl, r5
   144fc:	e58d0020 	str	r0, [sp, #32]
   14500:	e1a0b005 	mov	fp, r5
   14504:	e1d630d0 	ldrsb	r3, [r6]
   14508:	e2032003 	and	r2, r3, #3
   1450c:	e3520001 	cmp	r2, #1
   14510:	0a000008 	beq	14538 <USBGamePadDeviceDecodeReport+0x8c>
   14514:	e3520002 	cmp	r2, #2
   14518:	0a00000b 	beq	1454c <USBGamePadDeviceDecodeReport+0xa0>
   1451c:	e3520000 	cmp	r2, #0
   14520:	1a000010 	bne	14568 <USBGamePadDeviceDecodeReport+0xbc>
   14524:	e2866001 	add	r6, r6, #1
   14528:	e2477001 	sub	r7, r7, #1
   1452c:	e6ff7077 	uxth	r7, r7
   14530:	e3a04000 	mov	r4, #0
   14534:	ea000016 	b	14594 <USBGamePadDeviceDecodeReport+0xe8>
   14538:	e1d640d1 	ldrsb	r4, [r6, #1]
   1453c:	e2477002 	sub	r7, r7, #2
   14540:	e6ff7077 	uxth	r7, r7
   14544:	e2866002 	add	r6, r6, #2
   14548:	ea000011 	b	14594 <USBGamePadDeviceDecodeReport+0xe8>
   1454c:	e5d62001 	ldrb	r2, [r6, #1]
   14550:	e1d640d2 	ldrsb	r4, [r6, #2]
   14554:	e1824404 	orr	r4, r2, r4, lsl #8
   14558:	e2477003 	sub	r7, r7, #3
   1455c:	e6ff7077 	uxth	r7, r7
   14560:	e2866003 	add	r6, r6, #3
   14564:	ea00000a 	b	14594 <USBGamePadDeviceDecodeReport+0xe8>
   14568:	e1d640d1 	ldrsb	r4, [r6, #1]
   1456c:	e1d620d2 	ldrsb	r2, [r6, #2]
   14570:	e1d610d3 	ldrsb	r1, [r6, #3]
   14574:	e1a01801 	lsl	r1, r1, #16
   14578:	e1812402 	orr	r2, r1, r2, lsl #8
   1457c:	e1822004 	orr	r2, r2, r4
   14580:	e1d640d4 	ldrsb	r4, [r6, #4]
   14584:	e1824c04 	orr	r4, r2, r4, lsl #24
   14588:	e2477005 	sub	r7, r7, #5
   1458c:	e6ff7077 	uxth	r7, r7
   14590:	e2866005 	add	r6, r6, #5
   14594:	e20330fc 	and	r3, r3, #252	; 0xfc
   14598:	e3530084 	cmp	r3, #132	; 0x84
   1459c:	1a00000b 	bne	145d0 <USBGamePadDeviceDecodeReport+0x124>
   145a0:	e3590000 	cmp	r9, #0
   145a4:	1a0000c9 	bne	148d0 <USBGamePadDeviceDecodeReport+0x424>
   145a8:	e3a02008 	mov	r2, #8
   145ac:	e3a01000 	mov	r1, #0
   145b0:	e59d0000 	ldr	r0, [sp]
   145b4:	ebffff80 	bl	143bc <BitGetUnsigned>
   145b8:	e1a09004 	mov	r9, r4
   145bc:	e3500000 	cmp	r0, #0
   145c0:	11500004 	cmpne	r0, r4
   145c4:	1a0000c9 	bne	148f0 <USBGamePadDeviceDecodeReport+0x444>
   145c8:	e3a0a008 	mov	sl, #8
   145cc:	ea0000b6 	b	148ac <USBGamePadDeviceDecodeReport+0x400>
   145d0:	e3530034 	cmp	r3, #52	; 0x34
   145d4:	0a000032 	beq	146a4 <USBGamePadDeviceDecodeReport+0x1f8>
   145d8:	ca00000d 	bgt	14614 <USBGamePadDeviceDecodeReport+0x168>
   145dc:	e3530008 	cmp	r3, #8
   145e0:	0a00001e 	beq	14660 <USBGamePadDeviceDecodeReport+0x1b4>
   145e4:	ca000002 	bgt	145f4 <USBGamePadDeviceDecodeReport+0x148>
   145e8:	e3530004 	cmp	r3, #4
   145ec:	0a000016 	beq	1464c <USBGamePadDeviceDecodeReport+0x1a0>
   145f0:	ea0000ad 	b	148ac <USBGamePadDeviceDecodeReport+0x400>
   145f4:	e3530014 	cmp	r3, #20
   145f8:	058d4014 	streq	r4, [sp, #20]
   145fc:	0a0000aa 	beq	148ac <USBGamePadDeviceDecodeReport+0x400>
   14600:	e59d200c 	ldr	r2, [sp, #12]
   14604:	e3530024 	cmp	r3, #36	; 0x24
   14608:	01a02004 	moveq	r2, r4
   1460c:	e58d200c 	str	r2, [sp, #12]
   14610:	ea0000a5 	b	148ac <USBGamePadDeviceDecodeReport+0x400>
   14614:	e3530074 	cmp	r3, #116	; 0x74
   14618:	058d4004 	streq	r4, [sp, #4]
   1461c:	0a0000a2 	beq	148ac <USBGamePadDeviceDecodeReport+0x400>
   14620:	ca000004 	bgt	14638 <USBGamePadDeviceDecodeReport+0x18c>
   14624:	e59d2008 	ldr	r2, [sp, #8]
   14628:	e3530044 	cmp	r3, #68	; 0x44
   1462c:	01a02004 	moveq	r2, r4
   14630:	e58d2008 	str	r2, [sp, #8]
   14634:	ea00009c 	b	148ac <USBGamePadDeviceDecodeReport+0x400>
   14638:	e3530080 	cmp	r3, #128	; 0x80
   1463c:	0a00001a 	beq	146ac <USBGamePadDeviceDecodeReport+0x200>
   14640:	e3530094 	cmp	r3, #148	; 0x94
   14644:	01a0b004 	moveq	fp, r4
   14648:	ea000097 	b	148ac <USBGamePadDeviceDecodeReport+0x400>
   1464c:	e3540009 	cmp	r4, #9
   14650:	1a000095 	bne	148ac <USBGamePadDeviceDecodeReport+0x400>
   14654:	e3550001 	cmp	r5, #1
   14658:	03a05002 	moveq	r5, #2
   1465c:	ea000092 	b	148ac <USBGamePadDeviceDecodeReport+0x400>
   14660:	e3540036 	cmp	r4, #54	; 0x36
   14664:	ca000005 	bgt	14680 <USBGamePadDeviceDecodeReport+0x1d4>
   14668:	e3540030 	cmp	r4, #48	; 0x30
   1466c:	aa000006 	bge	1468c <USBGamePadDeviceDecodeReport+0x1e0>
   14670:	e2444004 	sub	r4, r4, #4
   14674:	e3540001 	cmp	r4, #1
   14678:	93a05001 	movls	r5, #1
   1467c:	ea00008a 	b	148ac <USBGamePadDeviceDecodeReport+0x400>
   14680:	e3540039 	cmp	r4, #57	; 0x39
   14684:	0a000003 	beq	14698 <USBGamePadDeviceDecodeReport+0x1ec>
   14688:	ea000087 	b	148ac <USBGamePadDeviceDecodeReport+0x400>
   1468c:	e3550001 	cmp	r5, #1
   14690:	03a05003 	moveq	r5, #3
   14694:	ea000084 	b	148ac <USBGamePadDeviceDecodeReport+0x400>
   14698:	e3550001 	cmp	r5, #1
   1469c:	03a05004 	moveq	r5, #4
   146a0:	ea000081 	b	148ac <USBGamePadDeviceDecodeReport+0x400>
   146a4:	e58d4010 	str	r4, [sp, #16]
   146a8:	ea00007f 	b	148ac <USBGamePadDeviceDecodeReport+0x400>
   146ac:	e2044003 	and	r4, r4, #3
   146b0:	e3540002 	cmp	r4, #2
   146b4:	1a00007a 	bne	148a4 <USBGamePadDeviceDecodeReport+0x3f8>
   146b8:	e3550003 	cmp	r5, #3
   146bc:	1a000049 	bne	147e8 <USBGamePadDeviceDecodeReport+0x33c>
   146c0:	e35b0000 	cmp	fp, #0
   146c4:	03a05001 	moveq	r5, #1
   146c8:	0a000075 	beq	148a4 <USBGamePadDeviceDecodeReport+0x3f8>
   146cc:	e59d3014 	ldr	r3, [sp, #20]
   146d0:	e1a08003 	mov	r8, r3
   146d4:	e59d2010 	ldr	r2, [sp, #16]
   146d8:	e59f1218 	ldr	r1, [pc, #536]	; 148f8 <USBGamePadDeviceDecodeReport+0x44c>
   146dc:	e1530001 	cmp	r3, r1
   146e0:	01a08002 	moveq	r8, r2
   146e4:	e59d200c 	ldr	r2, [sp, #12]
   146e8:	e1a03002 	mov	r3, r2
   146ec:	e59d1008 	ldr	r1, [sp, #8]
   146f0:	e59f0200 	ldr	r0, [pc, #512]	; 148f8 <USBGamePadDeviceDecodeReport+0x44c>
   146f4:	e1520000 	cmp	r2, r0
   146f8:	01a03001 	moveq	r3, r1
   146fc:	e1a02003 	mov	r2, r3
   14700:	e59d1004 	ldr	r1, [sp, #4]
   14704:	e2413001 	sub	r3, r1, #1
   14708:	e3a00001 	mov	r0, #1
   1470c:	e1a03310 	lsl	r3, r0, r3
   14710:	e58d3024 	str	r3, [sp, #36]	; 0x24
   14714:	e1a03110 	lsl	r3, r0, r1
   14718:	e2633000 	rsb	r3, r3, #0
   1471c:	e58d3028 	str	r3, [sp, #40]	; 0x28
   14720:	e59d3018 	ldr	r3, [sp, #24]
   14724:	e0834083 	add	r4, r3, r3, lsl #1
   14728:	e59d1020 	ldr	r1, [sp, #32]
   1472c:	e0814104 	add	r4, r1, r4, lsl #2
   14730:	e3a05000 	mov	r5, #0
   14734:	e58d6018 	str	r6, [sp, #24]
   14738:	e58d702c 	str	r7, [sp, #44]	; 0x2c
   1473c:	e1a0600a 	mov	r6, sl
   14740:	e58da030 	str	sl, [sp, #48]	; 0x30
   14744:	e1a0a002 	mov	sl, r2
   14748:	e1a07003 	mov	r7, r3
   1474c:	e58d9034 	str	r9, [sp, #52]	; 0x34
   14750:	e1a09004 	mov	r9, r4
   14754:	e5848050 	str	r8, [r4, #80]	; 0x50
   14758:	e584a054 	str	sl, [r4, #84]	; 0x54
   1475c:	e3580000 	cmp	r8, #0
   14760:	aa000008 	bge	14788 <USBGamePadDeviceDecodeReport+0x2dc>
   14764:	e59d2004 	ldr	r2, [sp, #4]
   14768:	e1a01006 	mov	r1, r6
   1476c:	e59d0000 	ldr	r0, [sp]
   14770:	ebffff11 	bl	143bc <BitGetUnsigned>
   14774:	e59d3024 	ldr	r3, [sp, #36]	; 0x24
   14778:	e1100003 	tst	r0, r3
   1477c:	159d3028 	ldrne	r3, [sp, #40]	; 0x28
   14780:	11800003 	orrne	r0, r0, r3
   14784:	ea000003 	b	14798 <USBGamePadDeviceDecodeReport+0x2ec>
   14788:	e59d2004 	ldr	r2, [sp, #4]
   1478c:	e1a01006 	mov	r1, r6
   14790:	e59d0000 	ldr	r0, [sp]
   14794:	ebffff08 	bl	143bc <BitGetUnsigned>
   14798:	e2877001 	add	r7, r7, #1
   1479c:	e589004c 	str	r0, [r9, #76]	; 0x4c
   147a0:	e2855001 	add	r5, r5, #1
   147a4:	e284400c 	add	r4, r4, #12
   147a8:	e59d3004 	ldr	r3, [sp, #4]
   147ac:	e0866003 	add	r6, r6, r3
   147b0:	e155000b 	cmp	r5, fp
   147b4:	23a03000 	movcs	r3, #0
   147b8:	33a03001 	movcc	r3, #1
   147bc:	e3550005 	cmp	r5, #5
   147c0:	c3a03000 	movgt	r3, #0
   147c4:	e3530000 	cmp	r3, #0
   147c8:	1affffe0 	bne	14750 <USBGamePadDeviceDecodeReport+0x2a4>
   147cc:	e59d6018 	ldr	r6, [sp, #24]
   147d0:	e59da030 	ldr	sl, [sp, #48]	; 0x30
   147d4:	e58d7018 	str	r7, [sp, #24]
   147d8:	e59d702c 	ldr	r7, [sp, #44]	; 0x2c
   147dc:	e59d9034 	ldr	r9, [sp, #52]	; 0x34
   147e0:	e3a05001 	mov	r5, #1
   147e4:	ea00002e 	b	148a4 <USBGamePadDeviceDecodeReport+0x3f8>
   147e8:	e3550004 	cmp	r5, #4
   147ec:	1a000020 	bne	14874 <USBGamePadDeviceDecodeReport+0x3c8>
   147f0:	e35b0000 	cmp	fp, #0
   147f4:	03a05001 	moveq	r5, #1
   147f8:	0a000029 	beq	148a4 <USBGamePadDeviceDecodeReport+0x3f8>
   147fc:	e59d301c 	ldr	r3, [sp, #28]
   14800:	e2838026 	add	r8, r3, #38	; 0x26
   14804:	e59d2020 	ldr	r2, [sp, #32]
   14808:	e0828108 	add	r8, r2, r8, lsl #2
   1480c:	e1a0500a 	mov	r5, sl
   14810:	e3a04000 	mov	r4, #0
   14814:	e58d6024 	str	r6, [sp, #36]	; 0x24
   14818:	e58d701c 	str	r7, [sp, #28]
   1481c:	e1a06003 	mov	r6, r3
   14820:	e59d7004 	ldr	r7, [sp, #4]
   14824:	e1a02007 	mov	r2, r7
   14828:	e1a01005 	mov	r1, r5
   1482c:	e59d0000 	ldr	r0, [sp]
   14830:	ebfffee1 	bl	143bc <BitGetUnsigned>
   14834:	e2866001 	add	r6, r6, #1
   14838:	e4880004 	str	r0, [r8], #4
   1483c:	e2844001 	add	r4, r4, #1
   14840:	e0855007 	add	r5, r5, r7
   14844:	e154000b 	cmp	r4, fp
   14848:	23a03000 	movcs	r3, #0
   1484c:	33a03001 	movcc	r3, #1
   14850:	e3540005 	cmp	r4, #5
   14854:	c3a03000 	movgt	r3, #0
   14858:	e3530000 	cmp	r3, #0
   1485c:	1afffff0 	bne	14824 <USBGamePadDeviceDecodeReport+0x378>
   14860:	e59d701c 	ldr	r7, [sp, #28]
   14864:	e58d601c 	str	r6, [sp, #28]
   14868:	e59d6024 	ldr	r6, [sp, #36]	; 0x24
   1486c:	e3a05001 	mov	r5, #1
   14870:	ea00000b 	b	148a4 <USBGamePadDeviceDecodeReport+0x3f8>
   14874:	e3550002 	cmp	r5, #2
   14878:	1a000009 	bne	148a4 <USBGamePadDeviceDecodeReport+0x3f8>
   1487c:	e59d4020 	ldr	r4, [sp, #32]
   14880:	e584b0b0 	str	fp, [r4, #176]	; 0xb0
   14884:	e59d3004 	ldr	r3, [sp, #4]
   14888:	e002039b 	mul	r2, fp, r3
   1488c:	e1a0100a 	mov	r1, sl
   14890:	e59d0000 	ldr	r0, [sp]
   14894:	ebfffec8 	bl	143bc <BitGetUnsigned>
   14898:	e58400b4 	str	r0, [r4, #180]	; 0xb4
   1489c:	e3a05001 	mov	r5, #1
   148a0:	eaffffff 	b	148a4 <USBGamePadDeviceDecodeReport+0x3f8>
   148a4:	e59d3004 	ldr	r3, [sp, #4]
   148a8:	e02aa39b 	mla	sl, fp, r3, sl
   148ac:	e3570000 	cmp	r7, #0
   148b0:	1affff13 	bne	14504 <USBGamePadDeviceDecodeReport+0x58>
   148b4:	e59db020 	ldr	fp, [sp, #32]
   148b8:	ea000005 	b	148d4 <USBGamePadDeviceDecodeReport+0x428>
   148bc:	e3a03000 	mov	r3, #0
   148c0:	e58d301c 	str	r3, [sp, #28]
   148c4:	e58d3018 	str	r3, [sp, #24]
   148c8:	e1a0a003 	mov	sl, r3
   148cc:	ea000000 	b	148d4 <USBGamePadDeviceDecodeReport+0x428>
   148d0:	e59db020 	ldr	fp, [sp, #32]
   148d4:	e59d3018 	ldr	r3, [sp, #24]
   148d8:	e58b3048 	str	r3, [fp, #72]	; 0x48
   148dc:	e59d301c 	ldr	r3, [sp, #28]
   148e0:	e58b3094 	str	r3, [fp, #148]	; 0x94
   148e4:	e28a3007 	add	r3, sl, #7
   148e8:	e1a031a3 	lsr	r3, r3, #3
   148ec:	e1cb3cbc 	strh	r3, [fp, #204]	; 0xcc
   148f0:	e28dd03c 	add	sp, sp, #60	; 0x3c
   148f4:	e8bd8ff0 	pop	{r4, r5, r6, r7, r8, r9, sl, fp, pc}
   148f8:	f8a432eb 	.word	0xf8a432eb

000148fc <USBGamePadDeviceStartRequest>:
   148fc:	e92d4030 	push	{r4, r5, lr}
   14900:	e24dd00c 	sub	sp, sp, #12
   14904:	e2504000 	subs	r4, r0, #0
   14908:	1a000003 	bne	1491c <USBGamePadDeviceStartRequest+0x20>
   1490c:	e59f20c8 	ldr	r2, [pc, #200]	; 149dc <USBGamePadDeviceStartRequest+0xe0>
   14910:	e59f10c8 	ldr	r1, [pc, #200]	; 149e0 <USBGamePadDeviceStartRequest+0xe4>
   14914:	e59f00c8 	ldr	r0, [pc, #200]	; 149e4 <USBGamePadDeviceStartRequest+0xe8>
   14918:	eb0013db 	bl	1988c <uspi_assertion_failed>
   1491c:	e5943040 	ldr	r3, [r4, #64]	; 0x40
   14920:	e3530000 	cmp	r3, #0
   14924:	1a000003 	bne	14938 <USBGamePadDeviceStartRequest+0x3c>
   14928:	e59f20b8 	ldr	r2, [pc, #184]	; 149e8 <USBGamePadDeviceStartRequest+0xec>
   1492c:	e59f10ac 	ldr	r1, [pc, #172]	; 149e0 <USBGamePadDeviceStartRequest+0xe4>
   14930:	e59f00b4 	ldr	r0, [pc, #180]	; 149ec <USBGamePadDeviceStartRequest+0xf0>
   14934:	eb0013d4 	bl	1988c <uspi_assertion_failed>
   14938:	e59430c8 	ldr	r3, [r4, #200]	; 0xc8
   1493c:	e3530000 	cmp	r3, #0
   14940:	1a000003 	bne	14954 <USBGamePadDeviceStartRequest+0x58>
   14944:	e59f20a4 	ldr	r2, [pc, #164]	; 149f0 <USBGamePadDeviceStartRequest+0xf4>
   14948:	e59f1090 	ldr	r1, [pc, #144]	; 149e0 <USBGamePadDeviceStartRequest+0xe4>
   1494c:	e59f00a0 	ldr	r0, [pc, #160]	; 149f4 <USBGamePadDeviceStartRequest+0xf8>
   14950:	eb0013cd 	bl	1988c <uspi_assertion_failed>
   14954:	e59430c4 	ldr	r3, [r4, #196]	; 0xc4
   14958:	e3530000 	cmp	r3, #0
   1495c:	0a000003 	beq	14970 <USBGamePadDeviceStartRequest+0x74>
   14960:	e3a02f7b 	mov	r2, #492	; 0x1ec
   14964:	e59f1074 	ldr	r1, [pc, #116]	; 149e0 <USBGamePadDeviceStartRequest+0xe4>
   14968:	e59f0088 	ldr	r0, [pc, #136]	; 149f8 <USBGamePadDeviceStartRequest+0xfc>
   1496c:	eb0013c6 	bl	1988c <uspi_assertion_failed>
   14970:	e3a00024 	mov	r0, #36	; 0x24
   14974:	eb000b9d 	bl	177f0 <malloc>
   14978:	e58400c4 	str	r0, [r4, #196]	; 0xc4
   1497c:	e3500000 	cmp	r0, #0
   14980:	1a000003 	bne	14994 <USBGamePadDeviceStartRequest+0x98>
   14984:	e59f2070 	ldr	r2, [pc, #112]	; 149fc <USBGamePadDeviceStartRequest+0x100>
   14988:	e59f1050 	ldr	r1, [pc, #80]	; 149e0 <USBGamePadDeviceStartRequest+0xe4>
   1498c:	e59f006c 	ldr	r0, [pc, #108]	; 14a00 <USBGamePadDeviceStartRequest+0x104>
   14990:	eb0013bd 	bl	1988c <uspi_assertion_failed>
   14994:	e1d43cbc 	ldrh	r3, [r4, #204]	; 0xcc
   14998:	e59420c8 	ldr	r2, [r4, #200]	; 0xc8
   1499c:	e5941040 	ldr	r1, [r4, #64]	; 0x40
   149a0:	e59400c4 	ldr	r0, [r4, #196]	; 0xc4
   149a4:	e3a05000 	mov	r5, #0
   149a8:	e58d5000 	str	r5, [sp]
   149ac:	ebffebef 	bl	f970 <USBRequest>
   149b0:	e1a03004 	mov	r3, r4
   149b4:	e1a02005 	mov	r2, r5
   149b8:	e59f1044 	ldr	r1, [pc, #68]	; 14a04 <USBGamePadDeviceStartRequest+0x108>
   149bc:	e59400c4 	ldr	r0, [r4, #196]	; 0xc4
   149c0:	ebffeca9 	bl	fc6c <USBRequestSetCompletionRoutine>
   149c4:	e1a00004 	mov	r0, r4
   149c8:	ebffe8c0 	bl	ecd0 <USBDeviceGetHost>
   149cc:	e59410c4 	ldr	r1, [r4, #196]	; 0xc4
   149d0:	ebffdb4d 	bl	b70c <DWHCIDeviceSubmitAsyncRequest>
   149d4:	e28dd00c 	add	sp, sp, #12
   149d8:	e8bd8030 	pop	{r4, r5, pc}
   149dc:	000001e7 	.word	0x000001e7
   149e0:	0001ca60 	.word	0x0001ca60
   149e4:	0001b4d8 	.word	0x0001b4d8
   149e8:	000001e9 	.word	0x000001e9
   149ec:	0001c604 	.word	0x0001c604
   149f0:	000001ea 	.word	0x000001ea
   149f4:	0001c824 	.word	0x0001c824
   149f8:	0001c840 	.word	0x0001c840
   149fc:	000001ee 	.word	0x000001ee
   14a00:	0001bb88 	.word	0x0001bb88
   14a04:	00014f2c 	.word	0x00014f2c

00014a08 <USBGamePadDeviceConfigure>:
   14a08:	e92d4ff0 	push	{r4, r5, r6, r7, r8, r9, sl, fp, lr}
   14a0c:	e24dd024 	sub	sp, sp, #36	; 0x24
   14a10:	e2504000 	subs	r4, r0, #0
   14a14:	1a000003 	bne	14a28 <USBGamePadDeviceConfigure+0x20>
   14a18:	e3a02f55 	mov	r2, #340	; 0x154
   14a1c:	e59f14d0 	ldr	r1, [pc, #1232]	; 14ef4 <USBGamePadDeviceConfigure+0x4ec>
   14a20:	e59f04d0 	ldr	r0, [pc, #1232]	; 14ef8 <USBGamePadDeviceConfigure+0x4f0>
   14a24:	eb001398 	bl	1988c <uspi_assertion_failed>
   14a28:	e1a05004 	mov	r5, r4
   14a2c:	e3a01002 	mov	r1, #2
   14a30:	e1a00004 	mov	r0, r4
   14a34:	ebffe8e2 	bl	edc4 <USBDeviceGetDescriptor>
   14a38:	e3500000 	cmp	r0, #0
   14a3c:	0a000002 	beq	14a4c <USBGamePadDeviceConfigure+0x44>
   14a40:	e5d03004 	ldrb	r3, [r0, #4]
   14a44:	e3530000 	cmp	r3, #0
   14a48:	1a000004 	bne	14a60 <USBGamePadDeviceConfigure+0x58>
   14a4c:	e59f14a8 	ldr	r1, [pc, #1192]	; 14efc <USBGamePadDeviceConfigure+0x4f4>
   14a50:	e1a00004 	mov	r0, r4
   14a54:	ebffe8f2 	bl	ee24 <USBDeviceConfigurationError>
   14a58:	e3a05000 	mov	r5, #0
   14a5c:	ea000121 	b	14ee8 <USBGamePadDeviceConfigure+0x4e0>
   14a60:	e3a01004 	mov	r1, #4
   14a64:	e1a00004 	mov	r0, r4
   14a68:	ebffe8d5 	bl	edc4 <USBDeviceGetDescriptor>
   14a6c:	e3500000 	cmp	r0, #0
   14a70:	0a00000b 	beq	14aa4 <USBGamePadDeviceConfigure+0x9c>
   14a74:	e5d03004 	ldrb	r3, [r0, #4]
   14a78:	e3530000 	cmp	r3, #0
   14a7c:	0a000008 	beq	14aa4 <USBGamePadDeviceConfigure+0x9c>
   14a80:	e5d03005 	ldrb	r3, [r0, #5]
   14a84:	e3530003 	cmp	r3, #3
   14a88:	1a000005 	bne	14aa4 <USBGamePadDeviceConfigure+0x9c>
   14a8c:	e5d03006 	ldrb	r3, [r0, #6]
   14a90:	e3530000 	cmp	r3, #0
   14a94:	1a000002 	bne	14aa4 <USBGamePadDeviceConfigure+0x9c>
   14a98:	e5d03007 	ldrb	r3, [r0, #7]
   14a9c:	e3530000 	cmp	r3, #0
   14aa0:	0a000004 	beq	14ab8 <USBGamePadDeviceConfigure+0xb0>
   14aa4:	e59f1450 	ldr	r1, [pc, #1104]	; 14efc <USBGamePadDeviceConfigure+0x4f4>
   14aa8:	e1a00004 	mov	r0, r4
   14aac:	ebffe8dc 	bl	ee24 <USBDeviceConfigurationError>
   14ab0:	e3a05000 	mov	r5, #0
   14ab4:	ea00010b 	b	14ee8 <USBGamePadDeviceConfigure+0x4e0>
   14ab8:	e5d03002 	ldrb	r3, [r0, #2]
   14abc:	e5c4303c 	strb	r3, [r4, #60]	; 0x3c
   14ac0:	e5d03003 	ldrb	r3, [r0, #3]
   14ac4:	e5c4303d 	strb	r3, [r4, #61]	; 0x3d
   14ac8:	e3a01021 	mov	r1, #33	; 0x21
   14acc:	e1a00004 	mov	r0, r4
   14ad0:	ebffe8bb 	bl	edc4 <USBDeviceGetDescriptor>
   14ad4:	e2508000 	subs	r8, r0, #0
   14ad8:	0a000003 	beq	14aec <USBGamePadDeviceConfigure+0xe4>
   14adc:	e5d83007 	ldrb	r3, [r8, #7]
   14ae0:	e5d82008 	ldrb	r2, [r8, #8]
   14ae4:	e1933402 	orrs	r3, r3, r2, lsl #8
   14ae8:	1a000038 	bne	14bd0 <USBGamePadDeviceConfigure+0x1c8>
   14aec:	e59f1408 	ldr	r1, [pc, #1032]	; 14efc <USBGamePadDeviceConfigure+0x4f4>
   14af0:	e1a00004 	mov	r0, r4
   14af4:	ebffe8ca 	bl	ee24 <USBDeviceConfigurationError>
   14af8:	e3a05000 	mov	r5, #0
   14afc:	ea0000f9 	b	14ee8 <USBGamePadDeviceConfigure+0x4e0>
   14b00:	e5d03003 	ldrb	r3, [r0, #3]
   14b04:	e203303f 	and	r3, r3, #63	; 0x3f
   14b08:	e3530003 	cmp	r3, #3
   14b0c:	1a000033 	bne	14be0 <USBGamePadDeviceConfigure+0x1d8>
   14b10:	e1a06000 	mov	r6, r0
   14b14:	e1d030d2 	ldrsb	r3, [r0, #2]
   14b18:	e3530000 	cmp	r3, #0
   14b1c:	aa000015 	bge	14b78 <USBGamePadDeviceConfigure+0x170>
   14b20:	e5943040 	ldr	r3, [r4, #64]	; 0x40
   14b24:	e3530000 	cmp	r3, #0
   14b28:	0a000004 	beq	14b40 <USBGamePadDeviceConfigure+0x138>
   14b2c:	e59f13c8 	ldr	r1, [pc, #968]	; 14efc <USBGamePadDeviceConfigure+0x4f4>
   14b30:	e1a00004 	mov	r0, r4
   14b34:	ebffe8ba 	bl	ee24 <USBDeviceConfigurationError>
   14b38:	e3a05000 	mov	r5, #0
   14b3c:	ea0000e9 	b	14ee8 <USBGamePadDeviceConfigure+0x4e0>
   14b40:	e1a00009 	mov	r0, r9
   14b44:	eb000b29 	bl	177f0 <malloc>
   14b48:	e5840040 	str	r0, [r4, #64]	; 0x40
   14b4c:	e3500000 	cmp	r0, #0
   14b50:	1a000003 	bne	14b64 <USBGamePadDeviceConfigure+0x15c>
   14b54:	e3a02f62 	mov	r2, #392	; 0x188
   14b58:	e1a0100a 	mov	r1, sl
   14b5c:	e59f039c 	ldr	r0, [pc, #924]	; 14f00 <USBGamePadDeviceConfigure+0x4f8>
   14b60:	eb001349 	bl	1988c <uspi_assertion_failed>
   14b64:	e1a02006 	mov	r2, r6
   14b68:	e1a01005 	mov	r1, r5
   14b6c:	e5940040 	ldr	r0, [r4, #64]	; 0x40
   14b70:	ebffea1c 	bl	f3e8 <USBEndpoint2>
   14b74:	ea000019 	b	14be0 <USBGamePadDeviceConfigure+0x1d8>
   14b78:	e5943044 	ldr	r3, [r4, #68]	; 0x44
   14b7c:	e3530000 	cmp	r3, #0
   14b80:	0a000004 	beq	14b98 <USBGamePadDeviceConfigure+0x190>
   14b84:	e59f1370 	ldr	r1, [pc, #880]	; 14efc <USBGamePadDeviceConfigure+0x4f4>
   14b88:	e1a00004 	mov	r0, r4
   14b8c:	ebffe8a4 	bl	ee24 <USBDeviceConfigurationError>
   14b90:	e3a05000 	mov	r5, #0
   14b94:	ea0000d3 	b	14ee8 <USBGamePadDeviceConfigure+0x4e0>
   14b98:	e1a00009 	mov	r0, r9
   14b9c:	eb000b13 	bl	177f0 <malloc>
   14ba0:	e5840044 	str	r0, [r4, #68]	; 0x44
   14ba4:	e3500000 	cmp	r0, #0
   14ba8:	1a000003 	bne	14bbc <USBGamePadDeviceConfigure+0x1b4>
   14bac:	e1a0200b 	mov	r2, fp
   14bb0:	e1a0100a 	mov	r1, sl
   14bb4:	e59f0348 	ldr	r0, [pc, #840]	; 14f04 <USBGamePadDeviceConfigure+0x4fc>
   14bb8:	eb001333 	bl	1988c <uspi_assertion_failed>
   14bbc:	e1a02006 	mov	r2, r6
   14bc0:	e1a01005 	mov	r1, r5
   14bc4:	e5940044 	ldr	r0, [r4, #68]	; 0x44
   14bc8:	ebffea06 	bl	f3e8 <USBEndpoint2>
   14bcc:	ea000003 	b	14be0 <USBGamePadDeviceConfigure+0x1d8>
   14bd0:	e3a07005 	mov	r7, #5
   14bd4:	e3a09018 	mov	r9, #24
   14bd8:	e59fb328 	ldr	fp, [pc, #808]	; 14f08 <USBGamePadDeviceConfigure+0x500>
   14bdc:	e59fa310 	ldr	sl, [pc, #784]	; 14ef4 <USBGamePadDeviceConfigure+0x4ec>
   14be0:	e1a01007 	mov	r1, r7
   14be4:	e1a00005 	mov	r0, r5
   14be8:	ebffe875 	bl	edc4 <USBDeviceGetDescriptor>
   14bec:	e3500000 	cmp	r0, #0
   14bf0:	1affffc2 	bne	14b00 <USBGamePadDeviceConfigure+0xf8>
   14bf4:	e5943040 	ldr	r3, [r4, #64]	; 0x40
   14bf8:	e3530000 	cmp	r3, #0
   14bfc:	1a000004 	bne	14c14 <USBGamePadDeviceConfigure+0x20c>
   14c00:	e59f12f4 	ldr	r1, [pc, #756]	; 14efc <USBGamePadDeviceConfigure+0x4f4>
   14c04:	e1a00004 	mov	r0, r4
   14c08:	ebffe885 	bl	ee24 <USBDeviceConfigurationError>
   14c0c:	e3a05000 	mov	r5, #0
   14c10:	ea0000b4 	b	14ee8 <USBGamePadDeviceConfigure+0x4e0>
   14c14:	e5d83007 	ldrb	r3, [r8, #7]
   14c18:	e5d82008 	ldrb	r2, [r8, #8]
   14c1c:	e1833402 	orr	r3, r3, r2, lsl #8
   14c20:	e1c43bbc 	strh	r3, [r4, #188]	; 0xbc
   14c24:	e5d83007 	ldrb	r3, [r8, #7]
   14c28:	e5d80008 	ldrb	r0, [r8, #8]
   14c2c:	e1830400 	orr	r0, r3, r0, lsl #8
   14c30:	eb000aee 	bl	177f0 <malloc>
   14c34:	e58400c0 	str	r0, [r4, #192]	; 0xc0
   14c38:	e3500000 	cmp	r0, #0
   14c3c:	1a000003 	bne	14c50 <USBGamePadDeviceConfigure+0x248>
   14c40:	e3a02f69 	mov	r2, #420	; 0x1a4
   14c44:	e59f12a8 	ldr	r1, [pc, #680]	; 14ef4 <USBGamePadDeviceConfigure+0x4ec>
   14c48:	e59f02bc 	ldr	r0, [pc, #700]	; 14f0c <USBGamePadDeviceConfigure+0x504>
   14c4c:	eb00130e 	bl	1988c <uspi_assertion_failed>
   14c50:	e1a00004 	mov	r0, r4
   14c54:	ebffe81d 	bl	ecd0 <USBDeviceGetHost>
   14c58:	e1a05000 	mov	r5, r0
   14c5c:	e1a00004 	mov	r0, r4
   14c60:	ebffe805 	bl	ec7c <USBDeviceGetEndpoint0>
   14c64:	e5d83007 	ldrb	r3, [r8, #7]
   14c68:	e5d82008 	ldrb	r2, [r8, #8]
   14c6c:	e1833402 	orr	r3, r3, r2, lsl #8
   14c70:	e58d300c 	str	r3, [sp, #12]
   14c74:	e59430c0 	ldr	r3, [r4, #192]	; 0xc0
   14c78:	e58d3008 	str	r3, [sp, #8]
   14c7c:	e5d4303c 	ldrb	r3, [r4, #60]	; 0x3c
   14c80:	e58d3004 	str	r3, [sp, #4]
   14c84:	e5d83006 	ldrb	r3, [r8, #6]
   14c88:	e1a03403 	lsl	r3, r3, #8
   14c8c:	e58d3000 	str	r3, [sp]
   14c90:	e3a03006 	mov	r3, #6
   14c94:	e3a02081 	mov	r2, #129	; 0x81
   14c98:	e1a01000 	mov	r1, r0
   14c9c:	e1a00005 	mov	r0, r5
   14ca0:	ebffdba2 	bl	bb30 <DWHCIDeviceControlMessage>
   14ca4:	e5d83007 	ldrb	r3, [r8, #7]
   14ca8:	e5d82008 	ldrb	r2, [r8, #8]
   14cac:	e1833402 	orr	r3, r3, r2, lsl #8
   14cb0:	e1500003 	cmp	r0, r3
   14cb4:	0a000005 	beq	14cd0 <USBGamePadDeviceConfigure+0x2c8>
   14cb8:	e59f2250 	ldr	r2, [pc, #592]	; 14f10 <USBGamePadDeviceConfigure+0x508>
   14cbc:	e3a01001 	mov	r1, #1
   14cc0:	e59f0234 	ldr	r0, [pc, #564]	; 14efc <USBGamePadDeviceConfigure+0x4f4>
   14cc4:	eb0012de 	bl	19844 <LogWrite>
   14cc8:	e3a05000 	mov	r5, #0
   14ccc:	ea000085 	b	14ee8 <USBGamePadDeviceConfigure+0x4e0>
   14cd0:	e59430c8 	ldr	r3, [r4, #200]	; 0xc8
   14cd4:	e3a02000 	mov	r2, #0
   14cd8:	e5c32000 	strb	r2, [r3]
   14cdc:	e1a00004 	mov	r0, r4
   14ce0:	ebfffdf1 	bl	144ac <USBGamePadDeviceDecodeReport>
   14ce4:	e1a00004 	mov	r0, r4
   14ce8:	ebffe62c 	bl	e5a0 <USBDeviceConfigure>
   14cec:	e2505000 	subs	r5, r0, #0
   14cf0:	1a000004 	bne	14d08 <USBGamePadDeviceConfigure+0x300>
   14cf4:	e59f2218 	ldr	r2, [pc, #536]	; 14f14 <USBGamePadDeviceConfigure+0x50c>
   14cf8:	e3a01001 	mov	r1, #1
   14cfc:	e59f01f8 	ldr	r0, [pc, #504]	; 14efc <USBGamePadDeviceConfigure+0x4f4>
   14d00:	eb0012cf 	bl	19844 <LogWrite>
   14d04:	ea000077 	b	14ee8 <USBGamePadDeviceConfigure+0x4e0>
   14d08:	e5d4303d 	ldrb	r3, [r4, #61]	; 0x3d
   14d0c:	e3530000 	cmp	r3, #0
   14d10:	0a000018 	beq	14d78 <USBGamePadDeviceConfigure+0x370>
   14d14:	e1a00004 	mov	r0, r4
   14d18:	ebffe7ec 	bl	ecd0 <USBDeviceGetHost>
   14d1c:	e1a05000 	mov	r5, r0
   14d20:	e1a00004 	mov	r0, r4
   14d24:	ebffe7d4 	bl	ec7c <USBDeviceGetEndpoint0>
   14d28:	e3a03000 	mov	r3, #0
   14d2c:	e58d300c 	str	r3, [sp, #12]
   14d30:	e58d3008 	str	r3, [sp, #8]
   14d34:	e5d4303c 	ldrb	r3, [r4, #60]	; 0x3c
   14d38:	e58d3004 	str	r3, [sp, #4]
   14d3c:	e5d4303d 	ldrb	r3, [r4, #61]	; 0x3d
   14d40:	e58d3000 	str	r3, [sp]
   14d44:	e3a0300b 	mov	r3, #11
   14d48:	e3a02001 	mov	r2, #1
   14d4c:	e1a01000 	mov	r1, r0
   14d50:	e1a00005 	mov	r0, r5
   14d54:	ebffdb75 	bl	bb30 <DWHCIDeviceControlMessage>
   14d58:	e3500000 	cmp	r0, #0
   14d5c:	aa000005 	bge	14d78 <USBGamePadDeviceConfigure+0x370>
   14d60:	e59f21b0 	ldr	r2, [pc, #432]	; 14f18 <USBGamePadDeviceConfigure+0x510>
   14d64:	e3a01001 	mov	r1, #1
   14d68:	e59f018c 	ldr	r0, [pc, #396]	; 14efc <USBGamePadDeviceConfigure+0x4f4>
   14d6c:	eb0012b4 	bl	19844 <LogWrite>
   14d70:	e3a05000 	mov	r5, #0
   14d74:	ea00005b 	b	14ee8 <USBGamePadDeviceConfigure+0x4e0>
   14d78:	e59f219c 	ldr	r2, [pc, #412]	; 14f1c <USBGamePadDeviceConfigure+0x514>
   14d7c:	e5923000 	ldr	r3, [r2]
   14d80:	e2831001 	add	r1, r3, #1
   14d84:	e5821000 	str	r1, [r2]
   14d88:	e5843038 	str	r3, [r4, #56]	; 0x38
   14d8c:	e5943014 	ldr	r3, [r4, #20]
   14d90:	e5d32008 	ldrb	r2, [r3, #8]
   14d94:	e5d31009 	ldrb	r1, [r3, #9]
   14d98:	e1822401 	orr	r2, r2, r1, lsl #8
   14d9c:	e59f117c 	ldr	r1, [pc, #380]	; 14f20 <USBGamePadDeviceConfigure+0x518>
   14da0:	e1520001 	cmp	r2, r1
   14da4:	1a00003b 	bne	14e98 <USBGamePadDeviceConfigure+0x490>
   14da8:	e5d3200a 	ldrb	r2, [r3, #10]
   14dac:	e5d3300b 	ldrb	r3, [r3, #11]
   14db0:	e1823403 	orr	r3, r2, r3, lsl #8
   14db4:	e3530f9a 	cmp	r3, #616	; 0x268
   14db8:	1a000036 	bne	14e98 <USBGamePadDeviceConfigure+0x490>
   14dbc:	e59430c8 	ldr	r3, [r4, #200]	; 0xc8
   14dc0:	e3a02042 	mov	r2, #66	; 0x42
   14dc4:	e5c32000 	strb	r2, [r3]
   14dc8:	e59430c8 	ldr	r3, [r4, #200]	; 0xc8
   14dcc:	e3a0200c 	mov	r2, #12
   14dd0:	e5c32001 	strb	r2, [r3, #1]
   14dd4:	e59420c8 	ldr	r2, [r4, #200]	; 0xc8
   14dd8:	e3a03000 	mov	r3, #0
   14ddc:	e5c23002 	strb	r3, [r2, #2]
   14de0:	e59420c8 	ldr	r2, [r4, #200]	; 0xc8
   14de4:	e5c23003 	strb	r3, [r2, #3]
   14de8:	e1a00004 	mov	r0, r4
   14dec:	ebffe7b7 	bl	ecd0 <USBDeviceGetHost>
   14df0:	e1a05000 	mov	r5, r0
   14df4:	e1a00004 	mov	r0, r4
   14df8:	ebffe79f 	bl	ec7c <USBDeviceGetEndpoint0>
   14dfc:	e3a03004 	mov	r3, #4
   14e00:	e58d300c 	str	r3, [sp, #12]
   14e04:	e59430c8 	ldr	r3, [r4, #200]	; 0xc8
   14e08:	e58d3008 	str	r3, [sp, #8]
   14e0c:	e5d4303c 	ldrb	r3, [r4, #60]	; 0x3c
   14e10:	e58d3004 	str	r3, [sp, #4]
   14e14:	e3a03ffd 	mov	r3, #1012	; 0x3f4
   14e18:	e58d3000 	str	r3, [sp]
   14e1c:	e3a03009 	mov	r3, #9
   14e20:	e3a02021 	mov	r2, #33	; 0x21
   14e24:	e1a01000 	mov	r1, r0
   14e28:	e1a00005 	mov	r0, r5
   14e2c:	ebffdb3f 	bl	bb30 <DWHCIDeviceControlMessage>
   14e30:	e59f50e4 	ldr	r5, [pc, #228]	; 14f1c <USBGamePadDeviceConfigure+0x514>
   14e34:	e5942038 	ldr	r2, [r4, #56]	; 0x38
   14e38:	e59f30bc 	ldr	r3, [pc, #188]	; 14efc <USBGamePadDeviceConfigure+0x4f4>
   14e3c:	e0833002 	add	r3, r3, r2
   14e40:	e5d32008 	ldrb	r2, [r3, #8]
   14e44:	e5d5300d 	ldrb	r3, [r5, #13]
   14e48:	e1833082 	orr	r3, r3, r2, lsl #1
   14e4c:	e5c5300d 	strb	r3, [r5, #13]
   14e50:	e1a00004 	mov	r0, r4
   14e54:	ebffe79d 	bl	ecd0 <USBDeviceGetHost>
   14e58:	e1a06000 	mov	r6, r0
   14e5c:	e1a00004 	mov	r0, r4
   14e60:	ebffe785 	bl	ec7c <USBDeviceGetEndpoint0>
   14e64:	e3a03030 	mov	r3, #48	; 0x30
   14e68:	e58d300c 	str	r3, [sp, #12]
   14e6c:	e2855004 	add	r5, r5, #4
   14e70:	e58d5008 	str	r5, [sp, #8]
   14e74:	e5d4303c 	ldrb	r3, [r4, #60]	; 0x3c
   14e78:	e58d3004 	str	r3, [sp, #4]
   14e7c:	e59f30a0 	ldr	r3, [pc, #160]	; 14f24 <USBGamePadDeviceConfigure+0x51c>
   14e80:	e58d3000 	str	r3, [sp]
   14e84:	e3a03009 	mov	r3, #9
   14e88:	e3a02021 	mov	r2, #33	; 0x21
   14e8c:	e1a01000 	mov	r1, r0
   14e90:	e1a00006 	mov	r0, r6
   14e94:	ebffdb25 	bl	bb30 <DWHCIDeviceControlMessage>
   14e98:	e28d0014 	add	r0, sp, #20
   14e9c:	ebfff026 	bl	10f3c <String>
   14ea0:	e5942038 	ldr	r2, [r4, #56]	; 0x38
   14ea4:	e59f107c 	ldr	r1, [pc, #124]	; 14f28 <USBGamePadDeviceConfigure+0x520>
   14ea8:	e28d0014 	add	r0, sp, #20
   14eac:	ebfff2af 	bl	11970 <StringFormat>
   14eb0:	ebffec4f 	bl	fff4 <DeviceNameServiceGet>
   14eb4:	e1a05000 	mov	r5, r0
   14eb8:	e28d0014 	add	r0, sp, #20
   14ebc:	ebfff04e 	bl	10ffc <StringGet>
   14ec0:	e3a03000 	mov	r3, #0
   14ec4:	e1a02004 	mov	r2, r4
   14ec8:	e1a01000 	mov	r1, r0
   14ecc:	e1a00005 	mov	r0, r5
   14ed0:	ebffebd6 	bl	fe30 <DeviceNameServiceAddDevice>
   14ed4:	e28d0014 	add	r0, sp, #20
   14ed8:	ebfff037 	bl	10fbc <_String>
   14edc:	e1a00004 	mov	r0, r4
   14ee0:	ebfffe85 	bl	148fc <USBGamePadDeviceStartRequest>
   14ee4:	e1a05000 	mov	r5, r0
   14ee8:	e1a00005 	mov	r0, r5
   14eec:	e28dd024 	add	sp, sp, #36	; 0x24
   14ef0:	e8bd8ff0 	pop	{r4, r5, r6, r7, r8, r9, sl, fp, pc}
   14ef4:	0001ca60 	.word	0x0001ca60
   14ef8:	0001b4d8 	.word	0x0001b4d8
   14efc:	0001ca50 	.word	0x0001ca50
   14f00:	0001c604 	.word	0x0001c604
   14f04:	0001c620 	.word	0x0001c620
   14f08:	00000195 	.word	0x00000195
   14f0c:	0001ca70 	.word	0x0001ca70
   14f10:	0001ca94 	.word	0x0001ca94
   14f14:	0001c3d8 	.word	0x0001c3d8
   14f18:	0001c874 	.word	0x0001c874
   14f1c:	00008890 	.word	0x00008890
   14f20:	0000054c 	.word	0x0000054c
   14f24:	00000201 	.word	0x00000201
   14f28:	0001b414 	.word	0x0001b414

00014f2c <USBGamePadDeviceCompletionRoutine>:
   14f2c:	e92d4070 	push	{r4, r5, r6, lr}
   14f30:	e1a05000 	mov	r5, r0
   14f34:	e2524000 	subs	r4, r2, #0
   14f38:	1a000003 	bne	14f4c <USBGamePadDeviceCompletionRoutine+0x20>
   14f3c:	e3a02f7e 	mov	r2, #504	; 0x1f8
   14f40:	e59f10b0 	ldr	r1, [pc, #176]	; 14ff8 <USBGamePadDeviceCompletionRoutine+0xcc>
   14f44:	e59f00b0 	ldr	r0, [pc, #176]	; 14ffc <USBGamePadDeviceCompletionRoutine+0xd0>
   14f48:	eb00124f 	bl	1988c <uspi_assertion_failed>
   14f4c:	e3550000 	cmp	r5, #0
   14f50:	1a000003 	bne	14f64 <USBGamePadDeviceCompletionRoutine+0x38>
   14f54:	e59f20a4 	ldr	r2, [pc, #164]	; 15000 <USBGamePadDeviceCompletionRoutine+0xd4>
   14f58:	e59f1098 	ldr	r1, [pc, #152]	; 14ff8 <USBGamePadDeviceCompletionRoutine+0xcc>
   14f5c:	e59f00a0 	ldr	r0, [pc, #160]	; 15004 <USBGamePadDeviceCompletionRoutine+0xd8>
   14f60:	eb001249 	bl	1988c <uspi_assertion_failed>
   14f64:	e59430c4 	ldr	r3, [r4, #196]	; 0xc4
   14f68:	e1550003 	cmp	r5, r3
   14f6c:	0a000003 	beq	14f80 <USBGamePadDeviceCompletionRoutine+0x54>
   14f70:	e59f2090 	ldr	r2, [pc, #144]	; 15008 <USBGamePadDeviceCompletionRoutine+0xdc>
   14f74:	e59f107c 	ldr	r1, [pc, #124]	; 14ff8 <USBGamePadDeviceCompletionRoutine+0xcc>
   14f78:	e59f008c 	ldr	r0, [pc, #140]	; 1500c <USBGamePadDeviceCompletionRoutine+0xe0>
   14f7c:	eb001242 	bl	1988c <uspi_assertion_failed>
   14f80:	e1a00005 	mov	r0, r5
   14f84:	ebffeadd 	bl	fb00 <USBRequestGetStatus>
   14f88:	e3500000 	cmp	r0, #0
   14f8c:	0a000010 	beq	14fd4 <USBGamePadDeviceCompletionRoutine+0xa8>
   14f90:	e1a00005 	mov	r0, r5
   14f94:	ebffeae4 	bl	fb2c <USBRequestGetResultLength>
   14f98:	e3500000 	cmp	r0, #0
   14f9c:	0a00000c 	beq	14fd4 <USBGamePadDeviceCompletionRoutine+0xa8>
   14fa0:	e59430c0 	ldr	r3, [r4, #192]	; 0xc0
   14fa4:	e3530000 	cmp	r3, #0
   14fa8:	0a000009 	beq	14fd4 <USBGamePadDeviceCompletionRoutine+0xa8>
   14fac:	e59430b8 	ldr	r3, [r4, #184]	; 0xb8
   14fb0:	e3530000 	cmp	r3, #0
   14fb4:	0a000006 	beq	14fd4 <USBGamePadDeviceCompletionRoutine+0xa8>
   14fb8:	e1a00004 	mov	r0, r4
   14fbc:	ebfffd3a 	bl	144ac <USBGamePadDeviceDecodeReport>
   14fc0:	e5940038 	ldr	r0, [r4, #56]	; 0x38
   14fc4:	e59430b8 	ldr	r3, [r4, #184]	; 0xb8
   14fc8:	e2841048 	add	r1, r4, #72	; 0x48
   14fcc:	e2400001 	sub	r0, r0, #1
   14fd0:	e12fff33 	blx	r3
   14fd4:	e59400c4 	ldr	r0, [r4, #196]	; 0xc4
   14fd8:	ebffea8e 	bl	fa18 <_USBRequest>
   14fdc:	e59400c4 	ldr	r0, [r4, #196]	; 0xc4
   14fe0:	eb000a6b 	bl	17994 <free>
   14fe4:	e3a03000 	mov	r3, #0
   14fe8:	e58430c4 	str	r3, [r4, #196]	; 0xc4
   14fec:	e1a00004 	mov	r0, r4
   14ff0:	ebfffe41 	bl	148fc <USBGamePadDeviceStartRequest>
   14ff4:	e8bd8070 	pop	{r4, r5, r6, pc}
   14ff8:	0001ca60 	.word	0x0001ca60
   14ffc:	0001b4d8 	.word	0x0001b4d8
   15000:	000001fa 	.word	0x000001fa
   15004:	0001b5a0 	.word	0x0001b5a0
   15008:	000001fb 	.word	0x000001fb
   1500c:	0001c8b0 	.word	0x0001c8b0

00015010 <USBGamePadDevice>:
   15010:	e92d4070 	push	{r4, r5, r6, lr}
   15014:	e1a05001 	mov	r5, r1
   15018:	e2504000 	subs	r4, r0, #0
   1501c:	1a000003 	bne	15030 <USBGamePadDevice+0x20>
   15020:	e3a02056 	mov	r2, #86	; 0x56
   15024:	e59f10b0 	ldr	r1, [pc, #176]	; 150dc <USBGamePadDevice+0xcc>
   15028:	e59f00b0 	ldr	r0, [pc, #176]	; 150e0 <USBGamePadDevice+0xd0>
   1502c:	eb001216 	bl	1988c <uspi_assertion_failed>
   15030:	e1a01005 	mov	r1, r5
   15034:	e1a00004 	mov	r0, r4
   15038:	ebffe5ce 	bl	e778 <USBDeviceCopy>
   1503c:	e59f30a0 	ldr	r3, [pc, #160]	; 150e4 <USBGamePadDevice+0xd4>
   15040:	e5843000 	str	r3, [r4]
   15044:	e3a03000 	mov	r3, #0
   15048:	e5843040 	str	r3, [r4, #64]	; 0x40
   1504c:	e5843044 	str	r3, [r4, #68]	; 0x44
   15050:	e58430b8 	str	r3, [r4, #184]	; 0xb8
   15054:	e58430c4 	str	r3, [r4, #196]	; 0xc4
   15058:	e58430c0 	str	r3, [r4, #192]	; 0xc0
   1505c:	e1c43bbc 	strh	r3, [r4, #188]	; 0xbc
   15060:	e1c43cbc 	strh	r3, [r4, #204]	; 0xcc
   15064:	e5843048 	str	r3, [r4, #72]	; 0x48
   15068:	e1a03004 	mov	r3, r4
   1506c:	e2841048 	add	r1, r4, #72	; 0x48
   15070:	e3a02000 	mov	r2, #0
   15074:	e583204c 	str	r2, [r3, #76]	; 0x4c
   15078:	e5832050 	str	r2, [r3, #80]	; 0x50
   1507c:	e5832054 	str	r2, [r3, #84]	; 0x54
   15080:	e283300c 	add	r3, r3, #12
   15084:	e1530001 	cmp	r3, r1
   15088:	1afffff9 	bne	15074 <USBGamePadDevice+0x64>
   1508c:	e3a03000 	mov	r3, #0
   15090:	e5843094 	str	r3, [r4, #148]	; 0x94
   15094:	e5843098 	str	r3, [r4, #152]	; 0x98
   15098:	e584309c 	str	r3, [r4, #156]	; 0x9c
   1509c:	e58430a0 	str	r3, [r4, #160]	; 0xa0
   150a0:	e58430a4 	str	r3, [r4, #164]	; 0xa4
   150a4:	e58430a8 	str	r3, [r4, #168]	; 0xa8
   150a8:	e58430ac 	str	r3, [r4, #172]	; 0xac
   150ac:	e58430b0 	str	r3, [r4, #176]	; 0xb0
   150b0:	e58430b4 	str	r3, [r4, #180]	; 0xb4
   150b4:	e3a00040 	mov	r0, #64	; 0x40
   150b8:	eb0009cc 	bl	177f0 <malloc>
   150bc:	e58400c8 	str	r0, [r4, #200]	; 0xc8
   150c0:	e3500000 	cmp	r0, #0
   150c4:	18bd8070 	popne	{r4, r5, r6, pc}
   150c8:	e3a02072 	mov	r2, #114	; 0x72
   150cc:	e59f1008 	ldr	r1, [pc, #8]	; 150dc <USBGamePadDevice+0xcc>
   150d0:	e59f0010 	ldr	r0, [pc, #16]	; 150e8 <USBGamePadDevice+0xd8>
   150d4:	eb0011ec 	bl	1988c <uspi_assertion_failed>
   150d8:	e8bd8070 	pop	{r4, r5, r6, pc}
   150dc:	0001ca60 	.word	0x0001ca60
   150e0:	0001b4d8 	.word	0x0001b4d8
   150e4:	00014a08 	.word	0x00014a08
   150e8:	0001c824 	.word	0x0001c824

000150ec <_CUSBGamePadDevice>:
   150ec:	e92d4010 	push	{r4, lr}
   150f0:	e2504000 	subs	r4, r0, #0
   150f4:	1a000003 	bne	15108 <_CUSBGamePadDevice+0x1c>
   150f8:	e3a02077 	mov	r2, #119	; 0x77
   150fc:	e59f1080 	ldr	r1, [pc, #128]	; 15184 <_CUSBGamePadDevice+0x98>
   15100:	e59f0080 	ldr	r0, [pc, #128]	; 15188 <_CUSBGamePadDevice+0x9c>
   15104:	eb0011e0 	bl	1988c <uspi_assertion_failed>
   15108:	e59400c0 	ldr	r0, [r4, #192]	; 0xc0
   1510c:	e3500000 	cmp	r0, #0
   15110:	0a000002 	beq	15120 <_CUSBGamePadDevice+0x34>
   15114:	eb000a1e 	bl	17994 <free>
   15118:	e3a03000 	mov	r3, #0
   1511c:	e58430c0 	str	r3, [r4, #192]	; 0xc0
   15120:	e59400c8 	ldr	r0, [r4, #200]	; 0xc8
   15124:	e3500000 	cmp	r0, #0
   15128:	0a000002 	beq	15138 <_CUSBGamePadDevice+0x4c>
   1512c:	eb000a18 	bl	17994 <free>
   15130:	e3a03000 	mov	r3, #0
   15134:	e58430c8 	str	r3, [r4, #200]	; 0xc8
   15138:	e5940040 	ldr	r0, [r4, #64]	; 0x40
   1513c:	e3500000 	cmp	r0, #0
   15140:	0a000004 	beq	15158 <_CUSBGamePadDevice+0x6c>
   15144:	ebffe939 	bl	f630 <_USBEndpoint>
   15148:	e5940040 	ldr	r0, [r4, #64]	; 0x40
   1514c:	eb000a10 	bl	17994 <free>
   15150:	e3a03000 	mov	r3, #0
   15154:	e5843040 	str	r3, [r4, #64]	; 0x40
   15158:	e5940044 	ldr	r0, [r4, #68]	; 0x44
   1515c:	e3500000 	cmp	r0, #0
   15160:	0a000004 	beq	15178 <_CUSBGamePadDevice+0x8c>
   15164:	ebffe931 	bl	f630 <_USBEndpoint>
   15168:	e5940044 	ldr	r0, [r4, #68]	; 0x44
   1516c:	eb000a08 	bl	17994 <free>
   15170:	e3a03000 	mov	r3, #0
   15174:	e5843044 	str	r3, [r4, #68]	; 0x44
   15178:	e1a00004 	mov	r0, r4
   1517c:	ebffe5f1 	bl	e948 <_USBDevice>
   15180:	e8bd8010 	pop	{r4, pc}
   15184:	0001ca60 	.word	0x0001ca60
   15188:	0001b4d8 	.word	0x0001b4d8

0001518c <USBGamePadDeviceRegisterStatusHandler>:
   1518c:	e92d4070 	push	{r4, r5, r6, lr}
   15190:	e1a04001 	mov	r4, r1
   15194:	e2505000 	subs	r5, r0, #0
   15198:	1a000003 	bne	151ac <USBGamePadDeviceRegisterStatusHandler+0x20>
   1519c:	e3a02e1e 	mov	r2, #480	; 0x1e0
   151a0:	e59f1024 	ldr	r1, [pc, #36]	; 151cc <USBGamePadDeviceRegisterStatusHandler+0x40>
   151a4:	e59f0024 	ldr	r0, [pc, #36]	; 151d0 <USBGamePadDeviceRegisterStatusHandler+0x44>
   151a8:	eb0011b7 	bl	1988c <uspi_assertion_failed>
   151ac:	e3540000 	cmp	r4, #0
   151b0:	1a000003 	bne	151c4 <USBGamePadDeviceRegisterStatusHandler+0x38>
   151b4:	e59f2018 	ldr	r2, [pc, #24]	; 151d4 <USBGamePadDeviceRegisterStatusHandler+0x48>
   151b8:	e59f100c 	ldr	r1, [pc, #12]	; 151cc <USBGamePadDeviceRegisterStatusHandler+0x40>
   151bc:	e59f0014 	ldr	r0, [pc, #20]	; 151d8 <USBGamePadDeviceRegisterStatusHandler+0x4c>
   151c0:	eb0011b1 	bl	1988c <uspi_assertion_failed>
   151c4:	e58540b8 	str	r4, [r5, #184]	; 0xb8
   151c8:	e8bd8070 	pop	{r4, r5, r6, pc}
   151cc:	0001ca60 	.word	0x0001ca60
   151d0:	0001b4d8 	.word	0x0001b4d8
   151d4:	000001e1 	.word	0x000001e1
   151d8:	0001ca24 	.word	0x0001ca24

000151dc <USBGamePadDeviceGetReport>:
   151dc:	e92d4030 	push	{r4, r5, lr}
   151e0:	e24dd014 	sub	sp, sp, #20
   151e4:	e1a04000 	mov	r4, r0
   151e8:	ebffe6b8 	bl	ecd0 <USBDeviceGetHost>
   151ec:	e1a05000 	mov	r5, r0
   151f0:	e1a00004 	mov	r0, r4
   151f4:	ebffe6a0 	bl	ec7c <USBDeviceGetEndpoint0>
   151f8:	e1d43cbc 	ldrh	r3, [r4, #204]	; 0xcc
   151fc:	e58d300c 	str	r3, [sp, #12]
   15200:	e59430c8 	ldr	r3, [r4, #200]	; 0xc8
   15204:	e58d3008 	str	r3, [sp, #8]
   15208:	e5d4303c 	ldrb	r3, [r4, #60]	; 0x3c
   1520c:	e58d3004 	str	r3, [sp, #4]
   15210:	e3a03c01 	mov	r3, #256	; 0x100
   15214:	e58d3000 	str	r3, [sp]
   15218:	e3a03001 	mov	r3, #1
   1521c:	e3a020a1 	mov	r2, #161	; 0xa1
   15220:	e1a01000 	mov	r1, r0
   15224:	e1a00005 	mov	r0, r5
   15228:	ebffda40 	bl	bb30 <DWHCIDeviceControlMessage>
   1522c:	e3500000 	cmp	r0, #0
   15230:	da000001 	ble	1523c <USBGamePadDeviceGetReport+0x60>
   15234:	e1a00004 	mov	r0, r4
   15238:	ebfffc9b 	bl	144ac <USBGamePadDeviceDecodeReport>
   1523c:	e28dd014 	add	sp, sp, #20
   15240:	e8bd8030 	pop	{r4, r5, pc}

00015244 <uspi_EnterCritical>:
   15244:	e10f3000 	mrs	r3, CPSR
   15248:	f10c0080 	cpsid	i
   1524c:	e59f102c 	ldr	r1, [pc, #44]	; 15280 <uspi_EnterCritical+0x3c>
   15250:	e5912000 	ldr	r2, [r1]
   15254:	e2820001 	add	r0, r2, #1
   15258:	e5810000 	str	r0, [r1]
   1525c:	e3520000 	cmp	r2, #0
   15260:	01a033a3 	lsreq	r3, r3, #7
   15264:	02233001 	eoreq	r3, r3, #1
   15268:	02033001 	andeq	r3, r3, #1
   1526c:	01a02001 	moveq	r2, r1
   15270:	05823004 	streq	r3, [r2, #4]
   15274:	e3a03000 	mov	r3, #0
   15278:	ee073fba 	mcr	15, 0, r3, cr7, cr10, {5}
   1527c:	e12fff1e 	bx	lr
   15280:	0000892c 	.word	0x0000892c

00015284 <uspi_LeaveCritical>:
   15284:	e92d4010 	push	{r4, lr}
   15288:	e3a03000 	mov	r3, #0
   1528c:	ee073fba 	mcr	15, 0, r3, cr7, cr10, {5}
   15290:	e59f3044 	ldr	r3, [pc, #68]	; 152dc <uspi_LeaveCritical+0x58>
   15294:	e5933000 	ldr	r3, [r3]
   15298:	e3530000 	cmp	r3, #0
   1529c:	1a000003 	bne	152b0 <uspi_LeaveCritical+0x2c>
   152a0:	e3a02031 	mov	r2, #49	; 0x31
   152a4:	e59f1034 	ldr	r1, [pc, #52]	; 152e0 <uspi_LeaveCritical+0x5c>
   152a8:	e59f0034 	ldr	r0, [pc, #52]	; 152e4 <uspi_LeaveCritical+0x60>
   152ac:	eb001176 	bl	1988c <uspi_assertion_failed>
   152b0:	e59f2024 	ldr	r2, [pc, #36]	; 152dc <uspi_LeaveCritical+0x58>
   152b4:	e5923000 	ldr	r3, [r2]
   152b8:	e2433001 	sub	r3, r3, #1
   152bc:	e5823000 	str	r3, [r2]
   152c0:	e3530000 	cmp	r3, #0
   152c4:	18bd8010 	popne	{r4, pc}
   152c8:	e5923004 	ldr	r3, [r2, #4]
   152cc:	e3530000 	cmp	r3, #0
   152d0:	08bd8010 	popeq	{r4, pc}
   152d4:	f1080080 	cpsie	i
   152d8:	e8bd8010 	pop	{r4, pc}
   152dc:	0000892c 	.word	0x0000892c
   152e0:	0001cab8 	.word	0x0001cab8
   152e4:	0001cac8 	.word	0x0001cac8

000152e8 <uspi_CleanAndInvalidateDataCacheRange>:
   152e8:	ee070f3e 	mcr	15, 0, r0, cr7, cr14, {1}
   152ec:	e2813020 	add	r3, r1, #32
   152f0:	e353001f 	cmp	r3, #31
   152f4:	912fff1e 	bxls	lr
   152f8:	e3c1101f 	bic	r1, r1, #31
   152fc:	e2800020 	add	r0, r0, #32
   15300:	e0811000 	add	r1, r1, r0
   15304:	ee070f3e 	mcr	15, 0, r0, cr7, cr14, {1}
   15308:	e1500001 	cmp	r0, r1
   1530c:	012fff1e 	bxeq	lr
   15310:	e2800020 	add	r0, r0, #32
   15314:	eafffffa 	b	15304 <uspi_CleanAndInvalidateDataCacheRange+0x1c>

00015318 <USBString>:
   15318:	e92d4070 	push	{r4, r5, r6, lr}
   1531c:	e1a05001 	mov	r5, r1
   15320:	e2504000 	subs	r4, r0, #0
   15324:	1a000003 	bne	15338 <USBString+0x20>
   15328:	e3a02021 	mov	r2, #33	; 0x21
   1532c:	e59f1058 	ldr	r1, [pc, #88]	; 1538c <USBString+0x74>
   15330:	e59f0058 	ldr	r0, [pc, #88]	; 15390 <USBString+0x78>
   15334:	eb001154 	bl	1988c <uspi_assertion_failed>
   15338:	e5845000 	str	r5, [r4]
   1533c:	e3550000 	cmp	r5, #0
   15340:	1a000003 	bne	15354 <USBString+0x3c>
   15344:	e3a02024 	mov	r2, #36	; 0x24
   15348:	e59f103c 	ldr	r1, [pc, #60]	; 1538c <USBString+0x74>
   1534c:	e59f0040 	ldr	r0, [pc, #64]	; 15394 <USBString+0x7c>
   15350:	eb00114d 	bl	1988c <uspi_assertion_failed>
   15354:	e3a03000 	mov	r3, #0
   15358:	e5843004 	str	r3, [r4, #4]
   1535c:	e3a0000c 	mov	r0, #12
   15360:	eb000922 	bl	177f0 <malloc>
   15364:	e5840008 	str	r0, [r4, #8]
   15368:	e3500000 	cmp	r0, #0
   1536c:	1a000003 	bne	15380 <USBString+0x68>
   15370:	e3a02029 	mov	r2, #41	; 0x29
   15374:	e59f1010 	ldr	r1, [pc, #16]	; 1538c <USBString+0x74>
   15378:	e59f0018 	ldr	r0, [pc, #24]	; 15398 <USBString+0x80>
   1537c:	eb001142 	bl	1988c <uspi_assertion_failed>
   15380:	e5940008 	ldr	r0, [r4, #8]
   15384:	ebffeeec 	bl	10f3c <String>
   15388:	e8bd8070 	pop	{r4, r5, r6, pc}
   1538c:	0001cae0 	.word	0x0001cae0
   15390:	0001b4d8 	.word	0x0001b4d8
   15394:	0001bb9c 	.word	0x0001bb9c
   15398:	0001caec 	.word	0x0001caec

0001539c <USBStringCopy>:
   1539c:	e92d4070 	push	{r4, r5, r6, lr}
   153a0:	e1a04001 	mov	r4, r1
   153a4:	e2505000 	subs	r5, r0, #0
   153a8:	1a000003 	bne	153bc <USBStringCopy+0x20>
   153ac:	e3a0202f 	mov	r2, #47	; 0x2f
   153b0:	e59f10c8 	ldr	r1, [pc, #200]	; 15480 <USBStringCopy+0xe4>
   153b4:	e59f00c8 	ldr	r0, [pc, #200]	; 15484 <USBStringCopy+0xe8>
   153b8:	eb001133 	bl	1988c <uspi_assertion_failed>
   153bc:	e3540000 	cmp	r4, #0
   153c0:	1a000003 	bne	153d4 <USBStringCopy+0x38>
   153c4:	e3a02030 	mov	r2, #48	; 0x30
   153c8:	e59f10b0 	ldr	r1, [pc, #176]	; 15480 <USBStringCopy+0xe4>
   153cc:	e59f00b4 	ldr	r0, [pc, #180]	; 15488 <USBStringCopy+0xec>
   153d0:	eb00112d 	bl	1988c <uspi_assertion_failed>
   153d4:	e5943000 	ldr	r3, [r4]
   153d8:	e5853000 	str	r3, [r5]
   153dc:	e3a03000 	mov	r3, #0
   153e0:	e5853004 	str	r3, [r5, #4]
   153e4:	e5943004 	ldr	r3, [r4, #4]
   153e8:	e3530000 	cmp	r3, #0
   153ec:	0a00000c 	beq	15424 <USBStringCopy+0x88>
   153f0:	e5d30000 	ldrb	r0, [r3]
   153f4:	eb0008fd 	bl	177f0 <malloc>
   153f8:	e5850004 	str	r0, [r5, #4]
   153fc:	e3500000 	cmp	r0, #0
   15400:	1a000003 	bne	15414 <USBStringCopy+0x78>
   15404:	e3a02037 	mov	r2, #55	; 0x37
   15408:	e59f1070 	ldr	r1, [pc, #112]	; 15480 <USBStringCopy+0xe4>
   1540c:	e59f0078 	ldr	r0, [pc, #120]	; 1548c <USBStringCopy+0xf0>
   15410:	eb00111d 	bl	1988c <uspi_assertion_failed>
   15414:	e5941004 	ldr	r1, [r4, #4]
   15418:	e5d12000 	ldrb	r2, [r1]
   1541c:	e5950004 	ldr	r0, [r5, #4]
   15420:	ebfff16e 	bl	119e0 <uspi_memcpy>
   15424:	e5943008 	ldr	r3, [r4, #8]
   15428:	e3530000 	cmp	r3, #0
   1542c:	1a000003 	bne	15440 <USBStringCopy+0xa4>
   15430:	e3a0203b 	mov	r2, #59	; 0x3b
   15434:	e59f1044 	ldr	r1, [pc, #68]	; 15480 <USBStringCopy+0xe4>
   15438:	e59f0050 	ldr	r0, [pc, #80]	; 15490 <USBStringCopy+0xf4>
   1543c:	eb001112 	bl	1988c <uspi_assertion_failed>
   15440:	e3a0000c 	mov	r0, #12
   15444:	eb0008e9 	bl	177f0 <malloc>
   15448:	e5850008 	str	r0, [r5, #8]
   1544c:	e3500000 	cmp	r0, #0
   15450:	1a000003 	bne	15464 <USBStringCopy+0xc8>
   15454:	e3a0203d 	mov	r2, #61	; 0x3d
   15458:	e59f1020 	ldr	r1, [pc, #32]	; 15480 <USBStringCopy+0xe4>
   1545c:	e59f0030 	ldr	r0, [pc, #48]	; 15494 <USBStringCopy+0xf8>
   15460:	eb001109 	bl	1988c <uspi_assertion_failed>
   15464:	e5955008 	ldr	r5, [r5, #8]
   15468:	e5940008 	ldr	r0, [r4, #8]
   1546c:	ebffeee2 	bl	10ffc <StringGet>
   15470:	e1a01000 	mov	r1, r0
   15474:	e1a00005 	mov	r0, r5
   15478:	ebffeebc 	bl	10f70 <String2>
   1547c:	e8bd8070 	pop	{r4, r5, r6, pc}
   15480:	0001cae0 	.word	0x0001cae0
   15484:	0001b4d8 	.word	0x0001b4d8
   15488:	0001cb04 	.word	0x0001cb04
   1548c:	0001cb14 	.word	0x0001cb14
   15490:	0001cb30 	.word	0x0001cb30
   15494:	0001caec 	.word	0x0001caec

00015498 <_USBString>:
   15498:	e92d4010 	push	{r4, lr}
   1549c:	e2504000 	subs	r4, r0, #0
   154a0:	1a000003 	bne	154b4 <_USBString+0x1c>
   154a4:	e3a02043 	mov	r2, #67	; 0x43
   154a8:	e59f105c 	ldr	r1, [pc, #92]	; 1550c <_USBString+0x74>
   154ac:	e59f005c 	ldr	r0, [pc, #92]	; 15510 <_USBString+0x78>
   154b0:	eb0010f5 	bl	1988c <uspi_assertion_failed>
   154b4:	e5943008 	ldr	r3, [r4, #8]
   154b8:	e3530000 	cmp	r3, #0
   154bc:	1a000003 	bne	154d0 <_USBString+0x38>
   154c0:	e3a02045 	mov	r2, #69	; 0x45
   154c4:	e59f1040 	ldr	r1, [pc, #64]	; 1550c <_USBString+0x74>
   154c8:	e59f0044 	ldr	r0, [pc, #68]	; 15514 <_USBString+0x7c>
   154cc:	eb0010ee 	bl	1988c <uspi_assertion_failed>
   154d0:	e5940008 	ldr	r0, [r4, #8]
   154d4:	ebffeeb8 	bl	10fbc <_String>
   154d8:	e5940008 	ldr	r0, [r4, #8]
   154dc:	eb00092c 	bl	17994 <free>
   154e0:	e3a03000 	mov	r3, #0
   154e4:	e5843008 	str	r3, [r4, #8]
   154e8:	e5940004 	ldr	r0, [r4, #4]
   154ec:	e1500003 	cmp	r0, r3
   154f0:	0a000002 	beq	15500 <_USBString+0x68>
   154f4:	eb000926 	bl	17994 <free>
   154f8:	e3a03000 	mov	r3, #0
   154fc:	e5843004 	str	r3, [r4, #4]
   15500:	e3a03000 	mov	r3, #0
   15504:	e5843000 	str	r3, [r4]
   15508:	e8bd8010 	pop	{r4, pc}
   1550c:	0001cae0 	.word	0x0001cae0
   15510:	0001b4d8 	.word	0x0001b4d8
   15514:	0001caec 	.word	0x0001caec

00015518 <USBStringGetFromDescriptor>:
   15518:	e92d49f0 	push	{r4, r5, r6, r7, r8, fp, lr}
   1551c:	e28db018 	add	fp, sp, #24
   15520:	e24dd014 	sub	sp, sp, #20
   15524:	e1a05001 	mov	r5, r1
   15528:	e1a07002 	mov	r7, r2
   1552c:	e2504000 	subs	r4, r0, #0
   15530:	1a000003 	bne	15544 <USBStringGetFromDescriptor+0x2c>
   15534:	e3a02055 	mov	r2, #85	; 0x55
   15538:	e59f1284 	ldr	r1, [pc, #644]	; 157c4 <USBStringGetFromDescriptor+0x2ac>
   1553c:	e59f0284 	ldr	r0, [pc, #644]	; 157c8 <USBStringGetFromDescriptor+0x2b0>
   15540:	eb0010d1 	bl	1988c <uspi_assertion_failed>
   15544:	e3550000 	cmp	r5, #0
   15548:	1a000003 	bne	1555c <USBStringGetFromDescriptor+0x44>
   1554c:	e3a02056 	mov	r2, #86	; 0x56
   15550:	e59f126c 	ldr	r1, [pc, #620]	; 157c4 <USBStringGetFromDescriptor+0x2ac>
   15554:	e59f0270 	ldr	r0, [pc, #624]	; 157cc <USBStringGetFromDescriptor+0x2b4>
   15558:	eb0010cb 	bl	1988c <uspi_assertion_failed>
   1555c:	e5940004 	ldr	r0, [r4, #4]
   15560:	e3500000 	cmp	r0, #0
   15564:	0a000000 	beq	1556c <USBStringGetFromDescriptor+0x54>
   15568:	eb000909 	bl	17994 <free>
   1556c:	e3a00004 	mov	r0, #4
   15570:	eb00089e 	bl	177f0 <malloc>
   15574:	e5840004 	str	r0, [r4, #4]
   15578:	e3500000 	cmp	r0, #0
   1557c:	1a000003 	bne	15590 <USBStringGetFromDescriptor+0x78>
   15580:	e3a0205d 	mov	r2, #93	; 0x5d
   15584:	e59f1238 	ldr	r1, [pc, #568]	; 157c4 <USBStringGetFromDescriptor+0x2ac>
   15588:	e59f0240 	ldr	r0, [pc, #576]	; 157d0 <USBStringGetFromDescriptor+0x2b8>
   1558c:	eb0010be 	bl	1988c <uspi_assertion_failed>
   15590:	e5943000 	ldr	r3, [r4]
   15594:	e3530000 	cmp	r3, #0
   15598:	1a000003 	bne	155ac <USBStringGetFromDescriptor+0x94>
   1559c:	e3a0205f 	mov	r2, #95	; 0x5f
   155a0:	e59f121c 	ldr	r1, [pc, #540]	; 157c4 <USBStringGetFromDescriptor+0x2ac>
   155a4:	e59f0228 	ldr	r0, [pc, #552]	; 157d4 <USBStringGetFromDescriptor+0x2bc>
   155a8:	eb0010b7 	bl	1988c <uspi_assertion_failed>
   155ac:	e5940000 	ldr	r0, [r4]
   155b0:	ebffe5c6 	bl	ecd0 <USBDeviceGetHost>
   155b4:	e1a06000 	mov	r6, r0
   155b8:	e5940000 	ldr	r0, [r4]
   155bc:	ebffe5ae 	bl	ec7c <USBDeviceGetEndpoint0>
   155c0:	e3855c03 	orr	r5, r5, #768	; 0x300
   155c4:	e3a03004 	mov	r3, #4
   155c8:	e58d300c 	str	r3, [sp, #12]
   155cc:	e5943004 	ldr	r3, [r4, #4]
   155d0:	e58d3008 	str	r3, [sp, #8]
   155d4:	e58d7004 	str	r7, [sp, #4]
   155d8:	e58d5000 	str	r5, [sp]
   155dc:	e3a03006 	mov	r3, #6
   155e0:	e3a02080 	mov	r2, #128	; 0x80
   155e4:	e1a01000 	mov	r1, r0
   155e8:	e1a00006 	mov	r0, r6
   155ec:	ebffd94f 	bl	bb30 <DWHCIDeviceControlMessage>
   155f0:	e3500000 	cmp	r0, #0
   155f4:	b3a00000 	movlt	r0, #0
   155f8:	ba00006f 	blt	157bc <USBStringGetFromDescriptor+0x2a4>
   155fc:	e5940004 	ldr	r0, [r4, #4]
   15600:	e5d06000 	ldrb	r6, [r0]
   15604:	e3560001 	cmp	r6, #1
   15608:	93a00000 	movls	r0, #0
   1560c:	9a00006a 	bls	157bc <USBStringGetFromDescriptor+0x2a4>
   15610:	e3160001 	tst	r6, #1
   15614:	13a00000 	movne	r0, #0
   15618:	1a000067 	bne	157bc <USBStringGetFromDescriptor+0x2a4>
   1561c:	e5d03001 	ldrb	r3, [r0, #1]
   15620:	e3530003 	cmp	r3, #3
   15624:	13a00000 	movne	r0, #0
   15628:	1a000063 	bne	157bc <USBStringGetFromDescriptor+0x2a4>
   1562c:	e3560004 	cmp	r6, #4
   15630:	9a000059 	bls	1579c <USBStringGetFromDescriptor+0x284>
   15634:	eb0008d6 	bl	17994 <free>
   15638:	e1a00006 	mov	r0, r6
   1563c:	eb00086b 	bl	177f0 <malloc>
   15640:	e5840004 	str	r0, [r4, #4]
   15644:	e3500000 	cmp	r0, #0
   15648:	1a000003 	bne	1565c <USBStringGetFromDescriptor+0x144>
   1564c:	e3a02075 	mov	r2, #117	; 0x75
   15650:	e59f116c 	ldr	r1, [pc, #364]	; 157c4 <USBStringGetFromDescriptor+0x2ac>
   15654:	e59f0174 	ldr	r0, [pc, #372]	; 157d0 <USBStringGetFromDescriptor+0x2b8>
   15658:	eb00108b 	bl	1988c <uspi_assertion_failed>
   1565c:	e5940000 	ldr	r0, [r4]
   15660:	ebffe59a 	bl	ecd0 <USBDeviceGetHost>
   15664:	e1a08000 	mov	r8, r0
   15668:	e5940000 	ldr	r0, [r4]
   1566c:	ebffe582 	bl	ec7c <USBDeviceGetEndpoint0>
   15670:	e58d600c 	str	r6, [sp, #12]
   15674:	e5943004 	ldr	r3, [r4, #4]
   15678:	e58d3008 	str	r3, [sp, #8]
   1567c:	e58d7004 	str	r7, [sp, #4]
   15680:	e58d5000 	str	r5, [sp]
   15684:	e3a03006 	mov	r3, #6
   15688:	e3a02080 	mov	r2, #128	; 0x80
   1568c:	e1a01000 	mov	r1, r0
   15690:	e1a00008 	mov	r0, r8
   15694:	ebffd925 	bl	bb30 <DWHCIDeviceControlMessage>
   15698:	e1500006 	cmp	r0, r6
   1569c:	13a00000 	movne	r0, #0
   156a0:	1a000045 	bne	157bc <USBStringGetFromDescriptor+0x2a4>
   156a4:	e5943004 	ldr	r3, [r4, #4]
   156a8:	e5d32000 	ldrb	r2, [r3]
   156ac:	e1520006 	cmp	r2, r6
   156b0:	13a00000 	movne	r0, #0
   156b4:	1a000040 	bne	157bc <USBStringGetFromDescriptor+0x2a4>
   156b8:	e5d33001 	ldrb	r3, [r3, #1]
   156bc:	e3530003 	cmp	r3, #3
   156c0:	13a00000 	movne	r0, #0
   156c4:	1a00003c 	bne	157bc <USBStringGetFromDescriptor+0x2a4>
   156c8:	ea000033 	b	1579c <USBStringGetFromDescriptor+0x284>
   156cc:	e3a0208d 	mov	r2, #141	; 0x8d
   156d0:	e59f10ec 	ldr	r1, [pc, #236]	; 157c4 <USBStringGetFromDescriptor+0x2ac>
   156d4:	e59f00fc 	ldr	r0, [pc, #252]	; 157d8 <USBStringGetFromDescriptor+0x2c0>
   156d8:	eb00106b 	bl	1988c <uspi_assertion_failed>
   156dc:	e2853008 	add	r3, r5, #8
   156e0:	e3c33007 	bic	r3, r3, #7
   156e4:	e04dd003 	sub	sp, sp, r3
   156e8:	e28d7010 	add	r7, sp, #16
   156ec:	e3550000 	cmp	r5, #0
   156f0:	0a00000e 	beq	15730 <USBStringGetFromDescriptor+0x218>
   156f4:	e594c004 	ldr	ip, [r4, #4]
   156f8:	e2470001 	sub	r0, r7, #1
   156fc:	e3a02000 	mov	r2, #0
   15700:	e08c1082 	add	r1, ip, r2, lsl #1
   15704:	e5d13002 	ldrb	r3, [r1, #2]
   15708:	e5d11003 	ldrb	r1, [r1, #3]
   1570c:	e1833401 	orr	r3, r3, r1, lsl #8
   15710:	e2431020 	sub	r1, r3, #32
   15714:	e6ff1071 	uxth	r1, r1
   15718:	e351005e 	cmp	r1, #94	; 0x5e
   1571c:	83a0305f 	movhi	r3, #95	; 0x5f
   15720:	e5e03001 	strb	r3, [r0, #1]!
   15724:	e2822001 	add	r2, r2, #1
   15728:	e1550002 	cmp	r5, r2
   1572c:	1afffff3 	bne	15700 <USBStringGetFromDescriptor+0x1e8>
   15730:	e3a03000 	mov	r3, #0
   15734:	e7c730c6 	strb	r3, [r7, r6, asr #1]
   15738:	e5943008 	ldr	r3, [r4, #8]
   1573c:	e3530000 	cmp	r3, #0
   15740:	1a000003 	bne	15754 <USBStringGetFromDescriptor+0x23c>
   15744:	e3a0209d 	mov	r2, #157	; 0x9d
   15748:	e59f1074 	ldr	r1, [pc, #116]	; 157c4 <USBStringGetFromDescriptor+0x2ac>
   1574c:	e59f0088 	ldr	r0, [pc, #136]	; 157dc <USBStringGetFromDescriptor+0x2c4>
   15750:	eb00104d 	bl	1988c <uspi_assertion_failed>
   15754:	e5940008 	ldr	r0, [r4, #8]
   15758:	ebffee17 	bl	10fbc <_String>
   1575c:	e5940008 	ldr	r0, [r4, #8]
   15760:	eb00088b 	bl	17994 <free>
   15764:	e3a0000c 	mov	r0, #12
   15768:	eb000820 	bl	177f0 <malloc>
   1576c:	e5840008 	str	r0, [r4, #8]
   15770:	e3500000 	cmp	r0, #0
   15774:	1a000003 	bne	15788 <USBStringGetFromDescriptor+0x270>
   15778:	e3a020a2 	mov	r2, #162	; 0xa2
   1577c:	e59f1040 	ldr	r1, [pc, #64]	; 157c4 <USBStringGetFromDescriptor+0x2ac>
   15780:	e59f0054 	ldr	r0, [pc, #84]	; 157dc <USBStringGetFromDescriptor+0x2c4>
   15784:	eb001040 	bl	1988c <uspi_assertion_failed>
   15788:	e1a01007 	mov	r1, r7
   1578c:	e5940008 	ldr	r0, [r4, #8]
   15790:	ebffedf6 	bl	10f70 <String2>
   15794:	e3a00001 	mov	r0, #1
   15798:	ea000007 	b	157bc <USBStringGetFromDescriptor+0x2a4>
   1579c:	e5943004 	ldr	r3, [r4, #4]
   157a0:	e5d36000 	ldrb	r6, [r3]
   157a4:	e2466002 	sub	r6, r6, #2
   157a8:	e0866fa6 	add	r6, r6, r6, lsr #31
   157ac:	e1a050c6 	asr	r5, r6, #1
   157b0:	e355007e 	cmp	r5, #126	; 0x7e
   157b4:	9affffc8 	bls	156dc <USBStringGetFromDescriptor+0x1c4>
   157b8:	eaffffc3 	b	156cc <USBStringGetFromDescriptor+0x1b4>
   157bc:	e24bd018 	sub	sp, fp, #24
   157c0:	e8bd89f0 	pop	{r4, r5, r6, r7, r8, fp, pc}
   157c4:	0001cae0 	.word	0x0001cae0
   157c8:	0001b4d8 	.word	0x0001b4d8
   157cc:	0001cb48 	.word	0x0001cb48
   157d0:	0001cb14 	.word	0x0001cb14
   157d4:	0001bb9c 	.word	0x0001bb9c
   157d8:	0001cb54 	.word	0x0001cb54
   157dc:	0001caec 	.word	0x0001caec

000157e0 <USBStringGet>:
   157e0:	e92d4010 	push	{r4, lr}
   157e4:	e2504000 	subs	r4, r0, #0
   157e8:	1a000003 	bne	157fc <USBStringGet+0x1c>
   157ec:	e3a020aa 	mov	r2, #170	; 0xaa
   157f0:	e59f1010 	ldr	r1, [pc, #16]	; 15808 <USBStringGet+0x28>
   157f4:	e59f0010 	ldr	r0, [pc, #16]	; 1580c <USBStringGet+0x2c>
   157f8:	eb001023 	bl	1988c <uspi_assertion_failed>
   157fc:	e5940008 	ldr	r0, [r4, #8]
   15800:	ebffedfd 	bl	10ffc <StringGet>
   15804:	e8bd8010 	pop	{r4, pc}
   15808:	0001cae0 	.word	0x0001cae0
   1580c:	0001b4d8 	.word	0x0001b4d8

00015810 <USBStringGetLanguageID>:
   15810:	e92d40f0 	push	{r4, r5, r6, r7, lr}
   15814:	e24dd014 	sub	sp, sp, #20
   15818:	e2505000 	subs	r5, r0, #0
   1581c:	1a000003 	bne	15830 <USBStringGetLanguageID+0x20>
   15820:	e3a020b0 	mov	r2, #176	; 0xb0
   15824:	e59f1200 	ldr	r1, [pc, #512]	; 15a2c <USBStringGetLanguageID+0x21c>
   15828:	e59f0200 	ldr	r0, [pc, #512]	; 15a30 <USBStringGetLanguageID+0x220>
   1582c:	eb001016 	bl	1988c <uspi_assertion_failed>
   15830:	e3a00004 	mov	r0, #4
   15834:	eb0007ed 	bl	177f0 <malloc>
   15838:	e2504000 	subs	r4, r0, #0
   1583c:	1a000003 	bne	15850 <USBStringGetLanguageID+0x40>
   15840:	e3a020b3 	mov	r2, #179	; 0xb3
   15844:	e59f11e0 	ldr	r1, [pc, #480]	; 15a2c <USBStringGetLanguageID+0x21c>
   15848:	e59f01e4 	ldr	r0, [pc, #484]	; 15a34 <USBStringGetLanguageID+0x224>
   1584c:	eb00100e 	bl	1988c <uspi_assertion_failed>
   15850:	e5953000 	ldr	r3, [r5]
   15854:	e3530000 	cmp	r3, #0
   15858:	1a000003 	bne	1586c <USBStringGetLanguageID+0x5c>
   1585c:	e3a020b5 	mov	r2, #181	; 0xb5
   15860:	e59f11c4 	ldr	r1, [pc, #452]	; 15a2c <USBStringGetLanguageID+0x21c>
   15864:	e59f01cc 	ldr	r0, [pc, #460]	; 15a38 <USBStringGetLanguageID+0x228>
   15868:	eb001007 	bl	1988c <uspi_assertion_failed>
   1586c:	e5950000 	ldr	r0, [r5]
   15870:	ebffe516 	bl	ecd0 <USBDeviceGetHost>
   15874:	e1a06000 	mov	r6, r0
   15878:	e5950000 	ldr	r0, [r5]
   1587c:	ebffe4fe 	bl	ec7c <USBDeviceGetEndpoint0>
   15880:	e3a03080 	mov	r3, #128	; 0x80
   15884:	e58d3008 	str	r3, [sp, #8]
   15888:	e3a03004 	mov	r3, #4
   1588c:	e58d3004 	str	r3, [sp, #4]
   15890:	e58d4000 	str	r4, [sp]
   15894:	e3a03000 	mov	r3, #0
   15898:	e3a02003 	mov	r2, #3
   1589c:	e1a01000 	mov	r1, r0
   158a0:	e1a00006 	mov	r0, r6
   158a4:	ebffd8dc 	bl	bc1c <DWHCIDeviceGetDescriptor>
   158a8:	e3500000 	cmp	r0, #0
   158ac:	aa000003 	bge	158c0 <USBStringGetLanguageID+0xb0>
   158b0:	e1a00004 	mov	r0, r4
   158b4:	eb000836 	bl	17994 <free>
   158b8:	e59f017c 	ldr	r0, [pc, #380]	; 15a3c <USBStringGetLanguageID+0x22c>
   158bc:	ea000058 	b	15a24 <USBStringGetLanguageID+0x214>
   158c0:	e5d46000 	ldrb	r6, [r4]
   158c4:	e3560003 	cmp	r6, #3
   158c8:	9a000004 	bls	158e0 <USBStringGetLanguageID+0xd0>
   158cc:	e3160001 	tst	r6, #1
   158d0:	1a000002 	bne	158e0 <USBStringGetLanguageID+0xd0>
   158d4:	e5d43001 	ldrb	r3, [r4, #1]
   158d8:	e3530003 	cmp	r3, #3
   158dc:	0a000003 	beq	158f0 <USBStringGetLanguageID+0xe0>
   158e0:	e1a00004 	mov	r0, r4
   158e4:	eb00082a 	bl	17994 <free>
   158e8:	e59f014c 	ldr	r0, [pc, #332]	; 15a3c <USBStringGetLanguageID+0x22c>
   158ec:	ea00004c 	b	15a24 <USBStringGetLanguageID+0x214>
   158f0:	e3560004 	cmp	r6, #4
   158f4:	9a000044 	bls	15a0c <USBStringGetLanguageID+0x1fc>
   158f8:	e1a00004 	mov	r0, r4
   158fc:	eb000824 	bl	17994 <free>
   15900:	e1a00006 	mov	r0, r6
   15904:	eb0007b9 	bl	177f0 <malloc>
   15908:	e2504000 	subs	r4, r0, #0
   1590c:	1a000003 	bne	15920 <USBStringGetLanguageID+0x110>
   15910:	e3a020ce 	mov	r2, #206	; 0xce
   15914:	e59f1110 	ldr	r1, [pc, #272]	; 15a2c <USBStringGetLanguageID+0x21c>
   15918:	e59f0114 	ldr	r0, [pc, #276]	; 15a34 <USBStringGetLanguageID+0x224>
   1591c:	eb000fda 	bl	1988c <uspi_assertion_failed>
   15920:	e5950000 	ldr	r0, [r5]
   15924:	ebffe4e9 	bl	ecd0 <USBDeviceGetHost>
   15928:	e1a07000 	mov	r7, r0
   1592c:	e5950000 	ldr	r0, [r5]
   15930:	ebffe4d1 	bl	ec7c <USBDeviceGetEndpoint0>
   15934:	e3a03080 	mov	r3, #128	; 0x80
   15938:	e58d3008 	str	r3, [sp, #8]
   1593c:	e58d6004 	str	r6, [sp, #4]
   15940:	e58d4000 	str	r4, [sp]
   15944:	e3a03000 	mov	r3, #0
   15948:	e3a02003 	mov	r2, #3
   1594c:	e1a01000 	mov	r1, r0
   15950:	e1a00007 	mov	r0, r7
   15954:	ebffd8b0 	bl	bc1c <DWHCIDeviceGetDescriptor>
   15958:	e1500006 	cmp	r0, r6
   1595c:	0a000003 	beq	15970 <USBStringGetLanguageID+0x160>
   15960:	e1a00004 	mov	r0, r4
   15964:	eb00080a 	bl	17994 <free>
   15968:	e59f00cc 	ldr	r0, [pc, #204]	; 15a3c <USBStringGetLanguageID+0x22c>
   1596c:	ea00002c 	b	15a24 <USBStringGetLanguageID+0x214>
   15970:	e5d43000 	ldrb	r3, [r4]
   15974:	e1530006 	cmp	r3, r6
   15978:	1a000002 	bne	15988 <USBStringGetLanguageID+0x178>
   1597c:	e5d43001 	ldrb	r3, [r4, #1]
   15980:	e3530003 	cmp	r3, #3
   15984:	0a000020 	beq	15a0c <USBStringGetLanguageID+0x1fc>
   15988:	e1a00004 	mov	r0, r4
   1598c:	eb000800 	bl	17994 <free>
   15990:	e59f00a4 	ldr	r0, [pc, #164]	; 15a3c <USBStringGetLanguageID+0x22c>
   15994:	ea000022 	b	15a24 <USBStringGetLanguageID+0x214>
   15998:	e5d43002 	ldrb	r3, [r4, #2]
   1599c:	e5d42003 	ldrb	r2, [r4, #3]
   159a0:	e1833402 	orr	r3, r3, r2, lsl #8
   159a4:	e59f2090 	ldr	r2, [pc, #144]	; 15a3c <USBStringGetLanguageID+0x22c>
   159a8:	e1530002 	cmp	r3, r2
   159ac:	0a000008 	beq	159d4 <USBStringGetLanguageID+0x1c4>
   159b0:	e3a03000 	mov	r3, #0
   159b4:	e1a0c002 	mov	ip, r2
   159b8:	ea000009 	b	159e4 <USBStringGetLanguageID+0x1d4>
   159bc:	e0841083 	add	r1, r4, r3, lsl #1
   159c0:	e5d12002 	ldrb	r2, [r1, #2]
   159c4:	e5d11003 	ldrb	r1, [r1, #3]
   159c8:	e1822401 	orr	r2, r2, r1, lsl #8
   159cc:	e152000c 	cmp	r2, ip
   159d0:	1a000003 	bne	159e4 <USBStringGetLanguageID+0x1d4>
   159d4:	e1a00004 	mov	r0, r4
   159d8:	eb0007ed 	bl	17994 <free>
   159dc:	e59f0058 	ldr	r0, [pc, #88]	; 15a3c <USBStringGetLanguageID+0x22c>
   159e0:	ea00000f 	b	15a24 <USBStringGetLanguageID+0x214>
   159e4:	e2833001 	add	r3, r3, #1
   159e8:	e1500003 	cmp	r0, r3
   159ec:	1afffff2 	bne	159bc <USBStringGetLanguageID+0x1ac>
   159f0:	e5d43002 	ldrb	r3, [r4, #2]
   159f4:	e5d40003 	ldrb	r0, [r4, #3]
   159f8:	e1835400 	orr	r5, r3, r0, lsl #8
   159fc:	e1a00004 	mov	r0, r4
   15a00:	eb0007e3 	bl	17994 <free>
   15a04:	e1a00005 	mov	r0, r5
   15a08:	ea000005 	b	15a24 <USBStringGetLanguageID+0x214>
   15a0c:	e5d40000 	ldrb	r0, [r4]
   15a10:	e2400002 	sub	r0, r0, #2
   15a14:	e0800fa0 	add	r0, r0, r0, lsr #31
   15a18:	e1b000c0 	asrs	r0, r0, #1
   15a1c:	1affffdd 	bne	15998 <USBStringGetLanguageID+0x188>
   15a20:	eafffff2 	b	159f0 <USBStringGetLanguageID+0x1e0>
   15a24:	e28dd014 	add	sp, sp, #20
   15a28:	e8bd80f0 	pop	{r4, r5, r6, r7, pc}
   15a2c:	0001cae0 	.word	0x0001cae0
   15a30:	0001b4d8 	.word	0x0001b4d8
   15a34:	0001cb6c 	.word	0x0001cb6c
   15a38:	0001bb9c 	.word	0x0001bb9c
   15a3c:	00000409 	.word	0x00000409

00015a40 <USBMIDIDeviceStartRequest>:
   15a40:	e92d4030 	push	{r4, r5, lr}
   15a44:	e24dd00c 	sub	sp, sp, #12
   15a48:	e2504000 	subs	r4, r0, #0
   15a4c:	1a000003 	bne	15a60 <USBMIDIDeviceStartRequest+0x20>
   15a50:	e3a020ae 	mov	r2, #174	; 0xae
   15a54:	e59f10c4 	ldr	r1, [pc, #196]	; 15b20 <USBMIDIDeviceStartRequest+0xe0>
   15a58:	e59f00c4 	ldr	r0, [pc, #196]	; 15b24 <USBMIDIDeviceStartRequest+0xe4>
   15a5c:	eb000f8a 	bl	1988c <uspi_assertion_failed>
   15a60:	e5943038 	ldr	r3, [r4, #56]	; 0x38
   15a64:	e3530000 	cmp	r3, #0
   15a68:	1a000003 	bne	15a7c <USBMIDIDeviceStartRequest+0x3c>
   15a6c:	e3a020b0 	mov	r2, #176	; 0xb0
   15a70:	e59f10a8 	ldr	r1, [pc, #168]	; 15b20 <USBMIDIDeviceStartRequest+0xe0>
   15a74:	e59f00ac 	ldr	r0, [pc, #172]	; 15b28 <USBMIDIDeviceStartRequest+0xe8>
   15a78:	eb000f83 	bl	1988c <uspi_assertion_failed>
   15a7c:	e5943048 	ldr	r3, [r4, #72]	; 0x48
   15a80:	e3530000 	cmp	r3, #0
   15a84:	1a000003 	bne	15a98 <USBMIDIDeviceStartRequest+0x58>
   15a88:	e3a020b1 	mov	r2, #177	; 0xb1
   15a8c:	e59f108c 	ldr	r1, [pc, #140]	; 15b20 <USBMIDIDeviceStartRequest+0xe0>
   15a90:	e59f0094 	ldr	r0, [pc, #148]	; 15b2c <USBMIDIDeviceStartRequest+0xec>
   15a94:	eb000f7c 	bl	1988c <uspi_assertion_failed>
   15a98:	e5943040 	ldr	r3, [r4, #64]	; 0x40
   15a9c:	e3530000 	cmp	r3, #0
   15aa0:	0a000003 	beq	15ab4 <USBMIDIDeviceStartRequest+0x74>
   15aa4:	e3a020b3 	mov	r2, #179	; 0xb3
   15aa8:	e59f1070 	ldr	r1, [pc, #112]	; 15b20 <USBMIDIDeviceStartRequest+0xe0>
   15aac:	e59f007c 	ldr	r0, [pc, #124]	; 15b30 <USBMIDIDeviceStartRequest+0xf0>
   15ab0:	eb000f75 	bl	1988c <uspi_assertion_failed>
   15ab4:	e3a00024 	mov	r0, #36	; 0x24
   15ab8:	eb00074c 	bl	177f0 <malloc>
   15abc:	e5840040 	str	r0, [r4, #64]	; 0x40
   15ac0:	e3500000 	cmp	r0, #0
   15ac4:	1a000003 	bne	15ad8 <USBMIDIDeviceStartRequest+0x98>
   15ac8:	e3a020b5 	mov	r2, #181	; 0xb5
   15acc:	e59f104c 	ldr	r1, [pc, #76]	; 15b20 <USBMIDIDeviceStartRequest+0xe0>
   15ad0:	e59f005c 	ldr	r0, [pc, #92]	; 15b34 <USBMIDIDeviceStartRequest+0xf4>
   15ad4:	eb000f6c 	bl	1988c <uspi_assertion_failed>
   15ad8:	e1d434b4 	ldrh	r3, [r4, #68]	; 0x44
   15adc:	e5942048 	ldr	r2, [r4, #72]	; 0x48
   15ae0:	e5941038 	ldr	r1, [r4, #56]	; 0x38
   15ae4:	e5940040 	ldr	r0, [r4, #64]	; 0x40
   15ae8:	e3a05000 	mov	r5, #0
   15aec:	e58d5000 	str	r5, [sp]
   15af0:	ebffe79e 	bl	f970 <USBRequest>
   15af4:	e1a03004 	mov	r3, r4
   15af8:	e1a02005 	mov	r2, r5
   15afc:	e59f1034 	ldr	r1, [pc, #52]	; 15b38 <USBMIDIDeviceStartRequest+0xf8>
   15b00:	e5940040 	ldr	r0, [r4, #64]	; 0x40
   15b04:	ebffe858 	bl	fc6c <USBRequestSetCompletionRoutine>
   15b08:	e1a00004 	mov	r0, r4
   15b0c:	ebffe46f 	bl	ecd0 <USBDeviceGetHost>
   15b10:	e5941040 	ldr	r1, [r4, #64]	; 0x40
   15b14:	ebffd6fc 	bl	b70c <DWHCIDeviceSubmitAsyncRequest>
   15b18:	e28dd00c 	add	sp, sp, #12
   15b1c:	e8bd8030 	pop	{r4, r5, pc}
   15b20:	0001cbc8 	.word	0x0001cbc8
   15b24:	0001b4d8 	.word	0x0001b4d8
   15b28:	0001c604 	.word	0x0001c604
   15b2c:	0001cbd4 	.word	0x0001cbd4
   15b30:	0001c840 	.word	0x0001c840
   15b34:	0001bb88 	.word	0x0001bb88
   15b38:	00015dcc 	.word	0x00015dcc

00015b3c <USBMIDIDeviceConfigure>:
   15b3c:	e92d4ff0 	push	{r4, r5, r6, r7, r8, r9, sl, fp, lr}
   15b40:	e24dd014 	sub	sp, sp, #20
   15b44:	e2506000 	subs	r6, r0, #0
   15b48:	1a000003 	bne	15b5c <USBMIDIDeviceConfigure+0x20>
   15b4c:	e3a02050 	mov	r2, #80	; 0x50
   15b50:	e59f124c 	ldr	r1, [pc, #588]	; 15da4 <USBMIDIDeviceConfigure+0x268>
   15b54:	e59f024c 	ldr	r0, [pc, #588]	; 15da8 <USBMIDIDeviceConfigure+0x26c>
   15b58:	eb000f4b 	bl	1988c <uspi_assertion_failed>
   15b5c:	e1a04006 	mov	r4, r6
   15b60:	e3a01002 	mov	r1, #2
   15b64:	e1a00006 	mov	r0, r6
   15b68:	ebffe495 	bl	edc4 <USBDeviceGetDescriptor>
   15b6c:	e3500000 	cmp	r0, #0
   15b70:	0a000002 	beq	15b80 <USBMIDIDeviceConfigure+0x44>
   15b74:	e5d03004 	ldrb	r3, [r0, #4]
   15b78:	e3530000 	cmp	r3, #0
   15b7c:	1a000053 	bne	15cd0 <USBMIDIDeviceConfigure+0x194>
   15b80:	e59f1224 	ldr	r1, [pc, #548]	; 15dac <USBMIDIDeviceConfigure+0x270>
   15b84:	e1a00006 	mov	r0, r6
   15b88:	ebffe4a5 	bl	ee24 <USBDeviceConfigurationError>
   15b8c:	e3a04000 	mov	r4, #0
   15b90:	ea000080 	b	15d98 <USBMIDIDeviceConfigure+0x25c>
   15b94:	e5d03004 	ldrb	r3, [r0, #4]
   15b98:	e3530000 	cmp	r3, #0
   15b9c:	0a000050 	beq	15ce4 <USBMIDIDeviceConfigure+0x1a8>
   15ba0:	e5d03005 	ldrb	r3, [r0, #5]
   15ba4:	e3530001 	cmp	r3, #1
   15ba8:	1a00004d 	bne	15ce4 <USBMIDIDeviceConfigure+0x1a8>
   15bac:	e5d03006 	ldrb	r3, [r0, #6]
   15bb0:	e3530003 	cmp	r3, #3
   15bb4:	1a00004a 	bne	15ce4 <USBMIDIDeviceConfigure+0x1a8>
   15bb8:	e5d03007 	ldrb	r3, [r0, #7]
   15bbc:	e3530000 	cmp	r3, #0
   15bc0:	1a000047 	bne	15ce4 <USBMIDIDeviceConfigure+0x1a8>
   15bc4:	ea00003b 	b	15cb8 <USBMIDIDeviceConfigure+0x17c>
   15bc8:	e1d730d2 	ldrsb	r3, [r7, #2]
   15bcc:	e3530000 	cmp	r3, #0
   15bd0:	aa000038 	bge	15cb8 <USBMIDIDeviceConfigure+0x17c>
   15bd4:	e5d73003 	ldrb	r3, [r7, #3]
   15bd8:	e203303f 	and	r3, r3, #63	; 0x3f
   15bdc:	e3530002 	cmp	r3, #2
   15be0:	1a000034 	bne	15cb8 <USBMIDIDeviceConfigure+0x17c>
   15be4:	e3a01025 	mov	r1, #37	; 0x25
   15be8:	e1a00004 	mov	r0, r4
   15bec:	ebffe474 	bl	edc4 <USBDeviceGetDescriptor>
   15bf0:	e3500000 	cmp	r0, #0
   15bf4:	0a00002f 	beq	15cb8 <USBMIDIDeviceConfigure+0x17c>
   15bf8:	e5d73000 	ldrb	r3, [r7]
   15bfc:	e0873003 	add	r3, r7, r3
   15c00:	e1500003 	cmp	r0, r3
   15c04:	1a00002b 	bne	15cb8 <USBMIDIDeviceConfigure+0x17c>
   15c08:	e5963038 	ldr	r3, [r6, #56]	; 0x38
   15c0c:	e3530000 	cmp	r3, #0
   15c10:	0a000003 	beq	15c24 <USBMIDIDeviceConfigure+0xe8>
   15c14:	e3a0207f 	mov	r2, #127	; 0x7f
   15c18:	e1a01009 	mov	r1, r9
   15c1c:	e1a00008 	mov	r0, r8
   15c20:	eb000f19 	bl	1988c <uspi_assertion_failed>
   15c24:	e3a00018 	mov	r0, #24
   15c28:	eb0006f0 	bl	177f0 <malloc>
   15c2c:	e5860038 	str	r0, [r6, #56]	; 0x38
   15c30:	e3500000 	cmp	r0, #0
   15c34:	1a000003 	bne	15c48 <USBMIDIDeviceConfigure+0x10c>
   15c38:	e3a02081 	mov	r2, #129	; 0x81
   15c3c:	e1a01009 	mov	r1, r9
   15c40:	e59f0168 	ldr	r0, [pc, #360]	; 15db0 <USBMIDIDeviceConfigure+0x274>
   15c44:	eb000f10 	bl	1988c <uspi_assertion_failed>
   15c48:	e5d73004 	ldrb	r3, [r7, #4]
   15c4c:	e5d72005 	ldrb	r2, [r7, #5]
   15c50:	e1833402 	orr	r3, r3, r2, lsl #8
   15c54:	e1c634b4 	strh	r3, [r6, #68]	; 0x44
   15c58:	e5d72004 	ldrb	r2, [r7, #4]
   15c5c:	e2022003 	and	r2, r2, #3
   15c60:	e0623003 	rsb	r3, r2, r3
   15c64:	e1c634b4 	strh	r3, [r6, #68]	; 0x44
   15c68:	e5963048 	ldr	r3, [r6, #72]	; 0x48
   15c6c:	e3530000 	cmp	r3, #0
   15c70:	0a000003 	beq	15c84 <USBMIDIDeviceConfigure+0x148>
   15c74:	e3a02085 	mov	r2, #133	; 0x85
   15c78:	e1a01009 	mov	r1, r9
   15c7c:	e1a0000a 	mov	r0, sl
   15c80:	eb000f01 	bl	1988c <uspi_assertion_failed>
   15c84:	e1d604b4 	ldrh	r0, [r6, #68]	; 0x44
   15c88:	eb0006d8 	bl	177f0 <malloc>
   15c8c:	e5860048 	str	r0, [r6, #72]	; 0x48
   15c90:	e3500000 	cmp	r0, #0
   15c94:	1a000003 	bne	15ca8 <USBMIDIDeviceConfigure+0x16c>
   15c98:	e3a02087 	mov	r2, #135	; 0x87
   15c9c:	e1a01009 	mov	r1, r9
   15ca0:	e1a0000b 	mov	r0, fp
   15ca4:	eb000ef8 	bl	1988c <uspi_assertion_failed>
   15ca8:	e1a02007 	mov	r2, r7
   15cac:	e1a01004 	mov	r1, r4
   15cb0:	e5960038 	ldr	r0, [r6, #56]	; 0x38
   15cb4:	ebffe5cb 	bl	f3e8 <USBEndpoint2>
   15cb8:	e3a01005 	mov	r1, #5
   15cbc:	e1a00004 	mov	r0, r4
   15cc0:	ebffe43f 	bl	edc4 <USBDeviceGetDescriptor>
   15cc4:	e2507000 	subs	r7, r0, #0
   15cc8:	1affffbe 	bne	15bc8 <USBMIDIDeviceConfigure+0x8c>
   15ccc:	ea000004 	b	15ce4 <USBMIDIDeviceConfigure+0x1a8>
   15cd0:	e3a05004 	mov	r5, #4
   15cd4:	e59f90c8 	ldr	r9, [pc, #200]	; 15da4 <USBMIDIDeviceConfigure+0x268>
   15cd8:	e59fb0d4 	ldr	fp, [pc, #212]	; 15db4 <USBMIDIDeviceConfigure+0x278>
   15cdc:	e59fa0d4 	ldr	sl, [pc, #212]	; 15db8 <USBMIDIDeviceConfigure+0x27c>
   15ce0:	e59f80d4 	ldr	r8, [pc, #212]	; 15dbc <USBMIDIDeviceConfigure+0x280>
   15ce4:	e1a01005 	mov	r1, r5
   15ce8:	e1a00004 	mov	r0, r4
   15cec:	ebffe434 	bl	edc4 <USBDeviceGetDescriptor>
   15cf0:	e3500000 	cmp	r0, #0
   15cf4:	1affffa6 	bne	15b94 <USBMIDIDeviceConfigure+0x58>
   15cf8:	e5963038 	ldr	r3, [r6, #56]	; 0x38
   15cfc:	e3530000 	cmp	r3, #0
   15d00:	1a000004 	bne	15d18 <USBMIDIDeviceConfigure+0x1dc>
   15d04:	e59f10a0 	ldr	r1, [pc, #160]	; 15dac <USBMIDIDeviceConfigure+0x270>
   15d08:	e1a00006 	mov	r0, r6
   15d0c:	ebffe444 	bl	ee24 <USBDeviceConfigurationError>
   15d10:	e3a04000 	mov	r4, #0
   15d14:	ea00001f 	b	15d98 <USBMIDIDeviceConfigure+0x25c>
   15d18:	e1a00006 	mov	r0, r6
   15d1c:	ebffe21f 	bl	e5a0 <USBDeviceConfigure>
   15d20:	e2504000 	subs	r4, r0, #0
   15d24:	1a000004 	bne	15d3c <USBMIDIDeviceConfigure+0x200>
   15d28:	e59f2090 	ldr	r2, [pc, #144]	; 15dc0 <USBMIDIDeviceConfigure+0x284>
   15d2c:	e3a01001 	mov	r1, #1
   15d30:	e59f0074 	ldr	r0, [pc, #116]	; 15dac <USBMIDIDeviceConfigure+0x270>
   15d34:	eb000ec2 	bl	19844 <LogWrite>
   15d38:	ea000016 	b	15d98 <USBMIDIDeviceConfigure+0x25c>
   15d3c:	e28d0004 	add	r0, sp, #4
   15d40:	ebffec7d 	bl	10f3c <String>
   15d44:	e59f3078 	ldr	r3, [pc, #120]	; 15dc4 <USBMIDIDeviceConfigure+0x288>
   15d48:	e5932000 	ldr	r2, [r3]
   15d4c:	e2821001 	add	r1, r2, #1
   15d50:	e5831000 	str	r1, [r3]
   15d54:	e59f106c 	ldr	r1, [pc, #108]	; 15dc8 <USBMIDIDeviceConfigure+0x28c>
   15d58:	e28d0004 	add	r0, sp, #4
   15d5c:	ebffef03 	bl	11970 <StringFormat>
   15d60:	ebffe8a3 	bl	fff4 <DeviceNameServiceGet>
   15d64:	e1a04000 	mov	r4, r0
   15d68:	e28d0004 	add	r0, sp, #4
   15d6c:	ebffeca2 	bl	10ffc <StringGet>
   15d70:	e3a03000 	mov	r3, #0
   15d74:	e1a02006 	mov	r2, r6
   15d78:	e1a01000 	mov	r1, r0
   15d7c:	e1a00004 	mov	r0, r4
   15d80:	ebffe82a 	bl	fe30 <DeviceNameServiceAddDevice>
   15d84:	e28d0004 	add	r0, sp, #4
   15d88:	ebffec8b 	bl	10fbc <_String>
   15d8c:	e1a00006 	mov	r0, r6
   15d90:	ebffff2a 	bl	15a40 <USBMIDIDeviceStartRequest>
   15d94:	e1a04000 	mov	r4, r0
   15d98:	e1a00004 	mov	r0, r4
   15d9c:	e28dd014 	add	sp, sp, #20
   15da0:	e8bd8ff0 	pop	{r4, r5, r6, r7, r8, r9, sl, fp, pc}
   15da4:	0001cbc8 	.word	0x0001cbc8
   15da8:	0001b4d8 	.word	0x0001b4d8
   15dac:	0001cb80 	.word	0x0001cb80
   15db0:	0001c604 	.word	0x0001c604
   15db4:	0001cbd4 	.word	0x0001cbd4
   15db8:	0001cc0c 	.word	0x0001cc0c
   15dbc:	0001cbf0 	.word	0x0001cbf0
   15dc0:	0001c3d8 	.word	0x0001c3d8
   15dc4:	000088c4 	.word	0x000088c4
   15dc8:	0001cc28 	.word	0x0001cc28

00015dcc <USBMIDIDeviceCompletionRoutine>:
   15dcc:	e92d41f0 	push	{r4, r5, r6, r7, r8, lr}
   15dd0:	e1a04000 	mov	r4, r0
   15dd4:	e2525000 	subs	r5, r2, #0
   15dd8:	1a000003 	bne	15dec <USBMIDIDeviceCompletionRoutine+0x20>
   15ddc:	e3a020bf 	mov	r2, #191	; 0xbf
   15de0:	e59f1104 	ldr	r1, [pc, #260]	; 15eec <USBMIDIDeviceCompletionRoutine+0x120>
   15de4:	e59f0104 	ldr	r0, [pc, #260]	; 15ef0 <USBMIDIDeviceCompletionRoutine+0x124>
   15de8:	eb000ea7 	bl	1988c <uspi_assertion_failed>
   15dec:	e3540000 	cmp	r4, #0
   15df0:	1a000003 	bne	15e04 <USBMIDIDeviceCompletionRoutine+0x38>
   15df4:	e3a020c1 	mov	r2, #193	; 0xc1
   15df8:	e59f10ec 	ldr	r1, [pc, #236]	; 15eec <USBMIDIDeviceCompletionRoutine+0x120>
   15dfc:	e59f00f0 	ldr	r0, [pc, #240]	; 15ef4 <USBMIDIDeviceCompletionRoutine+0x128>
   15e00:	eb000ea1 	bl	1988c <uspi_assertion_failed>
   15e04:	e5953040 	ldr	r3, [r5, #64]	; 0x40
   15e08:	e1540003 	cmp	r4, r3
   15e0c:	0a000003 	beq	15e20 <USBMIDIDeviceCompletionRoutine+0x54>
   15e10:	e3a020c2 	mov	r2, #194	; 0xc2
   15e14:	e59f10d0 	ldr	r1, [pc, #208]	; 15eec <USBMIDIDeviceCompletionRoutine+0x120>
   15e18:	e59f00d8 	ldr	r0, [pc, #216]	; 15ef8 <USBMIDIDeviceCompletionRoutine+0x12c>
   15e1c:	eb000e9a 	bl	1988c <uspi_assertion_failed>
   15e20:	e1a00004 	mov	r0, r4
   15e24:	ebffe735 	bl	fb00 <USBRequestGetStatus>
   15e28:	e3500000 	cmp	r0, #0
   15e2c:	0a000025 	beq	15ec8 <USBMIDIDeviceCompletionRoutine+0xfc>
   15e30:	e1a00004 	mov	r0, r4
   15e34:	ebffe73c 	bl	fb2c <USBRequestGetResultLength>
   15e38:	e3100003 	tst	r0, #3
   15e3c:	1a000021 	bne	15ec8 <USBMIDIDeviceCompletionRoutine+0xfc>
   15e40:	e5953048 	ldr	r3, [r5, #72]	; 0x48
   15e44:	e3530000 	cmp	r3, #0
   15e48:	1a000003 	bne	15e5c <USBMIDIDeviceCompletionRoutine+0x90>
   15e4c:	e3a020c7 	mov	r2, #199	; 0xc7
   15e50:	e59f1094 	ldr	r1, [pc, #148]	; 15eec <USBMIDIDeviceCompletionRoutine+0x120>
   15e54:	e59f00a0 	ldr	r0, [pc, #160]	; 15efc <USBMIDIDeviceCompletionRoutine+0x130>
   15e58:	eb000e8b 	bl	1988c <uspi_assertion_failed>
   15e5c:	e5956048 	ldr	r6, [r5, #72]	; 0x48
   15e60:	e1a00004 	mov	r0, r4
   15e64:	ebffe730 	bl	fb2c <USBRequestGetResultLength>
   15e68:	e0866000 	add	r6, r6, r0
   15e6c:	e5954048 	ldr	r4, [r5, #72]	; 0x48
   15e70:	e1560004 	cmp	r6, r4
   15e74:	9a000013 	bls	15ec8 <USBMIDIDeviceCompletionRoutine+0xfc>
   15e78:	e2844001 	add	r4, r4, #1
   15e7c:	e59f707c 	ldr	r7, [pc, #124]	; 15f00 <USBMIDIDeviceCompletionRoutine+0x134>
   15e80:	ea000000 	b	15e88 <USBMIDIDeviceCompletionRoutine+0xbc>
   15e84:	e1a04003 	mov	r4, r3
   15e88:	e1a02004 	mov	r2, r4
   15e8c:	e5540001 	ldrb	r0, [r4, #-1]
   15e90:	e3500000 	cmp	r0, #0
   15e94:	0a000007 	beq	15eb8 <USBMIDIDeviceCompletionRoutine+0xec>
   15e98:	e595803c 	ldr	r8, [r5, #60]	; 0x3c
   15e9c:	e3580000 	cmp	r8, #0
   15ea0:	0a000004 	beq	15eb8 <USBMIDIDeviceCompletionRoutine+0xec>
   15ea4:	e200300f 	and	r3, r0, #15
   15ea8:	e0873103 	add	r3, r7, r3, lsl #2
   15eac:	e5931008 	ldr	r1, [r3, #8]
   15eb0:	e1a00220 	lsr	r0, r0, #4
   15eb4:	e12fff38 	blx	r8
   15eb8:	e2843004 	add	r3, r4, #4
   15ebc:	e2844003 	add	r4, r4, #3
   15ec0:	e1560004 	cmp	r6, r4
   15ec4:	8affffee 	bhi	15e84 <USBMIDIDeviceCompletionRoutine+0xb8>
   15ec8:	e5950040 	ldr	r0, [r5, #64]	; 0x40
   15ecc:	ebffe6d1 	bl	fa18 <_USBRequest>
   15ed0:	e5950040 	ldr	r0, [r5, #64]	; 0x40
   15ed4:	eb0006ae 	bl	17994 <free>
   15ed8:	e3a03000 	mov	r3, #0
   15edc:	e5853040 	str	r3, [r5, #64]	; 0x40
   15ee0:	e1a00005 	mov	r0, r5
   15ee4:	ebfffed5 	bl	15a40 <USBMIDIDeviceStartRequest>
   15ee8:	e8bd81f0 	pop	{r4, r5, r6, r7, r8, pc}
   15eec:	0001cbc8 	.word	0x0001cbc8
   15ef0:	0001b4d8 	.word	0x0001b4d8
   15ef4:	0001b5a0 	.word	0x0001b5a0
   15ef8:	0001c8b0 	.word	0x0001c8b0
   15efc:	0001cbd4 	.word	0x0001cbd4
   15f00:	0001cb80 	.word	0x0001cb80

00015f04 <USBMIDIDevice>:
   15f04:	e92d4070 	push	{r4, r5, r6, lr}
   15f08:	e1a05001 	mov	r5, r1
   15f0c:	e2504000 	subs	r4, r0, #0
   15f10:	1a000003 	bne	15f24 <USBMIDIDevice+0x20>
   15f14:	e3a0202e 	mov	r2, #46	; 0x2e
   15f18:	e59f1030 	ldr	r1, [pc, #48]	; 15f50 <USBMIDIDevice+0x4c>
   15f1c:	e59f0030 	ldr	r0, [pc, #48]	; 15f54 <USBMIDIDevice+0x50>
   15f20:	eb000e59 	bl	1988c <uspi_assertion_failed>
   15f24:	e1a01005 	mov	r1, r5
   15f28:	e1a00004 	mov	r0, r4
   15f2c:	ebffe211 	bl	e778 <USBDeviceCopy>
   15f30:	e59f3020 	ldr	r3, [pc, #32]	; 15f58 <USBMIDIDevice+0x54>
   15f34:	e5843000 	str	r3, [r4]
   15f38:	e3a03000 	mov	r3, #0
   15f3c:	e5843038 	str	r3, [r4, #56]	; 0x38
   15f40:	e584303c 	str	r3, [r4, #60]	; 0x3c
   15f44:	e5843040 	str	r3, [r4, #64]	; 0x40
   15f48:	e5843048 	str	r3, [r4, #72]	; 0x48
   15f4c:	e8bd8070 	pop	{r4, r5, r6, pc}
   15f50:	0001cbc8 	.word	0x0001cbc8
   15f54:	0001b4d8 	.word	0x0001b4d8
   15f58:	00015b3c 	.word	0x00015b3c

00015f5c <_CUSBMIDIDevice>:
   15f5c:	e92d4010 	push	{r4, lr}
   15f60:	e2504000 	subs	r4, r0, #0
   15f64:	1a000003 	bne	15f78 <_CUSBMIDIDevice+0x1c>
   15f68:	e3a0203b 	mov	r2, #59	; 0x3b
   15f6c:	e59f1048 	ldr	r1, [pc, #72]	; 15fbc <_CUSBMIDIDevice+0x60>
   15f70:	e59f0048 	ldr	r0, [pc, #72]	; 15fc0 <_CUSBMIDIDevice+0x64>
   15f74:	eb000e44 	bl	1988c <uspi_assertion_failed>
   15f78:	e5940048 	ldr	r0, [r4, #72]	; 0x48
   15f7c:	e3500000 	cmp	r0, #0
   15f80:	0a000002 	beq	15f90 <_CUSBMIDIDevice+0x34>
   15f84:	eb000682 	bl	17994 <free>
   15f88:	e3a03000 	mov	r3, #0
   15f8c:	e5843048 	str	r3, [r4, #72]	; 0x48
   15f90:	e5940038 	ldr	r0, [r4, #56]	; 0x38
   15f94:	e3500000 	cmp	r0, #0
   15f98:	0a000004 	beq	15fb0 <_CUSBMIDIDevice+0x54>
   15f9c:	ebffe5a3 	bl	f630 <_USBEndpoint>
   15fa0:	e5940038 	ldr	r0, [r4, #56]	; 0x38
   15fa4:	eb00067a 	bl	17994 <free>
   15fa8:	e3a03000 	mov	r3, #0
   15fac:	e5843038 	str	r3, [r4, #56]	; 0x38
   15fb0:	e1a00004 	mov	r0, r4
   15fb4:	ebffe263 	bl	e948 <_USBDevice>
   15fb8:	e8bd8010 	pop	{r4, pc}
   15fbc:	0001cbc8 	.word	0x0001cbc8
   15fc0:	0001b4d8 	.word	0x0001b4d8

00015fc4 <USBMIDIDeviceRegisterPacketHandler>:
   15fc4:	e92d4070 	push	{r4, r5, r6, lr}
   15fc8:	e1a04001 	mov	r4, r1
   15fcc:	e2505000 	subs	r5, r0, #0
   15fd0:	1a000003 	bne	15fe4 <USBMIDIDeviceRegisterPacketHandler+0x20>
   15fd4:	e3a020a7 	mov	r2, #167	; 0xa7
   15fd8:	e59f1024 	ldr	r1, [pc, #36]	; 16004 <USBMIDIDeviceRegisterPacketHandler+0x40>
   15fdc:	e59f0024 	ldr	r0, [pc, #36]	; 16008 <USBMIDIDeviceRegisterPacketHandler+0x44>
   15fe0:	eb000e29 	bl	1988c <uspi_assertion_failed>
   15fe4:	e3540000 	cmp	r4, #0
   15fe8:	1a000003 	bne	15ffc <USBMIDIDeviceRegisterPacketHandler+0x38>
   15fec:	e3a020a8 	mov	r2, #168	; 0xa8
   15ff0:	e59f100c 	ldr	r1, [pc, #12]	; 16004 <USBMIDIDeviceRegisterPacketHandler+0x40>
   15ff4:	e59f0010 	ldr	r0, [pc, #16]	; 1600c <USBMIDIDeviceRegisterPacketHandler+0x48>
   15ff8:	eb000e23 	bl	1988c <uspi_assertion_failed>
   15ffc:	e585403c 	str	r4, [r5, #60]	; 0x3c
   16000:	e8bd8070 	pop	{r4, r5, r6, pc}
   16004:	0001cbc8 	.word	0x0001cbc8
   16008:	0001b4d8 	.word	0x0001b4d8
   1600c:	0001cc30 	.word	0x0001cc30

00016010 <USBConfigurationParser>:
   16010:	e92d41f0 	push	{r4, r5, r6, r7, r8, lr}
   16014:	e1a05001 	mov	r5, r1
   16018:	e1a06002 	mov	r6, r2
   1601c:	e2504000 	subs	r4, r0, #0
   16020:	1a000003 	bne	16034 <USBConfigurationParser+0x24>
   16024:	e3a0201c 	mov	r2, #28
   16028:	e59f116c 	ldr	r1, [pc, #364]	; 1619c <USBConfigurationParser+0x18c>
   1602c:	e59f016c 	ldr	r0, [pc, #364]	; 161a0 <USBConfigurationParser+0x190>
   16030:	eb000e15 	bl	1988c <uspi_assertion_failed>
   16034:	e5845000 	str	r5, [r4]
   16038:	e5846004 	str	r6, [r4, #4]
   1603c:	e3a03000 	mov	r3, #0
   16040:	e5843008 	str	r3, [r4, #8]
   16044:	e0853006 	add	r3, r5, r6
   16048:	e584300c 	str	r3, [r4, #12]
   1604c:	e5845010 	str	r5, [r4, #16]
   16050:	e5845014 	str	r5, [r4, #20]
   16054:	e3550000 	cmp	r5, #0
   16058:	1a000003 	bne	1606c <USBConfigurationParser+0x5c>
   1605c:	e3a02024 	mov	r2, #36	; 0x24
   16060:	e59f1134 	ldr	r1, [pc, #308]	; 1619c <USBConfigurationParser+0x18c>
   16064:	e59f0138 	ldr	r0, [pc, #312]	; 161a4 <USBConfigurationParser+0x194>
   16068:	eb000e07 	bl	1988c <uspi_assertion_failed>
   1606c:	e5943004 	ldr	r3, [r4, #4]
   16070:	e2433004 	sub	r3, r3, #4
   16074:	e3530f7f 	cmp	r3, #508	; 0x1fc
   16078:	88bd81f0 	pophi	{r4, r5, r6, r7, r8, pc}
   1607c:	e5943000 	ldr	r3, [r4]
   16080:	e5d32000 	ldrb	r2, [r3]
   16084:	e3520009 	cmp	r2, #9
   16088:	18bd81f0 	popne	{r4, r5, r6, r7, r8, pc}
   1608c:	e5d32001 	ldrb	r2, [r3, #1]
   16090:	e3520002 	cmp	r2, #2
   16094:	18bd81f0 	popne	{r4, r5, r6, r7, r8, pc}
   16098:	e5d32002 	ldrb	r2, [r3, #2]
   1609c:	e5d31003 	ldrb	r1, [r3, #3]
   160a0:	e1822401 	orr	r2, r2, r1, lsl #8
   160a4:	e1560002 	cmp	r6, r2
   160a8:	38bd81f0 	popcc	{r4, r5, r6, r7, r8, pc}
   160ac:	80832002 	addhi	r2, r3, r2
   160b0:	8584200c 	strhi	r2, [r4, #12]
   160b4:	e594e00c 	ldr	lr, [r4, #12]
   160b8:	e3a05000 	mov	r5, #0
   160bc:	e1a0c005 	mov	ip, r5
   160c0:	e3a06009 	mov	r6, #9
   160c4:	e1a07005 	mov	r7, r5
   160c8:	ea00002b 	b	1617c <USBConfigurationParser+0x16c>
   160cc:	e5d31000 	ldrb	r1, [r3]
   160d0:	e5d32001 	ldrb	r2, [r3, #1]
   160d4:	e0830001 	add	r0, r3, r1
   160d8:	e15e0000 	cmp	lr, r0
   160dc:	2a000001 	bcs	160e8 <USBConfigurationParser+0xd8>
   160e0:	e5843014 	str	r3, [r4, #20]
   160e4:	e8bd81f0 	pop	{r4, r5, r6, r7, r8, pc}
   160e8:	e3520004 	cmp	r2, #4
   160ec:	0a000008 	beq	16114 <USBConfigurationParser+0x104>
   160f0:	e3520005 	cmp	r2, #5
   160f4:	0a000010 	beq	1613c <USBConfigurationParser+0x12c>
   160f8:	e3520002 	cmp	r2, #2
   160fc:	11a0c007 	movne	ip, r7
   16100:	1a000016 	bne	16160 <USBConfigurationParser+0x150>
   16104:	e35c0000 	cmp	ip, #0
   16108:	0a000013 	beq	1615c <USBConfigurationParser+0x14c>
   1610c:	e5843014 	str	r3, [r4, #20]
   16110:	e8bd81f0 	pop	{r4, r5, r6, r7, r8, pc}
   16114:	e35c0000 	cmp	ip, #0
   16118:	1a000001 	bne	16124 <USBConfigurationParser+0x114>
   1611c:	e5843014 	str	r3, [r4, #20]
   16120:	e8bd81f0 	pop	{r4, r5, r6, r7, r8, pc}
   16124:	e5d35005 	ldrb	r5, [r3, #5]
   16128:	e3550001 	cmp	r5, #1
   1612c:	13a05000 	movne	r5, #0
   16130:	03a05001 	moveq	r5, #1
   16134:	e1a0c006 	mov	ip, r6
   16138:	ea000008 	b	16160 <USBConfigurationParser+0x150>
   1613c:	e31c00fd 	tst	ip, #253	; 0xfd
   16140:	1a000001 	bne	1614c <USBConfigurationParser+0x13c>
   16144:	e5843014 	str	r3, [r4, #20]
   16148:	e8bd81f0 	pop	{r4, r5, r6, r7, r8, pc}
   1614c:	e3550000 	cmp	r5, #0
   16150:	13a0c009 	movne	ip, #9
   16154:	03a0c007 	moveq	ip, #7
   16158:	ea000000 	b	16160 <USBConfigurationParser+0x150>
   1615c:	e1a0c006 	mov	ip, r6
   16160:	e35c0000 	cmp	ip, #0
   16164:	115c0001 	cmpne	ip, r1
   16168:	0a000001 	beq	16174 <USBConfigurationParser+0x164>
   1616c:	e5843014 	str	r3, [r4, #20]
   16170:	e8bd81f0 	pop	{r4, r5, r6, r7, r8, pc}
   16174:	e1a0c002 	mov	ip, r2
   16178:	e1a03000 	mov	r3, r0
   1617c:	e2832002 	add	r2, r3, #2
   16180:	e15e0002 	cmp	lr, r2
   16184:	8affffd0 	bhi	160cc <USBConfigurationParser+0xbc>
   16188:	e153000e 	cmp	r3, lr
   1618c:	15843014 	strne	r3, [r4, #20]
   16190:	03a03001 	moveq	r3, #1
   16194:	05843008 	streq	r3, [r4, #8]
   16198:	e8bd81f0 	pop	{r4, r5, r6, r7, r8, pc}
   1619c:	0001cc44 	.word	0x0001cc44
   161a0:	0001b4d8 	.word	0x0001b4d8
   161a4:	0001cc58 	.word	0x0001cc58

000161a8 <_USBConfigurationParser>:
   161a8:	e92d4010 	push	{r4, lr}
   161ac:	e2504000 	subs	r4, r0, #0
   161b0:	1a000003 	bne	161c4 <_USBConfigurationParser+0x1c>
   161b4:	e3a02081 	mov	r2, #129	; 0x81
   161b8:	e59f1010 	ldr	r1, [pc, #16]	; 161d0 <_USBConfigurationParser+0x28>
   161bc:	e59f0010 	ldr	r0, [pc, #16]	; 161d4 <_USBConfigurationParser+0x2c>
   161c0:	eb000db1 	bl	1988c <uspi_assertion_failed>
   161c4:	e3a03000 	mov	r3, #0
   161c8:	e5843000 	str	r3, [r4]
   161cc:	e8bd8010 	pop	{r4, pc}
   161d0:	0001cc44 	.word	0x0001cc44
   161d4:	0001b4d8 	.word	0x0001b4d8

000161d8 <USBConfigurationParserIsValid>:
   161d8:	e92d4010 	push	{r4, lr}
   161dc:	e2504000 	subs	r4, r0, #0
   161e0:	1a000003 	bne	161f4 <USBConfigurationParserIsValid+0x1c>
   161e4:	e3a02087 	mov	r2, #135	; 0x87
   161e8:	e59f100c 	ldr	r1, [pc, #12]	; 161fc <USBConfigurationParserIsValid+0x24>
   161ec:	e59f000c 	ldr	r0, [pc, #12]	; 16200 <USBConfigurationParserIsValid+0x28>
   161f0:	eb000da5 	bl	1988c <uspi_assertion_failed>
   161f4:	e5940008 	ldr	r0, [r4, #8]
   161f8:	e8bd8010 	pop	{r4, pc}
   161fc:	0001cc44 	.word	0x0001cc44
   16200:	0001b4d8 	.word	0x0001b4d8

00016204 <USBConfigurationParserGetDescriptor>:
   16204:	e92d47f0 	push	{r4, r5, r6, r7, r8, r9, sl, lr}
   16208:	e1a07001 	mov	r7, r1
   1620c:	e2506000 	subs	r6, r0, #0
   16210:	1a000003 	bne	16224 <USBConfigurationParserGetDescriptor+0x20>
   16214:	e3a0208d 	mov	r2, #141	; 0x8d
   16218:	e59f10b0 	ldr	r1, [pc, #176]	; 162d0 <USBConfigurationParserGetDescriptor+0xcc>
   1621c:	e59f00b0 	ldr	r0, [pc, #176]	; 162d4 <USBConfigurationParserGetDescriptor+0xd0>
   16220:	eb000d99 	bl	1988c <uspi_assertion_failed>
   16224:	e5963008 	ldr	r3, [r6, #8]
   16228:	e3530000 	cmp	r3, #0
   1622c:	1a000003 	bne	16240 <USBConfigurationParserGetDescriptor+0x3c>
   16230:	e3a0208e 	mov	r2, #142	; 0x8e
   16234:	e59f1094 	ldr	r1, [pc, #148]	; 162d0 <USBConfigurationParserGetDescriptor+0xcc>
   16238:	e59f0098 	ldr	r0, [pc, #152]	; 162d8 <USBConfigurationParserGetDescriptor+0xd4>
   1623c:	eb000d92 	bl	1988c <uspi_assertion_failed>
   16240:	e5963010 	ldr	r3, [r6, #16]
   16244:	e596200c 	ldr	r2, [r6, #12]
   16248:	e1530002 	cmp	r3, r2
   1624c:	2a00001d 	bcs	162c8 <USBConfigurationParserGetDescriptor+0xc4>
   16250:	e59fa078 	ldr	sl, [pc, #120]	; 162d0 <USBConfigurationParserGetDescriptor+0xcc>
   16254:	e59f9080 	ldr	r9, [pc, #128]	; 162dc <USBConfigurationParserGetDescriptor+0xd8>
   16258:	e3a08098 	mov	r8, #152	; 0x98
   1625c:	e5d35001 	ldrb	r5, [r3, #1]
   16260:	e5d34000 	ldrb	r4, [r3]
   16264:	e0834004 	add	r4, r3, r4
   16268:	e1540002 	cmp	r4, r2
   1626c:	9a000003 	bls	16280 <USBConfigurationParserGetDescriptor+0x7c>
   16270:	e1a02008 	mov	r2, r8
   16274:	e1a0100a 	mov	r1, sl
   16278:	e1a00009 	mov	r0, r9
   1627c:	eb000d82 	bl	1988c <uspi_assertion_failed>
   16280:	e3570005 	cmp	r7, #5
   16284:	03550004 	cmpeq	r5, #4
   16288:	0a00000e 	beq	162c8 <USBConfigurationParserGetDescriptor+0xc4>
   1628c:	e1550007 	cmp	r5, r7
   16290:	1a000004 	bne	162a8 <USBConfigurationParserGetDescriptor+0xa4>
   16294:	e5960010 	ldr	r0, [r6, #16]
   16298:	e5864010 	str	r4, [r6, #16]
   1629c:	e3500000 	cmp	r0, #0
   162a0:	1a000006 	bne	162c0 <USBConfigurationParserGetDescriptor+0xbc>
   162a4:	e8bd87f0 	pop	{r4, r5, r6, r7, r8, r9, sl, pc}
   162a8:	e5864010 	str	r4, [r6, #16]
   162ac:	e596200c 	ldr	r2, [r6, #12]
   162b0:	e1a03004 	mov	r3, r4
   162b4:	e1520004 	cmp	r2, r4
   162b8:	8affffe7 	bhi	1625c <USBConfigurationParserGetDescriptor+0x58>
   162bc:	ea000001 	b	162c8 <USBConfigurationParserGetDescriptor+0xc4>
   162c0:	e5860014 	str	r0, [r6, #20]
   162c4:	e8bd87f0 	pop	{r4, r5, r6, r7, r8, r9, sl, pc}
   162c8:	e3a00000 	mov	r0, #0
   162cc:	e8bd87f0 	pop	{r4, r5, r6, r7, r8, r9, sl, pc}
   162d0:	0001cc44 	.word	0x0001cc44
   162d4:	0001b4d8 	.word	0x0001b4d8
   162d8:	0001ba60 	.word	0x0001ba60
   162dc:	0001cc70 	.word	0x0001cc70

000162e0 <USBConfigurationParserError>:
   162e0:	e92d4070 	push	{r4, r5, r6, lr}
   162e4:	e1a05001 	mov	r5, r1
   162e8:	e2504000 	subs	r4, r0, #0
   162ec:	1a000003 	bne	16300 <USBConfigurationParserError+0x20>
   162f0:	e3a020b5 	mov	r2, #181	; 0xb5
   162f4:	e59f104c 	ldr	r1, [pc, #76]	; 16348 <USBConfigurationParserError+0x68>
   162f8:	e59f004c 	ldr	r0, [pc, #76]	; 1634c <USBConfigurationParserError+0x6c>
   162fc:	eb000d62 	bl	1988c <uspi_assertion_failed>
   16300:	e3550000 	cmp	r5, #0
   16304:	1a000003 	bne	16318 <USBConfigurationParserError+0x38>
   16308:	e3a020b6 	mov	r2, #182	; 0xb6
   1630c:	e59f1034 	ldr	r1, [pc, #52]	; 16348 <USBConfigurationParserError+0x68>
   16310:	e59f0038 	ldr	r0, [pc, #56]	; 16350 <USBConfigurationParserError+0x70>
   16314:	eb000d5c 	bl	1988c <uspi_assertion_failed>
   16318:	e5942014 	ldr	r2, [r4, #20]
   1631c:	e5943000 	ldr	r3, [r4]
   16320:	e0633002 	rsb	r3, r3, r2
   16324:	e59f2028 	ldr	r2, [pc, #40]	; 16354 <USBConfigurationParserError+0x74>
   16328:	e3a01001 	mov	r1, #1
   1632c:	e1a00005 	mov	r0, r5
   16330:	eb000d43 	bl	19844 <LogWrite>
   16334:	e1a02005 	mov	r2, r5
   16338:	e5941004 	ldr	r1, [r4, #4]
   1633c:	e5940000 	ldr	r0, [r4]
   16340:	eb000d54 	bl	19898 <DebugHexdump>
   16344:	e8bd8070 	pop	{r4, r5, r6, pc}
   16348:	0001cc44 	.word	0x0001cc44
   1634c:	0001b4d8 	.word	0x0001b4d8
   16350:	0001cc94 	.word	0x0001cc94
   16354:	0001cca4 	.word	0x0001cca4

00016358 <GetDevice>:
   16358:	e92d4070 	push	{r4, r5, r6, lr}
   1635c:	e1a04001 	mov	r4, r1
   16360:	e2506000 	subs	r6, r0, #0
   16364:	1a000003 	bne	16378 <GetDevice+0x20>
   16368:	e3a02036 	mov	r2, #54	; 0x36
   1636c:	e59f1238 	ldr	r1, [pc, #568]	; 165ac <GetDevice+0x254>
   16370:	e59f0238 	ldr	r0, [pc, #568]	; 165b0 <GetDevice+0x258>
   16374:	eb000d44 	bl	1988c <uspi_assertion_failed>
   16378:	e3540000 	cmp	r4, #0
   1637c:	1a000003 	bne	16390 <GetDevice+0x38>
   16380:	e3a02037 	mov	r2, #55	; 0x37
   16384:	e59f1220 	ldr	r1, [pc, #544]	; 165ac <GetDevice+0x254>
   16388:	e59f0224 	ldr	r0, [pc, #548]	; 165b4 <GetDevice+0x25c>
   1638c:	eb000d3e 	bl	1988c <uspi_assertion_failed>
   16390:	e59f1220 	ldr	r1, [pc, #544]	; 165b8 <GetDevice+0x260>
   16394:	e1a00004 	mov	r0, r4
   16398:	ebffeb76 	bl	11178 <StringCompare>
   1639c:	e3500000 	cmp	r0, #0
   163a0:	1a00000b 	bne	163d4 <GetDevice+0x7c>
   163a4:	e3a00080 	mov	r0, #128	; 0x80
   163a8:	eb000510 	bl	177f0 <malloc>
   163ac:	e2505000 	subs	r5, r0, #0
   163b0:	1a000003 	bne	163c4 <GetDevice+0x6c>
   163b4:	e3a0203e 	mov	r2, #62	; 0x3e
   163b8:	e59f11ec 	ldr	r1, [pc, #492]	; 165ac <GetDevice+0x254>
   163bc:	e59f01f8 	ldr	r0, [pc, #504]	; 165bc <GetDevice+0x264>
   163c0:	eb000d31 	bl	1988c <uspi_assertion_failed>
   163c4:	e1a01006 	mov	r1, r6
   163c8:	e1a00005 	mov	r0, r5
   163cc:	eb0000a6 	bl	1666c <USBStandardHub>
   163d0:	ea000065 	b	1656c <GetDevice+0x214>
   163d4:	e59f11e4 	ldr	r1, [pc, #484]	; 165c0 <GetDevice+0x268>
   163d8:	e1a00004 	mov	r0, r4
   163dc:	ebffeb65 	bl	11178 <StringCompare>
   163e0:	e3500000 	cmp	r0, #0
   163e4:	1a00000b 	bne	16418 <GetDevice+0xc0>
   163e8:	e3a00050 	mov	r0, #80	; 0x50
   163ec:	eb0004ff 	bl	177f0 <malloc>
   163f0:	e2505000 	subs	r5, r0, #0
   163f4:	1a000003 	bne	16408 <GetDevice+0xb0>
   163f8:	e3a02045 	mov	r2, #69	; 0x45
   163fc:	e59f11a8 	ldr	r1, [pc, #424]	; 165ac <GetDevice+0x254>
   16400:	e59f01b4 	ldr	r0, [pc, #436]	; 165bc <GetDevice+0x264>
   16404:	eb000d20 	bl	1988c <uspi_assertion_failed>
   16408:	e1a01006 	mov	r1, r6
   1640c:	e1a00005 	mov	r0, r5
   16410:	ebffee0c 	bl	11c48 <USBBulkOnlyMassStorageDevice>
   16414:	ea000054 	b	1656c <GetDevice+0x214>
   16418:	e59f11a4 	ldr	r1, [pc, #420]	; 165c4 <GetDevice+0x26c>
   1641c:	e1a00004 	mov	r0, r4
   16420:	ebffeb54 	bl	11178 <StringCompare>
   16424:	e3500000 	cmp	r0, #0
   16428:	1a00000b 	bne	1645c <GetDevice+0x104>
   1642c:	e59f0194 	ldr	r0, [pc, #404]	; 165c8 <GetDevice+0x270>
   16430:	eb0004ee 	bl	177f0 <malloc>
   16434:	e2505000 	subs	r5, r0, #0
   16438:	1a000003 	bne	1644c <GetDevice+0xf4>
   1643c:	e3a0204c 	mov	r2, #76	; 0x4c
   16440:	e59f1164 	ldr	r1, [pc, #356]	; 165ac <GetDevice+0x254>
   16444:	e59f0170 	ldr	r0, [pc, #368]	; 165bc <GetDevice+0x264>
   16448:	eb000d0f 	bl	1988c <uspi_assertion_failed>
   1644c:	e1a01006 	mov	r1, r6
   16450:	e1a00005 	mov	r0, r5
   16454:	ebfff49b 	bl	136c8 <USBKeyboardDevice>
   16458:	ea000043 	b	1656c <GetDevice+0x214>
   1645c:	e59f1168 	ldr	r1, [pc, #360]	; 165cc <GetDevice+0x274>
   16460:	e1a00004 	mov	r0, r4
   16464:	ebffeb43 	bl	11178 <StringCompare>
   16468:	e3500000 	cmp	r0, #0
   1646c:	1a00000b 	bne	164a0 <GetDevice+0x148>
   16470:	e3a0004c 	mov	r0, #76	; 0x4c
   16474:	eb0004dd 	bl	177f0 <malloc>
   16478:	e2505000 	subs	r5, r0, #0
   1647c:	1a000003 	bne	16490 <GetDevice+0x138>
   16480:	e3a02053 	mov	r2, #83	; 0x53
   16484:	e59f1120 	ldr	r1, [pc, #288]	; 165ac <GetDevice+0x254>
   16488:	e59f012c 	ldr	r0, [pc, #300]	; 165bc <GetDevice+0x264>
   1648c:	eb000cfe 	bl	1988c <uspi_assertion_failed>
   16490:	e1a01006 	mov	r1, r6
   16494:	e1a00005 	mov	r0, r5
   16498:	ebfff713 	bl	140ec <USBMouseDevice>
   1649c:	ea000032 	b	1656c <GetDevice+0x214>
   164a0:	e59f1128 	ldr	r1, [pc, #296]	; 165d0 <GetDevice+0x278>
   164a4:	e1a00004 	mov	r0, r4
   164a8:	ebffeb32 	bl	11178 <StringCompare>
   164ac:	e3500000 	cmp	r0, #0
   164b0:	1a00000b 	bne	164e4 <GetDevice+0x18c>
   164b4:	e3a00050 	mov	r0, #80	; 0x50
   164b8:	eb0004cc 	bl	177f0 <malloc>
   164bc:	e2505000 	subs	r5, r0, #0
   164c0:	1a000003 	bne	164d4 <GetDevice+0x17c>
   164c4:	e3a0205a 	mov	r2, #90	; 0x5a
   164c8:	e59f10dc 	ldr	r1, [pc, #220]	; 165ac <GetDevice+0x254>
   164cc:	e59f00e8 	ldr	r0, [pc, #232]	; 165bc <GetDevice+0x264>
   164d0:	eb000ced 	bl	1988c <uspi_assertion_failed>
   164d4:	e1a01006 	mov	r1, r6
   164d8:	e1a00005 	mov	r0, r5
   164dc:	ebffe7bd 	bl	103d8 <SMSC951xDevice>
   164e0:	ea000021 	b	1656c <GetDevice+0x214>
   164e4:	e59f10e8 	ldr	r1, [pc, #232]	; 165d4 <GetDevice+0x27c>
   164e8:	e1a00004 	mov	r0, r4
   164ec:	ebffeb21 	bl	11178 <StringCompare>
   164f0:	e3500000 	cmp	r0, #0
   164f4:	1a00000b 	bne	16528 <GetDevice+0x1d0>
   164f8:	e3a000d0 	mov	r0, #208	; 0xd0
   164fc:	eb0004bb 	bl	177f0 <malloc>
   16500:	e2505000 	subs	r5, r0, #0
   16504:	1a000003 	bne	16518 <GetDevice+0x1c0>
   16508:	e3a02061 	mov	r2, #97	; 0x61
   1650c:	e59f1098 	ldr	r1, [pc, #152]	; 165ac <GetDevice+0x254>
   16510:	e59f00a4 	ldr	r0, [pc, #164]	; 165bc <GetDevice+0x264>
   16514:	eb000cdc 	bl	1988c <uspi_assertion_failed>
   16518:	e1a01006 	mov	r1, r6
   1651c:	e1a00005 	mov	r0, r5
   16520:	ebfffaba 	bl	15010 <USBGamePadDevice>
   16524:	ea000010 	b	1656c <GetDevice+0x214>
   16528:	e59f10a8 	ldr	r1, [pc, #168]	; 165d8 <GetDevice+0x280>
   1652c:	e1a00004 	mov	r0, r4
   16530:	ebffeb10 	bl	11178 <StringCompare>
   16534:	e3500000 	cmp	r0, #0
   16538:	13a05000 	movne	r5, #0
   1653c:	1a000014 	bne	16594 <GetDevice+0x23c>
   16540:	e3a0004c 	mov	r0, #76	; 0x4c
   16544:	eb0004a9 	bl	177f0 <malloc>
   16548:	e2505000 	subs	r5, r0, #0
   1654c:	1a000003 	bne	16560 <GetDevice+0x208>
   16550:	e3a02068 	mov	r2, #104	; 0x68
   16554:	e59f1050 	ldr	r1, [pc, #80]	; 165ac <GetDevice+0x254>
   16558:	e59f005c 	ldr	r0, [pc, #92]	; 165bc <GetDevice+0x264>
   1655c:	eb000cca 	bl	1988c <uspi_assertion_failed>
   16560:	e1a01006 	mov	r1, r6
   16564:	e1a00005 	mov	r0, r5
   16568:	ebfffe65 	bl	15f04 <USBMIDIDevice>
   1656c:	e3550000 	cmp	r5, #0
   16570:	0a000007 	beq	16594 <GetDevice+0x23c>
   16574:	e1a00004 	mov	r0, r4
   16578:	ebffea9f 	bl	10ffc <StringGet>
   1657c:	e1a03000 	mov	r3, r0
   16580:	e59f2054 	ldr	r2, [pc, #84]	; 165dc <GetDevice+0x284>
   16584:	e3a01003 	mov	r1, #3
   16588:	e59f0050 	ldr	r0, [pc, #80]	; 165e0 <GetDevice+0x288>
   1658c:	eb000cac 	bl	19844 <LogWrite>
   16590:	eaffffff 	b	16594 <GetDevice+0x23c>
   16594:	e1a00004 	mov	r0, r4
   16598:	ebffea87 	bl	10fbc <_String>
   1659c:	e1a00004 	mov	r0, r4
   165a0:	eb0004fb 	bl	17994 <free>
   165a4:	e1a00005 	mov	r0, r5
   165a8:	e8bd8070 	pop	{r4, r5, r6, pc}
   165ac:	0001ccd4 	.word	0x0001ccd4
   165b0:	0001cb04 	.word	0x0001cb04
   165b4:	0001c220 	.word	0x0001c220
   165b8:	0001cce8 	.word	0x0001cce8
   165bc:	0001bd34 	.word	0x0001bd34
   165c0:	0001ccf4 	.word	0x0001ccf4
   165c4:	0001cd00 	.word	0x0001cd00
   165c8:	0000046c 	.word	0x0000046c
   165cc:	0001cd0c 	.word	0x0001cd0c
   165d0:	0001cd18 	.word	0x0001cd18
   165d4:	0001cd24 	.word	0x0001cd24
   165d8:	0001cd30 	.word	0x0001cd30
   165dc:	0001cd3c 	.word	0x0001cd3c
   165e0:	0001cd4c 	.word	0x0001cd4c

000165e4 <USBDeviceFactoryGetDevice>:
   165e4:	e92d4010 	push	{r4, lr}
   165e8:	e2504000 	subs	r4, r0, #0
   165ec:	1a000003 	bne	16600 <USBDeviceFactoryGetDevice+0x1c>
   165f0:	e3a02025 	mov	r2, #37	; 0x25
   165f4:	e59f1068 	ldr	r1, [pc, #104]	; 16664 <USBDeviceFactoryGetDevice+0x80>
   165f8:	e59f0068 	ldr	r0, [pc, #104]	; 16668 <USBDeviceFactoryGetDevice+0x84>
   165fc:	eb000ca2 	bl	1988c <uspi_assertion_failed>
   16600:	e3a01000 	mov	r1, #0
   16604:	e1a00004 	mov	r0, r4
   16608:	ebffe0fb 	bl	e9fc <USBDeviceGetName>
   1660c:	e1a01000 	mov	r1, r0
   16610:	e1a00004 	mov	r0, r4
   16614:	ebffff4f 	bl	16358 <GetDevice>
   16618:	e3500000 	cmp	r0, #0
   1661c:	18bd8010 	popne	{r4, pc}
   16620:	e3a01001 	mov	r1, #1
   16624:	e1a00004 	mov	r0, r4
   16628:	ebffe0f3 	bl	e9fc <USBDeviceGetName>
   1662c:	e1a01000 	mov	r1, r0
   16630:	e1a00004 	mov	r0, r4
   16634:	ebffff47 	bl	16358 <GetDevice>
   16638:	e3500000 	cmp	r0, #0
   1663c:	18bd8010 	popne	{r4, pc}
   16640:	e3a01002 	mov	r1, #2
   16644:	e1a00004 	mov	r0, r4
   16648:	ebffe0eb 	bl	e9fc <USBDeviceGetName>
   1664c:	e1a01000 	mov	r1, r0
   16650:	e1a00004 	mov	r0, r4
   16654:	ebffff3f 	bl	16358 <GetDevice>
   16658:	e3500000 	cmp	r0, #0
   1665c:	03a00000 	moveq	r0, #0
   16660:	e8bd8010 	pop	{r4, pc}
   16664:	0001ccd4 	.word	0x0001ccd4
   16668:	0001cb04 	.word	0x0001cb04

0001666c <USBStandardHub>:
   1666c:	e92d4070 	push	{r4, r5, r6, lr}
   16670:	e1a05001 	mov	r5, r1
   16674:	e2504000 	subs	r4, r0, #0
   16678:	1a000003 	bne	1668c <USBStandardHub+0x20>
   1667c:	e3a02020 	mov	r2, #32
   16680:	e59f1044 	ldr	r1, [pc, #68]	; 166cc <USBStandardHub+0x60>
   16684:	e59f0044 	ldr	r0, [pc, #68]	; 166d0 <USBStandardHub+0x64>
   16688:	eb000c7f 	bl	1988c <uspi_assertion_failed>
   1668c:	e1a01005 	mov	r1, r5
   16690:	e1a00004 	mov	r0, r4
   16694:	ebffe037 	bl	e778 <USBDeviceCopy>
   16698:	e59f3034 	ldr	r3, [pc, #52]	; 166d4 <USBStandardHub+0x68>
   1669c:	e5843000 	str	r3, [r4]
   166a0:	e3a02000 	mov	r2, #0
   166a4:	e5842038 	str	r2, [r4, #56]	; 0x38
   166a8:	e1a03004 	mov	r3, r4
   166ac:	e5a3203c 	str	r2, [r3, #60]!	; 0x3c
   166b0:	e284005c 	add	r0, r4, #92	; 0x5c
   166b4:	e1a01000 	mov	r1, r0
   166b8:	e5a32004 	str	r2, [r3, #4]!
   166bc:	e5a12004 	str	r2, [r1, #4]!
   166c0:	e1530000 	cmp	r3, r0
   166c4:	1afffffb 	bne	166b8 <USBStandardHub+0x4c>
   166c8:	e8bd8070 	pop	{r4, r5, r6, pc}
   166cc:	0001cd5c 	.word	0x0001cd5c
   166d0:	0001b4d8 	.word	0x0001b4d8
   166d4:	0001702c 	.word	0x0001702c

000166d8 <_USBStandardHub>:
   166d8:	e92d41f0 	push	{r4, r5, r6, r7, r8, lr}
   166dc:	e2507000 	subs	r7, r0, #0
   166e0:	1a000003 	bne	166f4 <_USBStandardHub+0x1c>
   166e4:	e3a02031 	mov	r2, #49	; 0x31
   166e8:	e59f108c 	ldr	r1, [pc, #140]	; 1677c <_USBStandardHub+0xa4>
   166ec:	e59f008c 	ldr	r0, [pc, #140]	; 16780 <_USBStandardHub+0xa8>
   166f0:	eb000c65 	bl	1988c <uspi_assertion_failed>
   166f4:	e597303c 	ldr	r3, [r7, #60]	; 0x3c
   166f8:	e3530000 	cmp	r3, #0
   166fc:	0a000013 	beq	16750 <_USBStandardHub+0x78>
   16700:	e287605c 	add	r6, r7, #92	; 0x5c
   16704:	e287403c 	add	r4, r7, #60	; 0x3c
   16708:	e3a05000 	mov	r5, #0
   1670c:	e1a08005 	mov	r8, r5
   16710:	e5b60004 	ldr	r0, [r6, #4]!
   16714:	e3500000 	cmp	r0, #0
   16718:	0a000001 	beq	16724 <_USBStandardHub+0x4c>
   1671c:	eb00049c 	bl	17994 <free>
   16720:	e5868000 	str	r8, [r6]
   16724:	e5b40004 	ldr	r0, [r4, #4]!
   16728:	e3500000 	cmp	r0, #0
   1672c:	0a000003 	beq	16740 <_USBStandardHub+0x68>
   16730:	ebffe084 	bl	e948 <_USBDevice>
   16734:	e5940000 	ldr	r0, [r4]
   16738:	eb000495 	bl	17994 <free>
   1673c:	e5848000 	str	r8, [r4]
   16740:	e2855001 	add	r5, r5, #1
   16744:	e597303c 	ldr	r3, [r7, #60]	; 0x3c
   16748:	e1530005 	cmp	r3, r5
   1674c:	8affffef 	bhi	16710 <_USBStandardHub+0x38>
   16750:	e3a03000 	mov	r3, #0
   16754:	e587303c 	str	r3, [r7, #60]	; 0x3c
   16758:	e5970038 	ldr	r0, [r7, #56]	; 0x38
   1675c:	e1500003 	cmp	r0, r3
   16760:	0a000002 	beq	16770 <_USBStandardHub+0x98>
   16764:	eb00048a 	bl	17994 <free>
   16768:	e3a03000 	mov	r3, #0
   1676c:	e5873038 	str	r3, [r7, #56]	; 0x38
   16770:	e1a00007 	mov	r0, r7
   16774:	ebffe073 	bl	e948 <_USBDevice>
   16778:	e8bd81f0 	pop	{r4, r5, r6, r7, r8, pc}
   1677c:	0001cd5c 	.word	0x0001cd5c
   16780:	0001b4d8 	.word	0x0001b4d8

00016784 <USBStandardHubInitialize>:
   16784:	e92d4010 	push	{r4, lr}
   16788:	e2504000 	subs	r4, r0, #0
   1678c:	1a000003 	bne	167a0 <USBStandardHubInitialize+0x1c>
   16790:	e3a02050 	mov	r2, #80	; 0x50
   16794:	e59f1010 	ldr	r1, [pc, #16]	; 167ac <USBStandardHubInitialize+0x28>
   16798:	e59f0010 	ldr	r0, [pc, #16]	; 167b0 <USBStandardHubInitialize+0x2c>
   1679c:	eb000c3a 	bl	1988c <uspi_assertion_failed>
   167a0:	e1a00004 	mov	r0, r4
   167a4:	ebffe1ca 	bl	eed4 <USBDeviceInitialize>
   167a8:	e8bd8010 	pop	{r4, pc}
   167ac:	0001cd5c 	.word	0x0001cd5c
   167b0:	0001b4d8 	.word	0x0001b4d8

000167b4 <USBStandardHubGetDeviceNames>:
   167b4:	e92d4ff8 	push	{r3, r4, r5, r6, r7, r8, r9, sl, fp, lr}
   167b8:	e2508000 	subs	r8, r0, #0
   167bc:	1a000003 	bne	167d0 <USBStandardHubGetDeviceNames+0x1c>
   167c0:	e59f20ec 	ldr	r2, [pc, #236]	; 168b4 <USBStandardHubGetDeviceNames+0x100>
   167c4:	e59f10ec 	ldr	r1, [pc, #236]	; 168b8 <USBStandardHubGetDeviceNames+0x104>
   167c8:	e59f00ec 	ldr	r0, [pc, #236]	; 168bc <USBStandardHubGetDeviceNames+0x108>
   167cc:	eb000c2e 	bl	1988c <uspi_assertion_failed>
   167d0:	e3a0000c 	mov	r0, #12
   167d4:	eb000405 	bl	177f0 <malloc>
   167d8:	e2506000 	subs	r6, r0, #0
   167dc:	1a000003 	bne	167f0 <USBStandardHubGetDeviceNames+0x3c>
   167e0:	e59f20d8 	ldr	r2, [pc, #216]	; 168c0 <USBStandardHubGetDeviceNames+0x10c>
   167e4:	e59f10cc 	ldr	r1, [pc, #204]	; 168b8 <USBStandardHubGetDeviceNames+0x104>
   167e8:	e59f00d4 	ldr	r0, [pc, #212]	; 168c4 <USBStandardHubGetDeviceNames+0x110>
   167ec:	eb000c26 	bl	1988c <uspi_assertion_failed>
   167f0:	e1a00006 	mov	r0, r6
   167f4:	ebffe9d0 	bl	10f3c <String>
   167f8:	e3a04000 	mov	r4, #0
   167fc:	e59fb0c4 	ldr	fp, [pc, #196]	; 168c8 <USBStandardHubGetDeviceNames+0x114>
   16800:	e59fa0b0 	ldr	sl, [pc, #176]	; 168b8 <USBStandardHubGetDeviceNames+0x104>
   16804:	e59f70c0 	ldr	r7, [pc, #192]	; 168cc <USBStandardHubGetDeviceNames+0x118>
   16808:	e59f90c0 	ldr	r9, [pc, #192]	; 168d0 <USBStandardHubGetDeviceNames+0x11c>
   1680c:	e6ef1074 	uxtb	r1, r4
   16810:	e1a00008 	mov	r0, r8
   16814:	ebffe078 	bl	e9fc <USBDeviceGetName>
   16818:	e2505000 	subs	r5, r0, #0
   1681c:	1a000003 	bne	16830 <USBStandardHubGetDeviceNames+0x7c>
   16820:	e1a0200b 	mov	r2, fp
   16824:	e1a0100a 	mov	r1, sl
   16828:	e59f00a4 	ldr	r0, [pc, #164]	; 168d4 <USBStandardHubGetDeviceNames+0x120>
   1682c:	eb000c16 	bl	1988c <uspi_assertion_failed>
   16830:	e1a01007 	mov	r1, r7
   16834:	e1a00005 	mov	r0, r5
   16838:	ebffea4e 	bl	11178 <StringCompare>
   1683c:	e3500000 	cmp	r0, #0
   16840:	0a00000b 	beq	16874 <USBStandardHubGetDeviceNames+0xc0>
   16844:	e1a00006 	mov	r0, r6
   16848:	ebffea12 	bl	11098 <StringGetLength>
   1684c:	e3500000 	cmp	r0, #0
   16850:	0a000002 	beq	16860 <USBStandardHubGetDeviceNames+0xac>
   16854:	e1a01009 	mov	r1, r9
   16858:	e1a00006 	mov	r0, r6
   1685c:	ebffea1d 	bl	110d8 <StringAppend>
   16860:	e1a00005 	mov	r0, r5
   16864:	ebffe9e4 	bl	10ffc <StringGet>
   16868:	e1a01000 	mov	r1, r0
   1686c:	e1a00006 	mov	r0, r6
   16870:	ebffea18 	bl	110d8 <StringAppend>
   16874:	e1a00005 	mov	r0, r5
   16878:	ebffe9cf 	bl	10fbc <_String>
   1687c:	e1a00005 	mov	r0, r5
   16880:	eb000443 	bl	17994 <free>
   16884:	e2844001 	add	r4, r4, #1
   16888:	e3540003 	cmp	r4, #3
   1688c:	1affffde 	bne	1680c <USBStandardHubGetDeviceNames+0x58>
   16890:	e1a00006 	mov	r0, r6
   16894:	ebffe9ff 	bl	11098 <StringGetLength>
   16898:	e3500000 	cmp	r0, #0
   1689c:	1a000002 	bne	168ac <USBStandardHubGetDeviceNames+0xf8>
   168a0:	e59f1024 	ldr	r1, [pc, #36]	; 168cc <USBStandardHubGetDeviceNames+0x118>
   168a4:	e1a00006 	mov	r0, r6
   168a8:	ebffe9e2 	bl	11038 <StringSet>
   168ac:	e1a00006 	mov	r0, r6
   168b0:	e8bd8ff8 	pop	{r3, r4, r5, r6, r7, r8, r9, sl, fp, pc}
   168b4:	000001ba 	.word	0x000001ba
   168b8:	0001cd5c 	.word	0x0001cd5c
   168bc:	0001bd34 	.word	0x0001bd34
   168c0:	000001bd 	.word	0x000001bd
   168c4:	0001cd70 	.word	0x0001cd70
   168c8:	000001c3 	.word	0x000001c3
   168cc:	0001be04 	.word	0x0001be04
   168d0:	0001cd80 	.word	0x0001cd80
   168d4:	0001c220 	.word	0x0001c220

000168d8 <USBStandardHubEnumeratePorts>:
   168d8:	e92d4ff0 	push	{r4, r5, r6, r7, r8, r9, sl, fp, lr}
   168dc:	e24dd01c 	sub	sp, sp, #28
   168e0:	e2506000 	subs	r6, r0, #0
   168e4:	1a000003 	bne	168f8 <USBStandardHubEnumeratePorts+0x20>
   168e8:	e3a020db 	mov	r2, #219	; 0xdb
   168ec:	e59f16c4 	ldr	r1, [pc, #1732]	; 16fb8 <USBStandardHubEnumeratePorts+0x6e0>
   168f0:	e59f06c4 	ldr	r0, [pc, #1732]	; 16fbc <USBStandardHubEnumeratePorts+0x6e4>
   168f4:	eb000be4 	bl	1988c <uspi_assertion_failed>
   168f8:	e58d6010 	str	r6, [sp, #16]
   168fc:	e1a00006 	mov	r0, r6
   16900:	ebffe0f2 	bl	ecd0 <USBDeviceGetHost>
   16904:	e2507000 	subs	r7, r0, #0
   16908:	1a000003 	bne	1691c <USBStandardHubEnumeratePorts+0x44>
   1690c:	e3a020de 	mov	r2, #222	; 0xde
   16910:	e59f16a0 	ldr	r1, [pc, #1696]	; 16fb8 <USBStandardHubEnumeratePorts+0x6e0>
   16914:	e59f06a4 	ldr	r0, [pc, #1700]	; 16fc0 <USBStandardHubEnumeratePorts+0x6e8>
   16918:	eb000bdb 	bl	1988c <uspi_assertion_failed>
   1691c:	e1a00006 	mov	r0, r6
   16920:	ebffe0d5 	bl	ec7c <USBDeviceGetEndpoint0>
   16924:	e250b000 	subs	fp, r0, #0
   16928:	1a000003 	bne	1693c <USBStandardHubEnumeratePorts+0x64>
   1692c:	e3a020e1 	mov	r2, #225	; 0xe1
   16930:	e59f1680 	ldr	r1, [pc, #1664]	; 16fb8 <USBStandardHubEnumeratePorts+0x6e0>
   16934:	e59f0688 	ldr	r0, [pc, #1672]	; 16fc4 <USBStandardHubEnumeratePorts+0x6ec>
   16938:	eb000bd3 	bl	1988c <uspi_assertion_failed>
   1693c:	e596303c 	ldr	r3, [r6, #60]	; 0x3c
   16940:	e3530000 	cmp	r3, #0
   16944:	1a000006 	bne	16964 <USBStandardHubEnumeratePorts+0x8c>
   16948:	e3a020e3 	mov	r2, #227	; 0xe3
   1694c:	e59f1664 	ldr	r1, [pc, #1636]	; 16fb8 <USBStandardHubEnumeratePorts+0x6e0>
   16950:	e59f0670 	ldr	r0, [pc, #1648]	; 16fc8 <USBStandardHubEnumeratePorts+0x6f0>
   16954:	eb000bcc 	bl	1988c <uspi_assertion_failed>
   16958:	e596303c 	ldr	r3, [r6, #60]	; 0x3c
   1695c:	e3530000 	cmp	r3, #0
   16960:	0a00001c 	beq	169d8 <USBStandardHubEnumeratePorts+0x100>
   16964:	e3a04000 	mov	r4, #0
   16968:	e1a05004 	mov	r5, r4
   1696c:	e3a0a008 	mov	sl, #8
   16970:	e3a09003 	mov	r9, #3
   16974:	e3a08023 	mov	r8, #35	; 0x23
   16978:	e58d500c 	str	r5, [sp, #12]
   1697c:	e58d5008 	str	r5, [sp, #8]
   16980:	e2843001 	add	r3, r4, #1
   16984:	e6ff3073 	uxth	r3, r3
   16988:	e58d3004 	str	r3, [sp, #4]
   1698c:	e58da000 	str	sl, [sp]
   16990:	e1a03009 	mov	r3, r9
   16994:	e1a02008 	mov	r2, r8
   16998:	e1a0100b 	mov	r1, fp
   1699c:	e1a00007 	mov	r0, r7
   169a0:	ebffd462 	bl	bb30 <DWHCIDeviceControlMessage>
   169a4:	e3500000 	cmp	r0, #0
   169a8:	aa000006 	bge	169c8 <USBStandardHubEnumeratePorts+0xf0>
   169ac:	e2843001 	add	r3, r4, #1
   169b0:	e59f2614 	ldr	r2, [pc, #1556]	; 16fcc <USBStandardHubEnumeratePorts+0x6f4>
   169b4:	e3a01001 	mov	r1, #1
   169b8:	e59f0610 	ldr	r0, [pc, #1552]	; 16fd0 <USBStandardHubEnumeratePorts+0x6f8>
   169bc:	eb000ba0 	bl	19844 <LogWrite>
   169c0:	e3a00000 	mov	r0, #0
   169c4:	ea000179 	b	16fb0 <USBStandardHubEnumeratePorts+0x6d8>
   169c8:	e2844001 	add	r4, r4, #1
   169cc:	e596303c 	ldr	r3, [r6, #60]	; 0x3c
   169d0:	e1530004 	cmp	r3, r4
   169d4:	8affffe7 	bhi	16978 <USBStandardHubEnumeratePorts+0xa0>
   169d8:	e59f05f4 	ldr	r0, [pc, #1524]	; 16fd4 <USBStandardHubEnumeratePorts+0x6fc>
   169dc:	eb000b33 	bl	196b0 <MsDelay>
   169e0:	e596303c 	ldr	r3, [r6, #60]	; 0x3c
   169e4:	e3530000 	cmp	r3, #0
   169e8:	0a0000f8 	beq	16dd0 <USBStandardHubEnumeratePorts+0x4f8>
   169ec:	e286505c 	add	r5, r6, #92	; 0x5c
   169f0:	e2868040 	add	r8, r6, #64	; 0x40
   169f4:	e3a04001 	mov	r4, #1
   169f8:	ea000000 	b	16a00 <USBStandardHubEnumeratePorts+0x128>
   169fc:	e1a04002 	mov	r4, r2
   16a00:	e2855004 	add	r5, r5, #4
   16a04:	e1a09005 	mov	r9, r5
   16a08:	e5953000 	ldr	r3, [r5]
   16a0c:	e3530000 	cmp	r3, #0
   16a10:	0a000003 	beq	16a24 <USBStandardHubEnumeratePorts+0x14c>
   16a14:	e3a020f9 	mov	r2, #249	; 0xf9
   16a18:	e59f1598 	ldr	r1, [pc, #1432]	; 16fb8 <USBStandardHubEnumeratePorts+0x6e0>
   16a1c:	e59f05b4 	ldr	r0, [pc, #1460]	; 16fd8 <USBStandardHubEnumeratePorts+0x700>
   16a20:	eb000b99 	bl	1988c <uspi_assertion_failed>
   16a24:	e3a00004 	mov	r0, #4
   16a28:	eb000370 	bl	177f0 <malloc>
   16a2c:	e5890000 	str	r0, [r9]
   16a30:	e3500000 	cmp	r0, #0
   16a34:	1a000003 	bne	16a48 <USBStandardHubEnumeratePorts+0x170>
   16a38:	e3a020fb 	mov	r2, #251	; 0xfb
   16a3c:	e59f1574 	ldr	r1, [pc, #1396]	; 16fb8 <USBStandardHubEnumeratePorts+0x6e0>
   16a40:	e59f0594 	ldr	r0, [pc, #1428]	; 16fdc <USBStandardHubEnumeratePorts+0x704>
   16a44:	eb000b90 	bl	1988c <uspi_assertion_failed>
   16a48:	e6ffa074 	uxth	sl, r4
   16a4c:	e3a03004 	mov	r3, #4
   16a50:	e58d300c 	str	r3, [sp, #12]
   16a54:	e5993000 	ldr	r3, [r9]
   16a58:	e58d3008 	str	r3, [sp, #8]
   16a5c:	e58da004 	str	sl, [sp, #4]
   16a60:	e3a03000 	mov	r3, #0
   16a64:	e58d3000 	str	r3, [sp]
   16a68:	e3a020a3 	mov	r2, #163	; 0xa3
   16a6c:	e1a0100b 	mov	r1, fp
   16a70:	e1a00007 	mov	r0, r7
   16a74:	ebffd42d 	bl	bb30 <DWHCIDeviceControlMessage>
   16a78:	e3500004 	cmp	r0, #4
   16a7c:	0a000005 	beq	16a98 <USBStandardHubEnumeratePorts+0x1c0>
   16a80:	e1a03004 	mov	r3, r4
   16a84:	e59f2554 	ldr	r2, [pc, #1364]	; 16fe0 <USBStandardHubEnumeratePorts+0x708>
   16a88:	e3a01001 	mov	r1, #1
   16a8c:	e59f053c 	ldr	r0, [pc, #1340]	; 16fd0 <USBStandardHubEnumeratePorts+0x6f8>
   16a90:	eb000b6b 	bl	19844 <LogWrite>
   16a94:	ea00009b 	b	16d08 <USBStandardHubEnumeratePorts+0x430>
   16a98:	e5993000 	ldr	r3, [r9]
   16a9c:	e5d33001 	ldrb	r3, [r3, #1]
   16aa0:	e1a03403 	lsl	r3, r3, #8
   16aa4:	e2033c01 	and	r3, r3, #256	; 0x100
   16aa8:	e6ff3073 	uxth	r3, r3
   16aac:	e3530000 	cmp	r3, #0
   16ab0:	1a000003 	bne	16ac4 <USBStandardHubEnumeratePorts+0x1ec>
   16ab4:	e59f2528 	ldr	r2, [pc, #1320]	; 16fe4 <USBStandardHubEnumeratePorts+0x70c>
   16ab8:	e59f14f8 	ldr	r1, [pc, #1272]	; 16fb8 <USBStandardHubEnumeratePorts+0x6e0>
   16abc:	e59f0524 	ldr	r0, [pc, #1316]	; 16fe8 <USBStandardHubEnumeratePorts+0x710>
   16ac0:	eb000b71 	bl	1988c <uspi_assertion_failed>
   16ac4:	e5993000 	ldr	r3, [r9]
   16ac8:	e5d33000 	ldrb	r3, [r3]
   16acc:	e3130001 	tst	r3, #1
   16ad0:	0a00008c 	beq	16d08 <USBStandardHubEnumeratePorts+0x430>
   16ad4:	e3a03000 	mov	r3, #0
   16ad8:	e58d300c 	str	r3, [sp, #12]
   16adc:	e58d3008 	str	r3, [sp, #8]
   16ae0:	e58da004 	str	sl, [sp, #4]
   16ae4:	e3a03004 	mov	r3, #4
   16ae8:	e58d3000 	str	r3, [sp]
   16aec:	e3a03003 	mov	r3, #3
   16af0:	e3a02023 	mov	r2, #35	; 0x23
   16af4:	e1a0100b 	mov	r1, fp
   16af8:	e1a00007 	mov	r0, r7
   16afc:	ebffd40b 	bl	bb30 <DWHCIDeviceControlMessage>
   16b00:	e3500000 	cmp	r0, #0
   16b04:	aa000005 	bge	16b20 <USBStandardHubEnumeratePorts+0x248>
   16b08:	e1a03004 	mov	r3, r4
   16b0c:	e59f24d8 	ldr	r2, [pc, #1240]	; 16fec <USBStandardHubEnumeratePorts+0x714>
   16b10:	e3a01001 	mov	r1, #1
   16b14:	e59f04b4 	ldr	r0, [pc, #1204]	; 16fd0 <USBStandardHubEnumeratePorts+0x6f8>
   16b18:	eb000b49 	bl	19844 <LogWrite>
   16b1c:	ea000079 	b	16d08 <USBStandardHubEnumeratePorts+0x430>
   16b20:	e3a00064 	mov	r0, #100	; 0x64
   16b24:	eb000ae1 	bl	196b0 <MsDelay>
   16b28:	e3a03004 	mov	r3, #4
   16b2c:	e58d300c 	str	r3, [sp, #12]
   16b30:	e5993000 	ldr	r3, [r9]
   16b34:	e58d3008 	str	r3, [sp, #8]
   16b38:	e58da004 	str	sl, [sp, #4]
   16b3c:	e3a03000 	mov	r3, #0
   16b40:	e58d3000 	str	r3, [sp]
   16b44:	e3a020a3 	mov	r2, #163	; 0xa3
   16b48:	e1a0100b 	mov	r1, fp
   16b4c:	e1a00007 	mov	r0, r7
   16b50:	ebffd3f6 	bl	bb30 <DWHCIDeviceControlMessage>
   16b54:	e3500004 	cmp	r0, #4
   16b58:	1a000111 	bne	16fa4 <USBStandardHubEnumeratePorts+0x6cc>
   16b5c:	e5992000 	ldr	r2, [r9]
   16b60:	e5d23000 	ldrb	r3, [r2]
   16b64:	e5d22001 	ldrb	r2, [r2, #1]
   16b68:	e1833402 	orr	r3, r3, r2, lsl #8
   16b6c:	e2032002 	and	r2, r3, #2
   16b70:	e6ff2072 	uxth	r2, r2
   16b74:	e3520000 	cmp	r2, #0
   16b78:	1a000005 	bne	16b94 <USBStandardHubEnumeratePorts+0x2bc>
   16b7c:	e1a03004 	mov	r3, r4
   16b80:	e59f2468 	ldr	r2, [pc, #1128]	; 16ff0 <USBStandardHubEnumeratePorts+0x718>
   16b84:	e3a01001 	mov	r1, #1
   16b88:	e59f0440 	ldr	r0, [pc, #1088]	; 16fd0 <USBStandardHubEnumeratePorts+0x6f8>
   16b8c:	eb000b2c 	bl	19844 <LogWrite>
   16b90:	ea00005c 	b	16d08 <USBStandardHubEnumeratePorts+0x430>
   16b94:	e2032008 	and	r2, r3, #8
   16b98:	e6ff2072 	uxth	r2, r2
   16b9c:	e3520000 	cmp	r2, #0
   16ba0:	0a000011 	beq	16bec <USBStandardHubEnumeratePorts+0x314>
   16ba4:	e3a05000 	mov	r5, #0
   16ba8:	e58d500c 	str	r5, [sp, #12]
   16bac:	e58d5008 	str	r5, [sp, #8]
   16bb0:	e58da004 	str	sl, [sp, #4]
   16bb4:	e3a03008 	mov	r3, #8
   16bb8:	e58d3000 	str	r3, [sp]
   16bbc:	e3a03001 	mov	r3, #1
   16bc0:	e3a02023 	mov	r2, #35	; 0x23
   16bc4:	e1a0100b 	mov	r1, fp
   16bc8:	e1a00007 	mov	r0, r7
   16bcc:	ebffd3d7 	bl	bb30 <DWHCIDeviceControlMessage>
   16bd0:	e1a03004 	mov	r3, r4
   16bd4:	e59f2418 	ldr	r2, [pc, #1048]	; 16ff4 <USBStandardHubEnumeratePorts+0x71c>
   16bd8:	e3a01001 	mov	r1, #1
   16bdc:	e59f03ec 	ldr	r0, [pc, #1004]	; 16fd0 <USBStandardHubEnumeratePorts+0x6f8>
   16be0:	eb000b17 	bl	19844 <LogWrite>
   16be4:	e1a00005 	mov	r0, r5
   16be8:	ea0000f0 	b	16fb0 <USBStandardHubEnumeratePorts+0x6d8>
   16bec:	e2032c02 	and	r2, r3, #512	; 0x200
   16bf0:	e6ff2072 	uxth	r2, r2
   16bf4:	e3520000 	cmp	r2, #0
   16bf8:	13a03000 	movne	r3, #0
   16bfc:	158d3014 	strne	r3, [sp, #20]
   16c00:	1a000006 	bne	16c20 <USBStandardHubEnumeratePorts+0x348>
   16c04:	e2039b01 	and	r9, r3, #1024	; 0x400
   16c08:	e6ff9079 	uxth	r9, r9
   16c0c:	e3590000 	cmp	r9, #0
   16c10:	13a03002 	movne	r3, #2
   16c14:	03a03001 	moveq	r3, #1
   16c18:	e58d3014 	str	r3, [sp, #20]
   16c1c:	eaffffff 	b	16c20 <USBStandardHubEnumeratePorts+0x348>
   16c20:	e1a0a008 	mov	sl, r8
   16c24:	e5983000 	ldr	r3, [r8]
   16c28:	e3530000 	cmp	r3, #0
   16c2c:	0a000003 	beq	16c40 <USBStandardHubEnumeratePorts+0x368>
   16c30:	e59f23c0 	ldr	r2, [pc, #960]	; 16ff8 <USBStandardHubEnumeratePorts+0x720>
   16c34:	e59f137c 	ldr	r1, [pc, #892]	; 16fb8 <USBStandardHubEnumeratePorts+0x6e0>
   16c38:	e59f03bc 	ldr	r0, [pc, #956]	; 16ffc <USBStandardHubEnumeratePorts+0x724>
   16c3c:	eb000b12 	bl	1988c <uspi_assertion_failed>
   16c40:	e3a00038 	mov	r0, #56	; 0x38
   16c44:	eb0002e9 	bl	177f0 <malloc>
   16c48:	e58a0000 	str	r0, [sl]
   16c4c:	e3500000 	cmp	r0, #0
   16c50:	1a000003 	bne	16c64 <USBStandardHubEnumeratePorts+0x38c>
   16c54:	e3a02f51 	mov	r2, #324	; 0x144
   16c58:	e59f1358 	ldr	r1, [pc, #856]	; 16fb8 <USBStandardHubEnumeratePorts+0x6e0>
   16c5c:	e59f039c 	ldr	r0, [pc, #924]	; 17000 <USBStandardHubEnumeratePorts+0x728>
   16c60:	eb000b09 	bl	1988c <uspi_assertion_failed>
   16c64:	e59a9000 	ldr	r9, [sl]
   16c68:	e59d0010 	ldr	r0, [sp, #16]
   16c6c:	ebffdfd2 	bl	ebbc <USBDeviceGetAddress>
   16c70:	e6ef3074 	uxtb	r3, r4
   16c74:	e58d3000 	str	r3, [sp]
   16c78:	e1a03000 	mov	r3, r0
   16c7c:	e59d2014 	ldr	r2, [sp, #20]
   16c80:	e1a01007 	mov	r1, r7
   16c84:	e1a00009 	mov	r0, r9
   16c88:	ebffde76 	bl	e668 <USBDevice>
   16c8c:	e59a0000 	ldr	r0, [sl]
   16c90:	ebffe08f 	bl	eed4 <USBDeviceInitialize>
   16c94:	e3500000 	cmp	r0, #0
   16c98:	1a000006 	bne	16cb8 <USBStandardHubEnumeratePorts+0x3e0>
   16c9c:	e59a0000 	ldr	r0, [sl]
   16ca0:	ebffdf28 	bl	e948 <_USBDevice>
   16ca4:	e59a0000 	ldr	r0, [sl]
   16ca8:	eb000339 	bl	17994 <free>
   16cac:	e3a03000 	mov	r3, #0
   16cb0:	e58a3000 	str	r3, [sl]
   16cb4:	ea000013 	b	16d08 <USBStandardHubEnumeratePorts+0x430>
   16cb8:	e59a0000 	ldr	r0, [sl]
   16cbc:	ebfffebc 	bl	167b4 <USBStandardHubGetDeviceNames>
   16cc0:	e2509000 	subs	r9, r0, #0
   16cc4:	1a000003 	bne	16cd8 <USBStandardHubEnumeratePorts+0x400>
   16cc8:	e59f2334 	ldr	r2, [pc, #820]	; 17004 <USBStandardHubEnumeratePorts+0x72c>
   16ccc:	e59f12e4 	ldr	r1, [pc, #740]	; 16fb8 <USBStandardHubEnumeratePorts+0x6e0>
   16cd0:	e59f0330 	ldr	r0, [pc, #816]	; 17008 <USBStandardHubEnumeratePorts+0x730>
   16cd4:	eb000aec 	bl	1988c <uspi_assertion_failed>
   16cd8:	e1a00009 	mov	r0, r9
   16cdc:	ebffe8c6 	bl	10ffc <StringGet>
   16ce0:	e58d0000 	str	r0, [sp]
   16ce4:	e1a03004 	mov	r3, r4
   16ce8:	e59f231c 	ldr	r2, [pc, #796]	; 1700c <USBStandardHubEnumeratePorts+0x734>
   16cec:	e3a01003 	mov	r1, #3
   16cf0:	e59f02d8 	ldr	r0, [pc, #728]	; 16fd0 <USBStandardHubEnumeratePorts+0x6f8>
   16cf4:	eb000ad2 	bl	19844 <LogWrite>
   16cf8:	e1a00009 	mov	r0, r9
   16cfc:	ebffe8ae 	bl	10fbc <_String>
   16d00:	e1a00009 	mov	r0, r9
   16d04:	eb000322 	bl	17994 <free>
   16d08:	e596303c 	ldr	r3, [r6, #60]	; 0x3c
   16d0c:	e2842001 	add	r2, r4, #1
   16d10:	e2888004 	add	r8, r8, #4
   16d14:	e1530004 	cmp	r3, r4
   16d18:	8affff37 	bhi	169fc <USBStandardHubEnumeratePorts+0x124>
   16d1c:	e3530000 	cmp	r3, #0
   16d20:	0a00002a 	beq	16dd0 <USBStandardHubEnumeratePorts+0x4f8>
   16d24:	e286403c 	add	r4, r6, #60	; 0x3c
   16d28:	e3a05001 	mov	r5, #1
   16d2c:	e3a0a000 	mov	sl, #0
   16d30:	ea000000 	b	16d38 <USBStandardHubEnumeratePorts+0x460>
   16d34:	e1a05002 	mov	r5, r2
   16d38:	e2844004 	add	r4, r4, #4
   16d3c:	e5940000 	ldr	r0, [r4]
   16d40:	e3500000 	cmp	r0, #0
   16d44:	0a00001d 	beq	16dc0 <USBStandardHubEnumeratePorts+0x4e8>
   16d48:	ebfffe25 	bl	165e4 <USBDeviceFactoryGetDevice>
   16d4c:	e2509000 	subs	r9, r0, #0
   16d50:	0a000010 	beq	16d98 <USBStandardHubEnumeratePorts+0x4c0>
   16d54:	e5940000 	ldr	r0, [r4]
   16d58:	ebffdefa 	bl	e948 <_USBDevice>
   16d5c:	e5940000 	ldr	r0, [r4]
   16d60:	eb00030b 	bl	17994 <free>
   16d64:	e5849000 	str	r9, [r4]
   16d68:	e5993000 	ldr	r3, [r9]
   16d6c:	e1a00009 	mov	r0, r9
   16d70:	e12fff33 	blx	r3
   16d74:	e3500000 	cmp	r0, #0
   16d78:	e1a03005 	mov	r3, r5
   16d7c:	059f228c 	ldreq	r2, [pc, #652]	; 17010 <USBStandardHubEnumeratePorts+0x738>
   16d80:	03a01001 	moveq	r1, #1
   16d84:	159f2288 	ldrne	r2, [pc, #648]	; 17014 <USBStandardHubEnumeratePorts+0x73c>
   16d88:	13a01004 	movne	r1, #4
   16d8c:	e59f023c 	ldr	r0, [pc, #572]	; 16fd0 <USBStandardHubEnumeratePorts+0x6f8>
   16d90:	eb000aab 	bl	19844 <LogWrite>
   16d94:	ea000009 	b	16dc0 <USBStandardHubEnumeratePorts+0x4e8>
   16d98:	e1a03005 	mov	r3, r5
   16d9c:	e59f2274 	ldr	r2, [pc, #628]	; 17018 <USBStandardHubEnumeratePorts+0x740>
   16da0:	e3a01003 	mov	r1, #3
   16da4:	e59f0224 	ldr	r0, [pc, #548]	; 16fd0 <USBStandardHubEnumeratePorts+0x6f8>
   16da8:	eb000aa5 	bl	19844 <LogWrite>
   16dac:	e5940000 	ldr	r0, [r4]
   16db0:	ebffdee4 	bl	e948 <_USBDevice>
   16db4:	e5940000 	ldr	r0, [r4]
   16db8:	eb0002f5 	bl	17994 <free>
   16dbc:	e584a000 	str	sl, [r4]
   16dc0:	e2852001 	add	r2, r5, #1
   16dc4:	e596303c 	ldr	r3, [r6, #60]	; 0x3c
   16dc8:	e1530005 	cmp	r3, r5
   16dcc:	8affffd8 	bhi	16d34 <USBStandardHubEnumeratePorts+0x45c>
   16dd0:	e3a00004 	mov	r0, #4
   16dd4:	eb000285 	bl	177f0 <malloc>
   16dd8:	e2508000 	subs	r8, r0, #0
   16ddc:	1a000003 	bne	16df0 <USBStandardHubEnumeratePorts+0x518>
   16de0:	e59f2234 	ldr	r2, [pc, #564]	; 1701c <USBStandardHubEnumeratePorts+0x744>
   16de4:	e59f11cc 	ldr	r1, [pc, #460]	; 16fb8 <USBStandardHubEnumeratePorts+0x6e0>
   16de8:	e59f0230 	ldr	r0, [pc, #560]	; 17020 <USBStandardHubEnumeratePorts+0x748>
   16dec:	eb000aa6 	bl	1988c <uspi_assertion_failed>
   16df0:	e3a03004 	mov	r3, #4
   16df4:	e58d300c 	str	r3, [sp, #12]
   16df8:	e58d8008 	str	r8, [sp, #8]
   16dfc:	e3a03000 	mov	r3, #0
   16e00:	e58d3004 	str	r3, [sp, #4]
   16e04:	e58d3000 	str	r3, [sp]
   16e08:	e3a020a0 	mov	r2, #160	; 0xa0
   16e0c:	e1a0100b 	mov	r1, fp
   16e10:	e1a00007 	mov	r0, r7
   16e14:	ebffd345 	bl	bb30 <DWHCIDeviceControlMessage>
   16e18:	e3500004 	cmp	r0, #4
   16e1c:	0a000007 	beq	16e40 <USBStandardHubEnumeratePorts+0x568>
   16e20:	e59f21fc 	ldr	r2, [pc, #508]	; 17024 <USBStandardHubEnumeratePorts+0x74c>
   16e24:	e3a01001 	mov	r1, #1
   16e28:	e59f01a0 	ldr	r0, [pc, #416]	; 16fd0 <USBStandardHubEnumeratePorts+0x6f8>
   16e2c:	eb000a84 	bl	19844 <LogWrite>
   16e30:	e1a00008 	mov	r0, r8
   16e34:	eb0002d6 	bl	17994 <free>
   16e38:	e3a00000 	mov	r0, #0
   16e3c:	ea00005b 	b	16fb0 <USBStandardHubEnumeratePorts+0x6d8>
   16e40:	e5d83000 	ldrb	r3, [r8]
   16e44:	e2033002 	and	r3, r3, #2
   16e48:	e6ff3073 	uxth	r3, r3
   16e4c:	e3530000 	cmp	r3, #0
   16e50:	0a00001e 	beq	16ed0 <USBStandardHubEnumeratePorts+0x5f8>
   16e54:	e596303c 	ldr	r3, [r6, #60]	; 0x3c
   16e58:	e3530000 	cmp	r3, #0
   16e5c:	0a000013 	beq	16eb0 <USBStandardHubEnumeratePorts+0x5d8>
   16e60:	e3a04001 	mov	r4, #1
   16e64:	e3a05000 	mov	r5, #0
   16e68:	e3a0a008 	mov	sl, #8
   16e6c:	e1a09004 	mov	r9, r4
   16e70:	ea000000 	b	16e78 <USBStandardHubEnumeratePorts+0x5a0>
   16e74:	e1a04002 	mov	r4, r2
   16e78:	e58d500c 	str	r5, [sp, #12]
   16e7c:	e58d5008 	str	r5, [sp, #8]
   16e80:	e6ff3074 	uxth	r3, r4
   16e84:	e58d3004 	str	r3, [sp, #4]
   16e88:	e58da000 	str	sl, [sp]
   16e8c:	e1a03009 	mov	r3, r9
   16e90:	e3a02023 	mov	r2, #35	; 0x23
   16e94:	e1a0100b 	mov	r1, fp
   16e98:	e1a00007 	mov	r0, r7
   16e9c:	ebffd323 	bl	bb30 <DWHCIDeviceControlMessage>
   16ea0:	e2842001 	add	r2, r4, #1
   16ea4:	e596303c 	ldr	r3, [r6, #60]	; 0x3c
   16ea8:	e1540003 	cmp	r4, r3
   16eac:	3afffff0 	bcc	16e74 <USBStandardHubEnumeratePorts+0x59c>
   16eb0:	e59f2170 	ldr	r2, [pc, #368]	; 17028 <USBStandardHubEnumeratePorts+0x750>
   16eb4:	e3a01001 	mov	r1, #1
   16eb8:	e59f0110 	ldr	r0, [pc, #272]	; 16fd0 <USBStandardHubEnumeratePorts+0x6f8>
   16ebc:	eb000a60 	bl	19844 <LogWrite>
   16ec0:	e1a00008 	mov	r0, r8
   16ec4:	eb0002b2 	bl	17994 <free>
   16ec8:	e3a00000 	mov	r0, #0
   16ecc:	ea000037 	b	16fb0 <USBStandardHubEnumeratePorts+0x6d8>
   16ed0:	e1a00008 	mov	r0, r8
   16ed4:	eb0002ae 	bl	17994 <free>
   16ed8:	e596303c 	ldr	r3, [r6, #60]	; 0x3c
   16edc:	e3530000 	cmp	r3, #0
   16ee0:	0a000031 	beq	16fac <USBStandardHubEnumeratePorts+0x6d4>
   16ee4:	e286505c 	add	r5, r6, #92	; 0x5c
   16ee8:	e3a04001 	mov	r4, #1
   16eec:	e58d4010 	str	r4, [sp, #16]
   16ef0:	e3a0a004 	mov	sl, #4
   16ef4:	e3a08000 	mov	r8, #0
   16ef8:	ea000000 	b	16f00 <USBStandardHubEnumeratePorts+0x628>
   16efc:	e1a04002 	mov	r4, r2
   16f00:	e6ff9074 	uxth	r9, r4
   16f04:	e58da00c 	str	sl, [sp, #12]
   16f08:	e5b53004 	ldr	r3, [r5, #4]!
   16f0c:	e58d3008 	str	r3, [sp, #8]
   16f10:	e58d9004 	str	r9, [sp, #4]
   16f14:	e58d8000 	str	r8, [sp]
   16f18:	e1a03008 	mov	r3, r8
   16f1c:	e3a020a3 	mov	r2, #163	; 0xa3
   16f20:	e1a0100b 	mov	r1, fp
   16f24:	e1a00007 	mov	r0, r7
   16f28:	ebffd300 	bl	bb30 <DWHCIDeviceControlMessage>
   16f2c:	e3500004 	cmp	r0, #4
   16f30:	1a000015 	bne	16f8c <USBStandardHubEnumeratePorts+0x6b4>
   16f34:	e5953000 	ldr	r3, [r5]
   16f38:	e5d33000 	ldrb	r3, [r3]
   16f3c:	e2033008 	and	r3, r3, #8
   16f40:	e6ff3073 	uxth	r3, r3
   16f44:	e3530000 	cmp	r3, #0
   16f48:	0a00000f 	beq	16f8c <USBStandardHubEnumeratePorts+0x6b4>
   16f4c:	e58d800c 	str	r8, [sp, #12]
   16f50:	e58d8008 	str	r8, [sp, #8]
   16f54:	e58d9004 	str	r9, [sp, #4]
   16f58:	e3a03008 	mov	r3, #8
   16f5c:	e58d3000 	str	r3, [sp]
   16f60:	e3a03001 	mov	r3, #1
   16f64:	e3a02023 	mov	r2, #35	; 0x23
   16f68:	e1a0100b 	mov	r1, fp
   16f6c:	e1a00007 	mov	r0, r7
   16f70:	ebffd2ee 	bl	bb30 <DWHCIDeviceControlMessage>
   16f74:	e1a03004 	mov	r3, r4
   16f78:	e59f2074 	ldr	r2, [pc, #116]	; 16ff4 <USBStandardHubEnumeratePorts+0x71c>
   16f7c:	e3a01001 	mov	r1, #1
   16f80:	e59f0048 	ldr	r0, [pc, #72]	; 16fd0 <USBStandardHubEnumeratePorts+0x6f8>
   16f84:	eb000a2e 	bl	19844 <LogWrite>
   16f88:	e58d8010 	str	r8, [sp, #16]
   16f8c:	e2842001 	add	r2, r4, #1
   16f90:	e596303c 	ldr	r3, [r6, #60]	; 0x3c
   16f94:	e1530004 	cmp	r3, r4
   16f98:	8affffd7 	bhi	16efc <USBStandardHubEnumeratePorts+0x624>
   16f9c:	e59d0010 	ldr	r0, [sp, #16]
   16fa0:	ea000002 	b	16fb0 <USBStandardHubEnumeratePorts+0x6d8>
   16fa4:	e3a00000 	mov	r0, #0
   16fa8:	ea000000 	b	16fb0 <USBStandardHubEnumeratePorts+0x6d8>
   16fac:	e3a00001 	mov	r0, #1
   16fb0:	e28dd01c 	add	sp, sp, #28
   16fb4:	e8bd8ff0 	pop	{r4, r5, r6, r7, r8, r9, sl, fp, pc}
   16fb8:	0001cd5c 	.word	0x0001cd5c
   16fbc:	0001b4d8 	.word	0x0001b4d8
   16fc0:	0001c574 	.word	0x0001c574
   16fc4:	0001cd84 	.word	0x0001cd84
   16fc8:	0001cd94 	.word	0x0001cd94
   16fcc:	0001cda8 	.word	0x0001cda8
   16fd0:	0001cd54 	.word	0x0001cd54
   16fd4:	000001fe 	.word	0x000001fe
   16fd8:	0001cdc0 	.word	0x0001cdc0
   16fdc:	0001cde0 	.word	0x0001cde0
   16fe0:	0001ce00 	.word	0x0001ce00
   16fe4:	00000106 	.word	0x00000106
   16fe8:	0001ce20 	.word	0x0001ce20
   16fec:	0001ce58 	.word	0x0001ce58
   16ff0:	0001ce70 	.word	0x0001ce70
   16ff4:	0001ce88 	.word	0x0001ce88
   16ff8:	00000142 	.word	0x00000142
   16ffc:	0001ceac 	.word	0x0001ceac
   17000:	0001cecc 	.word	0x0001cecc
   17004:	00000151 	.word	0x00000151
   17008:	0001c98c 	.word	0x0001c98c
   1700c:	0001ceec 	.word	0x0001ceec
   17010:	0001cf08 	.word	0x0001cf08
   17014:	0001cf2c 	.word	0x0001cf2c
   17018:	0001cf48 	.word	0x0001cf48
   1701c:	0000017e 	.word	0x0000017e
   17020:	0001cf6c 	.word	0x0001cf6c
   17024:	0001cf7c 	.word	0x0001cf7c
   17028:	0001cf94 	.word	0x0001cf94

0001702c <USBStandardHubConfigure>:
   1702c:	e92d40f0 	push	{r4, r5, r6, r7, lr}
   17030:	e24dd014 	sub	sp, sp, #20
   17034:	e2505000 	subs	r5, r0, #0
   17038:	1a000003 	bne	1704c <USBStandardHubConfigure+0x20>
   1703c:	e3a02057 	mov	r2, #87	; 0x57
   17040:	e59f1318 	ldr	r1, [pc, #792]	; 17360 <USBStandardHubConfigure+0x334>
   17044:	e59f0318 	ldr	r0, [pc, #792]	; 17364 <USBStandardHubConfigure+0x338>
   17048:	eb000a0f 	bl	1988c <uspi_assertion_failed>
   1704c:	e1a06005 	mov	r6, r5
   17050:	e1a00005 	mov	r0, r5
   17054:	ebffdf31 	bl	ed20 <USBDeviceGetDeviceDescriptor>
   17058:	e2504000 	subs	r4, r0, #0
   1705c:	1a000003 	bne	17070 <USBStandardHubConfigure+0x44>
   17060:	e3a0205a 	mov	r2, #90	; 0x5a
   17064:	e59f12f4 	ldr	r1, [pc, #756]	; 17360 <USBStandardHubConfigure+0x334>
   17068:	e59f02f8 	ldr	r0, [pc, #760]	; 17368 <USBStandardHubConfigure+0x33c>
   1706c:	eb000a06 	bl	1988c <uspi_assertion_failed>
   17070:	e5d43004 	ldrb	r3, [r4, #4]
   17074:	e3530009 	cmp	r3, #9
   17078:	1a000008 	bne	170a0 <USBStandardHubConfigure+0x74>
   1707c:	e5d43005 	ldrb	r3, [r4, #5]
   17080:	e3530000 	cmp	r3, #0
   17084:	1a000005 	bne	170a0 <USBStandardHubConfigure+0x74>
   17088:	e5d43006 	ldrb	r3, [r4, #6]
   1708c:	e3530002 	cmp	r3, #2
   17090:	1a000002 	bne	170a0 <USBStandardHubConfigure+0x74>
   17094:	e5d43011 	ldrb	r3, [r4, #17]
   17098:	e3530001 	cmp	r3, #1
   1709c:	0a000006 	beq	170bc <USBStandardHubConfigure+0x90>
   170a0:	e5d43006 	ldrb	r3, [r4, #6]
   170a4:	e59f22c0 	ldr	r2, [pc, #704]	; 1736c <USBStandardHubConfigure+0x340>
   170a8:	e3a01001 	mov	r1, #1
   170ac:	e59f02bc 	ldr	r0, [pc, #700]	; 17370 <USBStandardHubConfigure+0x344>
   170b0:	eb0009e3 	bl	19844 <LogWrite>
   170b4:	e3a04000 	mov	r4, #0
   170b8:	ea0000a5 	b	17354 <USBStandardHubConfigure+0x328>
   170bc:	e3a01002 	mov	r1, #2
   170c0:	e1a00005 	mov	r0, r5
   170c4:	ebffdf3e 	bl	edc4 <USBDeviceGetDescriptor>
   170c8:	e3500000 	cmp	r0, #0
   170cc:	0a000002 	beq	170dc <USBStandardHubConfigure+0xb0>
   170d0:	e5d03004 	ldrb	r3, [r0, #4]
   170d4:	e3530001 	cmp	r3, #1
   170d8:	0a000026 	beq	17178 <USBStandardHubConfigure+0x14c>
   170dc:	e59f128c 	ldr	r1, [pc, #652]	; 17370 <USBStandardHubConfigure+0x344>
   170e0:	e1a00005 	mov	r0, r5
   170e4:	ebffdf4e 	bl	ee24 <USBDeviceConfigurationError>
   170e8:	e3a04000 	mov	r4, #0
   170ec:	ea000098 	b	17354 <USBStandardHubConfigure+0x328>
   170f0:	e5d73005 	ldrb	r3, [r7, #5]
   170f4:	e3530009 	cmp	r3, #9
   170f8:	1a00001f 	bne	1717c <USBStandardHubConfigure+0x150>
   170fc:	e5d73006 	ldrb	r3, [r7, #6]
   17100:	e3530000 	cmp	r3, #0
   17104:	1a00001c 	bne	1717c <USBStandardHubConfigure+0x150>
   17108:	e5d73007 	ldrb	r3, [r7, #7]
   1710c:	e3530002 	cmp	r3, #2
   17110:	1a000019 	bne	1717c <USBStandardHubConfigure+0x150>
   17114:	e5d73004 	ldrb	r3, [r7, #4]
   17118:	e3530001 	cmp	r3, #1
   1711c:	0a000004 	beq	17134 <USBStandardHubConfigure+0x108>
   17120:	e59f1248 	ldr	r1, [pc, #584]	; 17370 <USBStandardHubConfigure+0x344>
   17124:	e1a00005 	mov	r0, r5
   17128:	ebffdf3d 	bl	ee24 <USBDeviceConfigurationError>
   1712c:	e3a04000 	mov	r4, #0
   17130:	ea000087 	b	17354 <USBStandardHubConfigure+0x328>
   17134:	e3a01005 	mov	r1, #5
   17138:	e1a00005 	mov	r0, r5
   1713c:	ebffdf20 	bl	edc4 <USBDeviceGetDescriptor>
   17140:	e3500000 	cmp	r0, #0
   17144:	0a000006 	beq	17164 <USBStandardHubConfigure+0x138>
   17148:	e1d030d2 	ldrsb	r3, [r0, #2]
   1714c:	e3530000 	cmp	r3, #0
   17150:	aa000003 	bge	17164 <USBStandardHubConfigure+0x138>
   17154:	e5d03003 	ldrb	r3, [r0, #3]
   17158:	e203303f 	and	r3, r3, #63	; 0x3f
   1715c:	e3530003 	cmp	r3, #3
   17160:	0a000076 	beq	17340 <USBStandardHubConfigure+0x314>
   17164:	e59f1204 	ldr	r1, [pc, #516]	; 17370 <USBStandardHubConfigure+0x344>
   17168:	e1a00005 	mov	r0, r5
   1716c:	ebffdf2c 	bl	ee24 <USBDeviceConfigurationError>
   17170:	e3a04000 	mov	r4, #0
   17174:	ea000076 	b	17354 <USBStandardHubConfigure+0x328>
   17178:	e3a04004 	mov	r4, #4
   1717c:	e1a01004 	mov	r1, r4
   17180:	e1a00006 	mov	r0, r6
   17184:	ebffdf0e 	bl	edc4 <USBDeviceGetDescriptor>
   17188:	e2507000 	subs	r7, r0, #0
   1718c:	1affffd7 	bne	170f0 <USBStandardHubConfigure+0xc4>
   17190:	ea000065 	b	1732c <USBStandardHubConfigure+0x300>
   17194:	e59f21d8 	ldr	r2, [pc, #472]	; 17374 <USBStandardHubConfigure+0x348>
   17198:	e3a01001 	mov	r1, #1
   1719c:	e59f01cc 	ldr	r0, [pc, #460]	; 17370 <USBStandardHubConfigure+0x344>
   171a0:	eb0009a7 	bl	19844 <LogWrite>
   171a4:	ea00006a 	b	17354 <USBStandardHubConfigure+0x328>
   171a8:	e1a00005 	mov	r0, r5
   171ac:	ebffdec7 	bl	ecd0 <USBDeviceGetHost>
   171b0:	e2504000 	subs	r4, r0, #0
   171b4:	1a000003 	bne	171c8 <USBStandardHubConfigure+0x19c>
   171b8:	e3a0209f 	mov	r2, #159	; 0x9f
   171bc:	e59f119c 	ldr	r1, [pc, #412]	; 17360 <USBStandardHubConfigure+0x334>
   171c0:	e59f01b0 	ldr	r0, [pc, #432]	; 17378 <USBStandardHubConfigure+0x34c>
   171c4:	eb0009b0 	bl	1988c <uspi_assertion_failed>
   171c8:	e5d73003 	ldrb	r3, [r7, #3]
   171cc:	e3530000 	cmp	r3, #0
   171d0:	0a000015 	beq	1722c <USBStandardHubConfigure+0x200>
   171d4:	e1a00005 	mov	r0, r5
   171d8:	ebffdea7 	bl	ec7c <USBDeviceGetEndpoint0>
   171dc:	e3a03000 	mov	r3, #0
   171e0:	e58d300c 	str	r3, [sp, #12]
   171e4:	e58d3008 	str	r3, [sp, #8]
   171e8:	e5d73002 	ldrb	r3, [r7, #2]
   171ec:	e58d3004 	str	r3, [sp, #4]
   171f0:	e5d73003 	ldrb	r3, [r7, #3]
   171f4:	e58d3000 	str	r3, [sp]
   171f8:	e3a0300b 	mov	r3, #11
   171fc:	e3a02001 	mov	r2, #1
   17200:	e1a01000 	mov	r1, r0
   17204:	e1a00004 	mov	r0, r4
   17208:	ebffd248 	bl	bb30 <DWHCIDeviceControlMessage>
   1720c:	e3500000 	cmp	r0, #0
   17210:	aa000005 	bge	1722c <USBStandardHubConfigure+0x200>
   17214:	e59f2160 	ldr	r2, [pc, #352]	; 1737c <USBStandardHubConfigure+0x350>
   17218:	e3a01001 	mov	r1, #1
   1721c:	e59f014c 	ldr	r0, [pc, #332]	; 17370 <USBStandardHubConfigure+0x344>
   17220:	eb000987 	bl	19844 <LogWrite>
   17224:	e3a04000 	mov	r4, #0
   17228:	ea000049 	b	17354 <USBStandardHubConfigure+0x328>
   1722c:	e5953038 	ldr	r3, [r5, #56]	; 0x38
   17230:	e3530000 	cmp	r3, #0
   17234:	0a000003 	beq	17248 <USBStandardHubConfigure+0x21c>
   17238:	e3a020ae 	mov	r2, #174	; 0xae
   1723c:	e59f111c 	ldr	r1, [pc, #284]	; 17360 <USBStandardHubConfigure+0x334>
   17240:	e59f0138 	ldr	r0, [pc, #312]	; 17380 <USBStandardHubConfigure+0x354>
   17244:	eb000990 	bl	1988c <uspi_assertion_failed>
   17248:	e3a00009 	mov	r0, #9
   1724c:	eb000167 	bl	177f0 <malloc>
   17250:	e5850038 	str	r0, [r5, #56]	; 0x38
   17254:	e3500000 	cmp	r0, #0
   17258:	1a000003 	bne	1726c <USBStandardHubConfigure+0x240>
   1725c:	e3a020b0 	mov	r2, #176	; 0xb0
   17260:	e59f10f8 	ldr	r1, [pc, #248]	; 17360 <USBStandardHubConfigure+0x334>
   17264:	e59f0118 	ldr	r0, [pc, #280]	; 17384 <USBStandardHubConfigure+0x358>
   17268:	eb000987 	bl	1988c <uspi_assertion_failed>
   1726c:	e1a00005 	mov	r0, r5
   17270:	ebffde81 	bl	ec7c <USBDeviceGetEndpoint0>
   17274:	e3a030a0 	mov	r3, #160	; 0xa0
   17278:	e58d3008 	str	r3, [sp, #8]
   1727c:	e3a03009 	mov	r3, #9
   17280:	e58d3004 	str	r3, [sp, #4]
   17284:	e5953038 	ldr	r3, [r5, #56]	; 0x38
   17288:	e58d3000 	str	r3, [sp]
   1728c:	e3a03000 	mov	r3, #0
   17290:	e3a02029 	mov	r2, #41	; 0x29
   17294:	e1a01000 	mov	r1, r0
   17298:	e1a00004 	mov	r0, r4
   1729c:	ebffd25e 	bl	bc1c <DWHCIDeviceGetDescriptor>
   172a0:	e3500009 	cmp	r0, #9
   172a4:	0a000008 	beq	172cc <USBStandardHubConfigure+0x2a0>
   172a8:	e59f20d8 	ldr	r2, [pc, #216]	; 17388 <USBStandardHubConfigure+0x35c>
   172ac:	e3a01001 	mov	r1, #1
   172b0:	e59f00b8 	ldr	r0, [pc, #184]	; 17370 <USBStandardHubConfigure+0x344>
   172b4:	eb000962 	bl	19844 <LogWrite>
   172b8:	e5950038 	ldr	r0, [r5, #56]	; 0x38
   172bc:	eb0001b4 	bl	17994 <free>
   172c0:	e3a04000 	mov	r4, #0
   172c4:	e5854038 	str	r4, [r5, #56]	; 0x38
   172c8:	ea000021 	b	17354 <USBStandardHubConfigure+0x328>
   172cc:	e5953038 	ldr	r3, [r5, #56]	; 0x38
   172d0:	e5d33002 	ldrb	r3, [r3, #2]
   172d4:	e585303c 	str	r3, [r5, #60]	; 0x3c
   172d8:	e3530008 	cmp	r3, #8
   172dc:	9a000008 	bls	17304 <USBStandardHubConfigure+0x2d8>
   172e0:	e59f20a4 	ldr	r2, [pc, #164]	; 1738c <USBStandardHubConfigure+0x360>
   172e4:	e3a01001 	mov	r1, #1
   172e8:	e59f0080 	ldr	r0, [pc, #128]	; 17370 <USBStandardHubConfigure+0x344>
   172ec:	eb000954 	bl	19844 <LogWrite>
   172f0:	e5950038 	ldr	r0, [r5, #56]	; 0x38
   172f4:	eb0001a6 	bl	17994 <free>
   172f8:	e3a04000 	mov	r4, #0
   172fc:	e5854038 	str	r4, [r5, #56]	; 0x38
   17300:	ea000013 	b	17354 <USBStandardHubConfigure+0x328>
   17304:	e1a00005 	mov	r0, r5
   17308:	ebfffd72 	bl	168d8 <USBStandardHubEnumeratePorts>
   1730c:	e2504000 	subs	r4, r0, #0
   17310:	13a04001 	movne	r4, #1
   17314:	1a00000e 	bne	17354 <USBStandardHubConfigure+0x328>
   17318:	e59f2070 	ldr	r2, [pc, #112]	; 17390 <USBStandardHubConfigure+0x364>
   1731c:	e3a01001 	mov	r1, #1
   17320:	e59f0048 	ldr	r0, [pc, #72]	; 17370 <USBStandardHubConfigure+0x344>
   17324:	eb000946 	bl	19844 <LogWrite>
   17328:	ea000009 	b	17354 <USBStandardHubConfigure+0x328>
   1732c:	e59f103c 	ldr	r1, [pc, #60]	; 17370 <USBStandardHubConfigure+0x344>
   17330:	e1a00005 	mov	r0, r5
   17334:	ebffdeba 	bl	ee24 <USBDeviceConfigurationError>
   17338:	e3a04000 	mov	r4, #0
   1733c:	ea000004 	b	17354 <USBStandardHubConfigure+0x328>
   17340:	e1a00005 	mov	r0, r5
   17344:	ebffdc95 	bl	e5a0 <USBDeviceConfigure>
   17348:	e2504000 	subs	r4, r0, #0
   1734c:	1affff95 	bne	171a8 <USBStandardHubConfigure+0x17c>
   17350:	eaffff8f 	b	17194 <USBStandardHubConfigure+0x168>
   17354:	e1a00004 	mov	r0, r4
   17358:	e28dd014 	add	sp, sp, #20
   1735c:	e8bd80f0 	pop	{r4, r5, r6, r7, pc}
   17360:	0001cd5c 	.word	0x0001cd5c
   17364:	0001b4d8 	.word	0x0001b4d8
   17368:	0001cfb0 	.word	0x0001cfb0
   1736c:	0001cfc4 	.word	0x0001cfc4
   17370:	0001cd54 	.word	0x0001cd54
   17374:	0001c3d8 	.word	0x0001c3d8
   17378:	0001c574 	.word	0x0001c574
   1737c:	0001c874 	.word	0x0001c874
   17380:	0001cfe0 	.word	0x0001cfe0
   17384:	0001cff8 	.word	0x0001cff8
   17388:	0001d010 	.word	0x0001d010
   1738c:	0001d02c 	.word	0x0001d02c
   17390:	0001d040 	.word	0x0001d040

00017394 <KeyMap>:
   17394:	e92d4010 	push	{r4, lr}
   17398:	e2504000 	subs	r4, r0, #0
   1739c:	1a000003 	bne	173b0 <KeyMap+0x1c>
   173a0:	e3a0206c 	mov	r2, #108	; 0x6c
   173a4:	e59f102c 	ldr	r1, [pc, #44]	; 173d8 <KeyMap+0x44>
   173a8:	e59f002c 	ldr	r0, [pc, #44]	; 173dc <KeyMap+0x48>
   173ac:	eb000936 	bl	1988c <uspi_assertion_failed>
   173b0:	e3a03000 	mov	r3, #0
   173b4:	e5843400 	str	r3, [r4, #1024]	; 0x400
   173b8:	e3a02001 	mov	r2, #1
   173bc:	e5842404 	str	r2, [r4, #1028]	; 0x404
   173c0:	e5843408 	str	r3, [r4, #1032]	; 0x408
   173c4:	e3a02b01 	mov	r2, #1024	; 0x400
   173c8:	e59f1010 	ldr	r1, [pc, #16]	; 173e0 <KeyMap+0x4c>
   173cc:	e1a00004 	mov	r0, r4
   173d0:	ebffe982 	bl	119e0 <uspi_memcpy>
   173d4:	e8bd8010 	pop	{r4, pc}
   173d8:	0001d524 	.word	0x0001d524
   173dc:	0001b4d8 	.word	0x0001b4d8
   173e0:	0001d058 	.word	0x0001d058

000173e4 <_KeyMap>:
   173e4:	e12fff1e 	bx	lr

000173e8 <KeyMapClearTable>:
   173e8:	e92d4070 	push	{r4, r5, r6, lr}
   173ec:	e1a05001 	mov	r5, r1
   173f0:	e2504000 	subs	r4, r0, #0
   173f4:	1a000003 	bne	17408 <KeyMapClearTable+0x20>
   173f8:	e3a0207c 	mov	r2, #124	; 0x7c
   173fc:	e59f1038 	ldr	r1, [pc, #56]	; 1743c <KeyMapClearTable+0x54>
   17400:	e59f0038 	ldr	r0, [pc, #56]	; 17440 <KeyMapClearTable+0x58>
   17404:	eb000920 	bl	1988c <uspi_assertion_failed>
   17408:	e3550003 	cmp	r5, #3
   1740c:	8a000008 	bhi	17434 <KeyMapClearTable+0x4c>
   17410:	e0842085 	add	r2, r4, r5, lsl #1
   17414:	e3a03000 	mov	r3, #0
   17418:	e1a01003 	mov	r1, r3
   1741c:	e18210b3 	strh	r1, [r2, r3]
   17420:	e2833008 	add	r3, r3, #8
   17424:	e3530b01 	cmp	r3, #1024	; 0x400
   17428:	1afffffb 	bne	1741c <KeyMapClearTable+0x34>
   1742c:	e3a00001 	mov	r0, #1
   17430:	e8bd8070 	pop	{r4, r5, r6, pc}
   17434:	e3a00000 	mov	r0, #0
   17438:	e8bd8070 	pop	{r4, r5, r6, pc}
   1743c:	0001d524 	.word	0x0001d524
   17440:	0001b4d8 	.word	0x0001b4d8

00017444 <KeyMapSetEntry>:
   17444:	e92d41f0 	push	{r4, r5, r6, r7, r8, lr}
   17448:	e1a04001 	mov	r4, r1
   1744c:	e1a07002 	mov	r7, r2
   17450:	e1a05003 	mov	r5, r3
   17454:	e2506000 	subs	r6, r0, #0
   17458:	1a000003 	bne	1746c <KeyMapSetEntry+0x28>
   1745c:	e3a0208d 	mov	r2, #141	; 0x8d
   17460:	e59f1054 	ldr	r1, [pc, #84]	; 174bc <KeyMapSetEntry+0x78>
   17464:	e59f0054 	ldr	r0, [pc, #84]	; 174c0 <KeyMapSetEntry+0x7c>
   17468:	eb000907 	bl	1988c <uspi_assertion_failed>
   1746c:	e6af3077 	sxtb	r3, r7
   17470:	e3530000 	cmp	r3, #0
   17474:	c3a03000 	movgt	r3, #0
   17478:	d3a03001 	movle	r3, #1
   1747c:	e3540003 	cmp	r4, #3
   17480:	83833001 	orrhi	r3, r3, #1
   17484:	e3530000 	cmp	r3, #0
   17488:	1a000007 	bne	174ac <KeyMapSetEntry+0x68>
   1748c:	e59f3030 	ldr	r3, [pc, #48]	; 174c4 <KeyMapSetEntry+0x80>
   17490:	e1550003 	cmp	r5, r3
   17494:	8a000006 	bhi	174b4 <KeyMapSetEntry+0x70>
   17498:	e0844107 	add	r4, r4, r7, lsl #2
   1749c:	e1a04084 	lsl	r4, r4, #1
   174a0:	e18650b4 	strh	r5, [r6, r4]
   174a4:	e3a00001 	mov	r0, #1
   174a8:	e8bd81f0 	pop	{r4, r5, r6, r7, r8, pc}
   174ac:	e3a00000 	mov	r0, #0
   174b0:	e8bd81f0 	pop	{r4, r5, r6, r7, r8, pc}
   174b4:	e3a00000 	mov	r0, #0
   174b8:	e8bd81f0 	pop	{r4, r5, r6, r7, r8, pc}
   174bc:	0001d524 	.word	0x0001d524
   174c0:	0001b4d8 	.word	0x0001b4d8
   174c4:	00000132 	.word	0x00000132

000174c8 <KeyMapTranslate>:
   174c8:	e92d4070 	push	{r4, r5, r6, lr}
   174cc:	e1a06001 	mov	r6, r1
   174d0:	e1a04002 	mov	r4, r2
   174d4:	e2505000 	subs	r5, r0, #0
   174d8:	1a000003 	bne	174ec <KeyMapTranslate+0x24>
   174dc:	e3a0209e 	mov	r2, #158	; 0x9e
   174e0:	e59f1130 	ldr	r1, [pc, #304]	; 17618 <KeyMapTranslate+0x150>
   174e4:	e59f0130 	ldr	r0, [pc, #304]	; 1761c <KeyMapTranslate+0x154>
   174e8:	eb0008e7 	bl	1988c <uspi_assertion_failed>
   174ec:	e6af3076 	sxtb	r3, r6
   174f0:	e3530000 	cmp	r3, #0
   174f4:	da000041 	ble	17600 <KeyMapTranslate+0x138>
   174f8:	e1a03186 	lsl	r3, r6, #3
   174fc:	e19500b3 	ldrh	r0, [r5, r3]
   17500:	e3500f42 	cmp	r0, #264	; 0x108
   17504:	1a000004 	bne	1751c <KeyMapTranslate+0x54>
   17508:	e3140011 	tst	r4, #17
   1750c:	0a00000c 	beq	17544 <KeyMapTranslate+0x7c>
   17510:	e3140004 	tst	r4, #4
   17514:	1a00003b 	bne	17608 <KeyMapTranslate+0x140>
   17518:	ea000009 	b	17544 <KeyMapTranslate+0x7c>
   1751c:	e2403f43 	sub	r3, r0, #268	; 0x10c
   17520:	e2433003 	sub	r3, r3, #3
   17524:	e6ff3073 	uxth	r3, r3
   17528:	e353000b 	cmp	r3, #11
   1752c:	8a000004 	bhi	17544 <KeyMapTranslate+0x7c>
   17530:	e3140004 	tst	r4, #4
   17534:	0a000002 	beq	17544 <KeyMapTranslate+0x7c>
   17538:	e2800027 	add	r0, r0, #39	; 0x27
   1753c:	e6ff0070 	uxth	r0, r0
   17540:	e8bd8070 	pop	{r4, r5, r6, pc}
   17544:	e314008c 	tst	r4, #140	; 0x8c
   17548:	1a000030 	bne	17610 <KeyMapTranslate+0x148>
   1754c:	e2463053 	sub	r3, r6, #83	; 0x53
   17550:	e6ef3073 	uxtb	r3, r3
   17554:	e3530010 	cmp	r3, #16
   17558:	8a000003 	bhi	1756c <KeyMapTranslate+0xa4>
   1755c:	e5954404 	ldr	r4, [r5, #1028]	; 0x404
   17560:	e2944000 	adds	r4, r4, #0
   17564:	13a04001 	movne	r4, #1
   17568:	ea000009 	b	17594 <KeyMapTranslate+0xcc>
   1756c:	e3140040 	tst	r4, #64	; 0x40
   17570:	0a000004 	beq	17588 <KeyMapTranslate+0xc0>
   17574:	e2044022 	and	r4, r4, #34	; 0x22
   17578:	e3540000 	cmp	r4, #0
   1757c:	13a04003 	movne	r4, #3
   17580:	03a04002 	moveq	r4, #2
   17584:	ea000002 	b	17594 <KeyMapTranslate+0xcc>
   17588:	e3140022 	tst	r4, #34	; 0x22
   1758c:	13a04001 	movne	r4, #1
   17590:	03a04000 	moveq	r4, #0
   17594:	e0844106 	add	r4, r4, r6, lsl #2
   17598:	e1a04084 	lsl	r4, r4, #1
   1759c:	e19500b4 	ldrh	r0, [r5, r4]
   175a0:	e59f3078 	ldr	r3, [pc, #120]	; 17620 <KeyMapTranslate+0x158>
   175a4:	e1500003 	cmp	r0, r3
   175a8:	0a00000e 	beq	175e8 <KeyMapTranslate+0x120>
   175ac:	e3500e12 	cmp	r0, #288	; 0x120
   175b0:	0a000006 	beq	175d0 <KeyMapTranslate+0x108>
   175b4:	e3500f47 	cmp	r0, #284	; 0x11c
   175b8:	05953400 	ldreq	r3, [r5, #1024]	; 0x400
   175bc:	016f3f13 	clzeq	r3, r3
   175c0:	01a032a3 	lsreq	r3, r3, #5
   175c4:	05853400 	streq	r3, [r5, #1024]	; 0x400
   175c8:	02800017 	addeq	r0, r0, #23
   175cc:	e8bd8070 	pop	{r4, r5, r6, pc}
   175d0:	e5953404 	ldr	r3, [r5, #1028]	; 0x404
   175d4:	e16f3f13 	clz	r3, r3
   175d8:	e1a032a3 	lsr	r3, r3, #5
   175dc:	e5853404 	str	r3, [r5, #1028]	; 0x404
   175e0:	e3a00f4d 	mov	r0, #308	; 0x134
   175e4:	e8bd8070 	pop	{r4, r5, r6, pc}
   175e8:	e5953408 	ldr	r3, [r5, #1032]	; 0x408
   175ec:	e16f3f13 	clz	r3, r3
   175f0:	e1a032a3 	lsr	r3, r3, #5
   175f4:	e5853408 	str	r3, [r5, #1032]	; 0x408
   175f8:	e59f0024 	ldr	r0, [pc, #36]	; 17624 <KeyMapTranslate+0x15c>
   175fc:	e8bd8070 	pop	{r4, r5, r6, pc}
   17600:	e3a00000 	mov	r0, #0
   17604:	e8bd8070 	pop	{r4, r5, r6, pc}
   17608:	e59f0018 	ldr	r0, [pc, #24]	; 17628 <KeyMapTranslate+0x160>
   1760c:	e8bd8070 	pop	{r4, r5, r6, pc}
   17610:	e3a00000 	mov	r0, #0
   17614:	e8bd8070 	pop	{r4, r5, r6, pc}
   17618:	0001d524 	.word	0x0001d524
   1761c:	0001b4d8 	.word	0x0001b4d8
   17620:	0000011e 	.word	0x0000011e
   17624:	00000135 	.word	0x00000135
   17628:	00000142 	.word	0x00000142

0001762c <KeyMapGetString>:
   1762c:	e92d41f0 	push	{r4, r5, r6, r7, r8, lr}
   17630:	e1a04001 	mov	r4, r1
   17634:	e1a06002 	mov	r6, r2
   17638:	e1a05003 	mov	r5, r3
   1763c:	e2507000 	subs	r7, r0, #0
   17640:	1a000003 	bne	17654 <KeyMapGetString+0x28>
   17644:	e3a020ea 	mov	r2, #234	; 0xea
   17648:	e59f10cc 	ldr	r1, [pc, #204]	; 1771c <KeyMapGetString+0xf0>
   1764c:	e59f00cc 	ldr	r0, [pc, #204]	; 17720 <KeyMapGetString+0xf4>
   17650:	eb00088d 	bl	1988c <uspi_assertion_failed>
   17654:	e2443021 	sub	r3, r4, #33	; 0x21
   17658:	e6ff3073 	uxth	r3, r3
   1765c:	e59f20c0 	ldr	r2, [pc, #192]	; 17724 <KeyMapGetString+0xf8>
   17660:	e1530002 	cmp	r3, r2
   17664:	8a000028 	bhi	1770c <KeyMapGetString+0xe0>
   17668:	e2443c01 	sub	r3, r4, #256	; 0x100
   1766c:	e6ff3073 	uxth	r3, r3
   17670:	e3530032 	cmp	r3, #50	; 0x32
   17674:	8a000002 	bhi	17684 <KeyMapGetString+0x58>
   17678:	e59f30a8 	ldr	r3, [pc, #168]	; 17728 <KeyMapGetString+0xfc>
   1767c:	e7930104 	ldr	r0, [r3, r4, lsl #2]
   17680:	e8bd81f0 	pop	{r4, r5, r6, r7, r8, pc}
   17684:	e6af3074 	sxtb	r3, r4
   17688:	e3160011 	tst	r6, #17
   1768c:	0a00000a 	beq	176bc <KeyMapGetString+0x90>
   17690:	e6ef4074 	uxtb	r4, r4
   17694:	e2443061 	sub	r3, r4, #97	; 0x61
   17698:	e6ef3073 	uxtb	r3, r3
   1769c:	e3530019 	cmp	r3, #25
   176a0:	8a00001b 	bhi	17714 <KeyMapGetString+0xe8>
   176a4:	e2444060 	sub	r4, r4, #96	; 0x60
   176a8:	e5c54000 	strb	r4, [r5]
   176ac:	e3a03000 	mov	r3, #0
   176b0:	e5c53001 	strb	r3, [r5, #1]
   176b4:	e1a00005 	mov	r0, r5
   176b8:	e8bd81f0 	pop	{r4, r5, r6, r7, r8, pc}
   176bc:	e5972400 	ldr	r2, [r7, #1024]	; 0x400
   176c0:	e3520000 	cmp	r2, #0
   176c4:	0a00000b 	beq	176f8 <KeyMapGetString+0xcc>
   176c8:	e6ef4074 	uxtb	r4, r4
   176cc:	e2442041 	sub	r2, r4, #65	; 0x41
   176d0:	e6ef2072 	uxtb	r2, r2
   176d4:	e3520019 	cmp	r2, #25
   176d8:	92844020 	addls	r4, r4, #32
   176dc:	96af3074 	sxtbls	r3, r4
   176e0:	9a000004 	bls	176f8 <KeyMapGetString+0xcc>
   176e4:	e2442061 	sub	r2, r4, #97	; 0x61
   176e8:	e6ef2072 	uxtb	r2, r2
   176ec:	e3520019 	cmp	r2, #25
   176f0:	92444020 	subls	r4, r4, #32
   176f4:	96af3074 	sxtbls	r3, r4
   176f8:	e5c53000 	strb	r3, [r5]
   176fc:	e3a03000 	mov	r3, #0
   17700:	e5c53001 	strb	r3, [r5, #1]
   17704:	e1a00005 	mov	r0, r5
   17708:	e8bd81f0 	pop	{r4, r5, r6, r7, r8, pc}
   1770c:	e3a00000 	mov	r0, #0
   17710:	e8bd81f0 	pop	{r4, r5, r6, r7, r8, pc}
   17714:	e3a00000 	mov	r0, #0
   17718:	e8bd81f0 	pop	{r4, r5, r6, r7, r8, pc}
   1771c:	0001d524 	.word	0x0001d524
   17720:	0001b4d8 	.word	0x0001b4d8
   17724:	00000111 	.word	0x00000111
   17728:	0001d058 	.word	0x0001d058

0001772c <KeyMapGetLEDStatus>:
   1772c:	e92d4010 	push	{r4, lr}
   17730:	e2504000 	subs	r4, r0, #0
   17734:	1a000003 	bne	17748 <KeyMapGetLEDStatus+0x1c>
   17738:	e59f2038 	ldr	r2, [pc, #56]	; 17778 <KeyMapGetLEDStatus+0x4c>
   1773c:	e59f1038 	ldr	r1, [pc, #56]	; 1777c <KeyMapGetLEDStatus+0x50>
   17740:	e59f0038 	ldr	r0, [pc, #56]	; 17780 <KeyMapGetLEDStatus+0x54>
   17744:	eb000850 	bl	1988c <uspi_assertion_failed>
   17748:	e5940400 	ldr	r0, [r4, #1024]	; 0x400
   1774c:	e3500000 	cmp	r0, #0
   17750:	13a00002 	movne	r0, #2
   17754:	03a00000 	moveq	r0, #0
   17758:	e5943404 	ldr	r3, [r4, #1028]	; 0x404
   1775c:	e3530000 	cmp	r3, #0
   17760:	13800001 	orrne	r0, r0, #1
   17764:	16ef0070 	uxtbne	r0, r0
   17768:	e5943408 	ldr	r3, [r4, #1032]	; 0x408
   1776c:	e3530000 	cmp	r3, #0
   17770:	13800004 	orrne	r0, r0, #4
   17774:	e8bd8010 	pop	{r4, pc}
   17778:	0000011b 	.word	0x0000011b
   1777c:	0001d524 	.word	0x0001d524
   17780:	0001b4d8 	.word	0x0001b4d8

00017784 <mem_init>:
   17784:	e0801001 	add	r1, r0, r1
   17788:	e59f3030 	ldr	r3, [pc, #48]	; 177c0 <mem_init+0x3c>
   1778c:	e1500003 	cmp	r0, r3
   17790:	93a00501 	movls	r0, #4194304	; 0x400000
   17794:	e59f3028 	ldr	r3, [pc, #40]	; 177c4 <mem_init+0x40>
   17798:	e5830000 	str	r0, [r3]
   1779c:	e0602001 	rsb	r2, r0, r1
   177a0:	e0800122 	add	r0, r0, r2, lsr #2
   177a4:	e5830004 	str	r0, [r3, #4]
   177a8:	e2800a01 	add	r0, r0, #4096	; 0x1000
   177ac:	e3c00eff 	bic	r0, r0, #4080	; 0xff0
   177b0:	e3c0000f 	bic	r0, r0, #15
   177b4:	e5830008 	str	r0, [r3, #8]
   177b8:	e583100c 	str	r1, [r3, #12]
   177bc:	e12fff1e 	bx	lr
   177c0:	003fffff 	.word	0x003fffff
   177c4:	00008934 	.word	0x00008934

000177c8 <mem_get_size>:
   177c8:	e59f301c 	ldr	r3, [pc, #28]	; 177ec <mem_get_size+0x24>
   177cc:	e5932004 	ldr	r2, [r3, #4]
   177d0:	e5930000 	ldr	r0, [r3]
   177d4:	e0600002 	rsb	r0, r0, r2
   177d8:	e593200c 	ldr	r2, [r3, #12]
   177dc:	e5933008 	ldr	r3, [r3, #8]
   177e0:	e0633002 	rsb	r3, r3, r2
   177e4:	e0800003 	add	r0, r0, r3
   177e8:	e12fff1e 	bx	lr
   177ec:	00008934 	.word	0x00008934

000177f0 <malloc>:
   177f0:	e92d4070 	push	{r4, r5, r6, lr}
   177f4:	e1a06000 	mov	r6, r0
   177f8:	e59f3178 	ldr	r3, [pc, #376]	; 17978 <malloc+0x188>
   177fc:	e5933000 	ldr	r3, [r3]
   17800:	e3530000 	cmp	r3, #0
   17804:	1a000003 	bne	17818 <malloc+0x28>
   17808:	e3a02081 	mov	r2, #129	; 0x81
   1780c:	e59f1168 	ldr	r1, [pc, #360]	; 1797c <malloc+0x18c>
   17810:	e59f0168 	ldr	r0, [pc, #360]	; 17980 <malloc+0x190>
   17814:	eb0000de 	bl	17b94 <assertion_failed>
   17818:	eb0005a2 	bl	18ea8 <EnterCritical>
   1781c:	e59f3160 	ldr	r3, [pc, #352]	; 17984 <malloc+0x194>
   17820:	e5933000 	ldr	r3, [r3]
   17824:	e3530000 	cmp	r3, #0
   17828:	0a000020 	beq	178b0 <malloc+0xc0>
   1782c:	e1560003 	cmp	r6, r3
   17830:	9a00004a 	bls	17960 <malloc+0x170>
   17834:	e59f4148 	ldr	r4, [pc, #328]	; 17984 <malloc+0x194>
   17838:	ea000001 	b	17844 <malloc+0x54>
   1783c:	e1530006 	cmp	r3, r6
   17840:	2a000047 	bcs	17964 <malloc+0x174>
   17844:	e5b43008 	ldr	r3, [r4, #8]!
   17848:	e3530000 	cmp	r3, #0
   1784c:	1afffffa 	bne	1783c <malloc+0x4c>
   17850:	ea000016 	b	178b0 <malloc+0xc0>
   17854:	e5d53000 	ldrb	r3, [r5]
   17858:	e5d52001 	ldrb	r2, [r5, #1]
   1785c:	e1833402 	orr	r3, r3, r2, lsl #8
   17860:	e5d52002 	ldrb	r2, [r5, #2]
   17864:	e1833802 	orr	r3, r3, r2, lsl #16
   17868:	e5d52003 	ldrb	r2, [r5, #3]
   1786c:	e1833c02 	orr	r3, r3, r2, lsl #24
   17870:	e59f2110 	ldr	r2, [pc, #272]	; 17988 <malloc+0x198>
   17874:	e1530002 	cmp	r3, r2
   17878:	0a000003 	beq	1788c <malloc+0x9c>
   1787c:	e3a0209b 	mov	r2, #155	; 0x9b
   17880:	e59f10f4 	ldr	r1, [pc, #244]	; 1797c <malloc+0x18c>
   17884:	e59f0100 	ldr	r0, [pc, #256]	; 1798c <malloc+0x19c>
   17888:	eb0000c1 	bl	17b94 <assertion_failed>
   1788c:	e5d53008 	ldrb	r3, [r5, #8]
   17890:	e5d52009 	ldrb	r2, [r5, #9]
   17894:	e1833402 	orr	r3, r3, r2, lsl #8
   17898:	e5d5200a 	ldrb	r2, [r5, #10]
   1789c:	e1833802 	orr	r3, r3, r2, lsl #16
   178a0:	e5d5200b 	ldrb	r2, [r5, #11]
   178a4:	e1833c02 	orr	r3, r3, r2, lsl #24
   178a8:	e5843004 	str	r3, [r4, #4]
   178ac:	ea00001a 	b	1791c <malloc+0x12c>
   178b0:	e59f20c0 	ldr	r2, [pc, #192]	; 17978 <malloc+0x188>
   178b4:	e5925000 	ldr	r5, [r2]
   178b8:	e286301f 	add	r3, r6, #31
   178bc:	e3c3300f 	bic	r3, r3, #15
   178c0:	e0853003 	add	r3, r5, r3
   178c4:	e5823000 	str	r3, [r2]
   178c8:	e5922004 	ldr	r2, [r2, #4]
   178cc:	e1530002 	cmp	r3, r2
   178d0:	9a000002 	bls	178e0 <malloc+0xf0>
   178d4:	eb000583 	bl	18ee8 <LeaveCritical>
   178d8:	e3a00000 	mov	r0, #0
   178dc:	e8bd8070 	pop	{r4, r5, r6, pc}
   178e0:	e3a03043 	mov	r3, #67	; 0x43
   178e4:	e5c53000 	strb	r3, [r5]
   178e8:	e3a0304d 	mov	r3, #77	; 0x4d
   178ec:	e5c53001 	strb	r3, [r5, #1]
   178f0:	e3a0304c 	mov	r3, #76	; 0x4c
   178f4:	e5c53002 	strb	r3, [r5, #2]
   178f8:	e3a03042 	mov	r3, #66	; 0x42
   178fc:	e5c53003 	strb	r3, [r5, #3]
   17900:	e5c56004 	strb	r6, [r5, #4]
   17904:	e1a03426 	lsr	r3, r6, #8
   17908:	e5c53005 	strb	r3, [r5, #5]
   1790c:	e1a03826 	lsr	r3, r6, #16
   17910:	e5c53006 	strb	r3, [r5, #6]
   17914:	e1a06c26 	lsr	r6, r6, #24
   17918:	e5c56007 	strb	r6, [r5, #7]
   1791c:	eb000571 	bl	18ee8 <LeaveCritical>
   17920:	e3a03000 	mov	r3, #0
   17924:	e5c53008 	strb	r3, [r5, #8]
   17928:	e5c53009 	strb	r3, [r5, #9]
   1792c:	e5c5300a 	strb	r3, [r5, #10]
   17930:	e5c5300b 	strb	r3, [r5, #11]
   17934:	e2855010 	add	r5, r5, #16
   17938:	e315000f 	tst	r5, #15
   1793c:	0a000005 	beq	17958 <malloc+0x168>
   17940:	e3a020b3 	mov	r2, #179	; 0xb3
   17944:	e59f1030 	ldr	r1, [pc, #48]	; 1797c <malloc+0x18c>
   17948:	e59f0040 	ldr	r0, [pc, #64]	; 17990 <malloc+0x1a0>
   1794c:	eb000090 	bl	17b94 <assertion_failed>
   17950:	e1a00005 	mov	r0, r5
   17954:	e8bd8070 	pop	{r4, r5, r6, pc}
   17958:	e1a00005 	mov	r0, r5
   1795c:	e8bd8070 	pop	{r4, r5, r6, pc}
   17960:	e59f401c 	ldr	r4, [pc, #28]	; 17984 <malloc+0x194>
   17964:	e5945004 	ldr	r5, [r4, #4]
   17968:	e3550000 	cmp	r5, #0
   1796c:	01a06003 	moveq	r6, r3
   17970:	0affffce 	beq	178b0 <malloc+0xc0>
   17974:	eaffffb6 	b	17854 <malloc+0x64>
   17978:	00008934 	.word	0x00008934
   1797c:	0001d600 	.word	0x0001d600
   17980:	0001d608 	.word	0x0001d608
   17984:	000088c8 	.word	0x000088c8
   17988:	424c4d43 	.word	0x424c4d43
   1798c:	0001d61c 	.word	0x0001d61c
   17990:	0001d640 	.word	0x0001d640

00017994 <free>:
   17994:	e92d4070 	push	{r4, r5, r6, lr}
   17998:	e2504000 	subs	r4, r0, #0
   1799c:	1a000003 	bne	179b0 <free+0x1c>
   179a0:	e3a020ba 	mov	r2, #186	; 0xba
   179a4:	e59f10cc 	ldr	r1, [pc, #204]	; 17a78 <free+0xe4>
   179a8:	e59f00cc 	ldr	r0, [pc, #204]	; 17a7c <free+0xe8>
   179ac:	eb000078 	bl	17b94 <assertion_failed>
   179b0:	e2445010 	sub	r5, r4, #16
   179b4:	e5543010 	ldrb	r3, [r4, #-16]
   179b8:	e5d52001 	ldrb	r2, [r5, #1]
   179bc:	e1833402 	orr	r3, r3, r2, lsl #8
   179c0:	e5d52002 	ldrb	r2, [r5, #2]
   179c4:	e1833802 	orr	r3, r3, r2, lsl #16
   179c8:	e5d52003 	ldrb	r2, [r5, #3]
   179cc:	e1833c02 	orr	r3, r3, r2, lsl #24
   179d0:	e59f20a8 	ldr	r2, [pc, #168]	; 17a80 <free+0xec>
   179d4:	e1530002 	cmp	r3, r2
   179d8:	0a000003 	beq	179ec <free+0x58>
   179dc:	e3a020bc 	mov	r2, #188	; 0xbc
   179e0:	e59f1090 	ldr	r1, [pc, #144]	; 17a78 <free+0xe4>
   179e4:	e59f0098 	ldr	r0, [pc, #152]	; 17a84 <free+0xf0>
   179e8:	eb000069 	bl	17b94 <assertion_failed>
   179ec:	e59f3094 	ldr	r3, [pc, #148]	; 17a88 <free+0xf4>
   179f0:	e5931000 	ldr	r1, [r3]
   179f4:	e3510000 	cmp	r1, #0
   179f8:	08bd8070 	popeq	{r4, r5, r6, pc}
   179fc:	e5d53004 	ldrb	r3, [r5, #4]
   17a00:	e5d52005 	ldrb	r2, [r5, #5]
   17a04:	e1833402 	orr	r3, r3, r2, lsl #8
   17a08:	e5d52006 	ldrb	r2, [r5, #6]
   17a0c:	e1833802 	orr	r3, r3, r2, lsl #16
   17a10:	e5d52007 	ldrb	r2, [r5, #7]
   17a14:	e1832c02 	orr	r2, r3, r2, lsl #24
   17a18:	e1510002 	cmp	r1, r2
   17a1c:	0a000004 	beq	17a34 <free+0xa0>
   17a20:	e59f4060 	ldr	r4, [pc, #96]	; 17a88 <free+0xf4>
   17a24:	ea00000f 	b	17a68 <free+0xd4>
   17a28:	e1530002 	cmp	r3, r2
   17a2c:	1a00000d 	bne	17a68 <free+0xd4>
   17a30:	ea000000 	b	17a38 <free+0xa4>
   17a34:	e59f404c 	ldr	r4, [pc, #76]	; 17a88 <free+0xf4>
   17a38:	eb00051a 	bl	18ea8 <EnterCritical>
   17a3c:	e5943004 	ldr	r3, [r4, #4]
   17a40:	e5c53008 	strb	r3, [r5, #8]
   17a44:	e1a02423 	lsr	r2, r3, #8
   17a48:	e5c52009 	strb	r2, [r5, #9]
   17a4c:	e1a02823 	lsr	r2, r3, #16
   17a50:	e5c5200a 	strb	r2, [r5, #10]
   17a54:	e1a03c23 	lsr	r3, r3, #24
   17a58:	e5c5300b 	strb	r3, [r5, #11]
   17a5c:	e5845004 	str	r5, [r4, #4]
   17a60:	eb000520 	bl	18ee8 <LeaveCritical>
   17a64:	e8bd8070 	pop	{r4, r5, r6, pc}
   17a68:	e5b43008 	ldr	r3, [r4, #8]!
   17a6c:	e3530000 	cmp	r3, #0
   17a70:	1affffec 	bne	17a28 <free+0x94>
   17a74:	e8bd8070 	pop	{r4, r5, r6, pc}
   17a78:	0001d600 	.word	0x0001d600
   17a7c:	0001d66c 	.word	0x0001d66c
   17a80:	424c4d43 	.word	0x424c4d43
   17a84:	0001d61c 	.word	0x0001d61c
   17a88:	000088c8 	.word	0x000088c8

00017a8c <palloc>:
   17a8c:	e92d4010 	push	{r4, lr}
   17a90:	e59f3098 	ldr	r3, [pc, #152]	; 17b30 <palloc+0xa4>
   17a94:	e5933008 	ldr	r3, [r3, #8]
   17a98:	e3530000 	cmp	r3, #0
   17a9c:	1a000003 	bne	17ab0 <palloc+0x24>
   17aa0:	e3a020d6 	mov	r2, #214	; 0xd6
   17aa4:	e59f1088 	ldr	r1, [pc, #136]	; 17b34 <palloc+0xa8>
   17aa8:	e59f0088 	ldr	r0, [pc, #136]	; 17b38 <palloc+0xac>
   17aac:	eb000038 	bl	17b94 <assertion_failed>
   17ab0:	eb0004fc 	bl	18ea8 <EnterCritical>
   17ab4:	e59f3074 	ldr	r3, [pc, #116]	; 17b30 <palloc+0xa4>
   17ab8:	e5934010 	ldr	r4, [r3, #16]
   17abc:	e3540000 	cmp	r4, #0
   17ac0:	0a00000d 	beq	17afc <palloc+0x70>
   17ac4:	e5942000 	ldr	r2, [r4]
   17ac8:	e59f306c 	ldr	r3, [pc, #108]	; 17b3c <palloc+0xb0>
   17acc:	e1520003 	cmp	r2, r3
   17ad0:	0a000003 	beq	17ae4 <palloc+0x58>
   17ad4:	e3a020e4 	mov	r2, #228	; 0xe4
   17ad8:	e59f1054 	ldr	r1, [pc, #84]	; 17b34 <palloc+0xa8>
   17adc:	e59f005c 	ldr	r0, [pc, #92]	; 17b40 <palloc+0xb4>
   17ae0:	eb00002b 	bl	17b94 <assertion_failed>
   17ae4:	e5942004 	ldr	r2, [r4, #4]
   17ae8:	e59f3040 	ldr	r3, [pc, #64]	; 17b30 <palloc+0xa4>
   17aec:	e5832010 	str	r2, [r3, #16]
   17af0:	e3a03000 	mov	r3, #0
   17af4:	e5843000 	str	r3, [r4]
   17af8:	ea000009 	b	17b24 <palloc+0x98>
   17afc:	e59f302c 	ldr	r3, [pc, #44]	; 17b30 <palloc+0xa4>
   17b00:	e5934008 	ldr	r4, [r3, #8]
   17b04:	e2842a01 	add	r2, r4, #4096	; 0x1000
   17b08:	e5832008 	str	r2, [r3, #8]
   17b0c:	e593300c 	ldr	r3, [r3, #12]
   17b10:	e1520003 	cmp	r2, r3
   17b14:	9a000002 	bls	17b24 <palloc+0x98>
   17b18:	eb0004f2 	bl	18ee8 <LeaveCritical>
   17b1c:	e3a00000 	mov	r0, #0
   17b20:	e8bd8010 	pop	{r4, pc}
   17b24:	eb0004ef 	bl	18ee8 <LeaveCritical>
   17b28:	e1a00004 	mov	r0, r4
   17b2c:	e8bd8010 	pop	{r4, pc}
   17b30:	00008934 	.word	0x00008934
   17b34:	0001d600 	.word	0x0001d600
   17b38:	0001d678 	.word	0x0001d678
   17b3c:	50474d43 	.word	0x50474d43
   17b40:	0001d68c 	.word	0x0001d68c

00017b44 <pfree>:
   17b44:	e92d4010 	push	{r4, lr}
   17b48:	e2504000 	subs	r4, r0, #0
   17b4c:	1a000003 	bne	17b60 <pfree+0x1c>
   17b50:	e3a020fd 	mov	r2, #253	; 0xfd
   17b54:	e59f1028 	ldr	r1, [pc, #40]	; 17b84 <pfree+0x40>
   17b58:	e59f0028 	ldr	r0, [pc, #40]	; 17b88 <pfree+0x44>
   17b5c:	eb00000c 	bl	17b94 <assertion_failed>
   17b60:	eb0004d0 	bl	18ea8 <EnterCritical>
   17b64:	e59f3020 	ldr	r3, [pc, #32]	; 17b8c <pfree+0x48>
   17b68:	e5843000 	str	r3, [r4]
   17b6c:	e59f301c 	ldr	r3, [pc, #28]	; 17b90 <pfree+0x4c>
   17b70:	e5932010 	ldr	r2, [r3, #16]
   17b74:	e5842004 	str	r2, [r4, #4]
   17b78:	e5834010 	str	r4, [r3, #16]
   17b7c:	eb0004d9 	bl	18ee8 <LeaveCritical>
   17b80:	e8bd8010 	pop	{r4, pc}
   17b84:	0001d600 	.word	0x0001d600
   17b88:	0001d6b0 	.word	0x0001d6b0
   17b8c:	50474d43 	.word	0x50474d43
   17b90:	00008934 	.word	0x00008934

00017b94 <assertion_failed>:
   17b94:	e92d40f0 	push	{r4, r5, r6, r7, lr}
   17b98:	e24dd01c 	sub	sp, sp, #28
   17b9c:	e1a05000 	mov	r5, r0
   17ba0:	e1a06001 	mov	r6, r1
   17ba4:	e1a07002 	mov	r7, r2
   17ba8:	e1a0400d 	mov	r4, sp
   17bac:	e28d000c 	add	r0, sp, #12
   17bb0:	ebffe4e1 	bl	10f3c <String>
   17bb4:	e1a03007 	mov	r3, r7
   17bb8:	e1a02006 	mov	r2, r6
   17bbc:	e59f1050 	ldr	r1, [pc, #80]	; 17c14 <assertion_failed+0x80>
   17bc0:	e28d000c 	add	r0, sp, #12
   17bc4:	ebffe769 	bl	11970 <StringFormat>
   17bc8:	e28d000c 	add	r0, sp, #12
   17bcc:	ebffe50a 	bl	10ffc <StringGet>
   17bd0:	e1a01000 	mov	r1, r0
   17bd4:	e1a00004 	mov	r0, r4
   17bd8:	eb000053 	bl	17d2c <debug_stacktrace>
   17bdc:	eb00008f 	bl	17e20 <LoggerGet>
   17be0:	e1a04000 	mov	r4, r0
   17be4:	e28d000c 	add	r0, sp, #12
   17be8:	ebffe503 	bl	10ffc <StringGet>
   17bec:	e58d5000 	str	r5, [sp]
   17bf0:	e59f3020 	ldr	r3, [pc, #32]	; 17c18 <assertion_failed+0x84>
   17bf4:	e3a02000 	mov	r2, #0
   17bf8:	e1a01000 	mov	r1, r0
   17bfc:	e1a00004 	mov	r0, r4
   17c00:	eb00012c 	bl	180b8 <LoggerWrite>
   17c04:	e28d000c 	add	r0, sp, #12
   17c08:	ebffe4eb 	bl	10fbc <_String>
   17c0c:	e28dd01c 	add	sp, sp, #28
   17c10:	e8bd80f0 	pop	{r4, r5, r6, r7, pc}
   17c14:	0001d6bc 	.word	0x0001d6bc
   17c18:	0001d6c4 	.word	0x0001d6c4

00017c1c <debug_hexdump>:
   17c1c:	e92d41f0 	push	{r4, r5, r6, r7, r8, lr}
   17c20:	e24dd048 	sub	sp, sp, #72	; 0x48
   17c24:	e1a04000 	mov	r4, r0
   17c28:	e1a05001 	mov	r5, r1
   17c2c:	e2526000 	subs	r6, r2, #0
   17c30:	e59f30e8 	ldr	r3, [pc, #232]	; 17d20 <debug_hexdump+0x104>
   17c34:	e3520000 	cmp	r2, #0
   17c38:	01a06003 	moveq	r6, r3
   17c3c:	eb000077 	bl	17e20 <LoggerGet>
   17c40:	e58d4004 	str	r4, [sp, #4]
   17c44:	e58d5000 	str	r5, [sp]
   17c48:	e59f30d4 	ldr	r3, [pc, #212]	; 17d24 <debug_hexdump+0x108>
   17c4c:	e3a02004 	mov	r2, #4
   17c50:	e1a01006 	mov	r1, r6
   17c54:	eb000117 	bl	180b8 <LoggerWrite>
   17c58:	e3550000 	cmp	r5, #0
   17c5c:	0a00002d 	beq	17d18 <debug_hexdump+0xfc>
   17c60:	e59f80c0 	ldr	r8, [pc, #192]	; 17d28 <debug_hexdump+0x10c>
   17c64:	e3a07004 	mov	r7, #4
   17c68:	eb00006c 	bl	17e20 <LoggerGet>
   17c6c:	e5d4300f 	ldrb	r3, [r4, #15]
   17c70:	e58d3040 	str	r3, [sp, #64]	; 0x40
   17c74:	e5d4300e 	ldrb	r3, [r4, #14]
   17c78:	e58d303c 	str	r3, [sp, #60]	; 0x3c
   17c7c:	e5d4300d 	ldrb	r3, [r4, #13]
   17c80:	e58d3038 	str	r3, [sp, #56]	; 0x38
   17c84:	e5d4300c 	ldrb	r3, [r4, #12]
   17c88:	e58d3034 	str	r3, [sp, #52]	; 0x34
   17c8c:	e5d4300b 	ldrb	r3, [r4, #11]
   17c90:	e58d3030 	str	r3, [sp, #48]	; 0x30
   17c94:	e5d4300a 	ldrb	r3, [r4, #10]
   17c98:	e58d302c 	str	r3, [sp, #44]	; 0x2c
   17c9c:	e5d43009 	ldrb	r3, [r4, #9]
   17ca0:	e58d3028 	str	r3, [sp, #40]	; 0x28
   17ca4:	e5d43008 	ldrb	r3, [r4, #8]
   17ca8:	e58d3024 	str	r3, [sp, #36]	; 0x24
   17cac:	e5d43007 	ldrb	r3, [r4, #7]
   17cb0:	e58d3020 	str	r3, [sp, #32]
   17cb4:	e5d43006 	ldrb	r3, [r4, #6]
   17cb8:	e58d301c 	str	r3, [sp, #28]
   17cbc:	e5d43005 	ldrb	r3, [r4, #5]
   17cc0:	e58d3018 	str	r3, [sp, #24]
   17cc4:	e5d43004 	ldrb	r3, [r4, #4]
   17cc8:	e58d3014 	str	r3, [sp, #20]
   17ccc:	e5d43003 	ldrb	r3, [r4, #3]
   17cd0:	e58d3010 	str	r3, [sp, #16]
   17cd4:	e5d43002 	ldrb	r3, [r4, #2]
   17cd8:	e58d300c 	str	r3, [sp, #12]
   17cdc:	e5d43001 	ldrb	r3, [r4, #1]
   17ce0:	e58d3008 	str	r3, [sp, #8]
   17ce4:	e5d43000 	ldrb	r3, [r4]
   17ce8:	e58d3004 	str	r3, [sp, #4]
   17cec:	e6ff3074 	uxth	r3, r4
   17cf0:	e58d3000 	str	r3, [sp]
   17cf4:	e1a03008 	mov	r3, r8
   17cf8:	e1a02007 	mov	r2, r7
   17cfc:	e1a01006 	mov	r1, r6
   17d00:	eb0000ec 	bl	180b8 <LoggerWrite>
   17d04:	e2844010 	add	r4, r4, #16
   17d08:	e355000f 	cmp	r5, #15
   17d0c:	9a000001 	bls	17d18 <debug_hexdump+0xfc>
   17d10:	e2555010 	subs	r5, r5, #16
   17d14:	1affffd3 	bne	17c68 <debug_hexdump+0x4c>
   17d18:	e28dd048 	add	sp, sp, #72	; 0x48
   17d1c:	e8bd81f0 	pop	{r4, r5, r6, r7, r8, pc}
   17d20:	0001d6dc 	.word	0x0001d6dc
   17d24:	0001d6e4 	.word	0x0001d6e4
   17d28:	0001d708 	.word	0x0001d708

00017d2c <debug_stacktrace>:
   17d2c:	e92d4ff0 	push	{r4, r5, r6, r7, r8, r9, sl, fp, lr}
   17d30:	e24dd00c 	sub	sp, sp, #12
   17d34:	e2519000 	subs	r9, r1, #0
   17d38:	e59f3068 	ldr	r3, [pc, #104]	; 17da8 <debug_stacktrace+0x7c>
   17d3c:	e3510000 	cmp	r1, #0
   17d40:	01a09003 	moveq	r9, r3
   17d44:	e2404004 	sub	r4, r0, #4
   17d48:	e3a05000 	mov	r5, #0
   17d4c:	e59f7058 	ldr	r7, [pc, #88]	; 17dac <debug_stacktrace+0x80>
   17d50:	e59f8058 	ldr	r8, [pc, #88]	; 17db0 <debug_stacktrace+0x84>
   17d54:	e59fb058 	ldr	fp, [pc, #88]	; 17db4 <debug_stacktrace+0x88>
   17d58:	e3a0a004 	mov	sl, #4
   17d5c:	e2844004 	add	r4, r4, #4
   17d60:	e5943000 	ldr	r3, [r4]
   17d64:	e1530007 	cmp	r3, r7
   17d68:	9a000009 	bls	17d94 <debug_stacktrace+0x68>
   17d6c:	e1530008 	cmp	r3, r8
   17d70:	2a000007 	bcs	17d94 <debug_stacktrace+0x68>
   17d74:	eb000029 	bl	17e20 <LoggerGet>
   17d78:	e5943000 	ldr	r3, [r4]
   17d7c:	e58d3004 	str	r3, [sp, #4]
   17d80:	e58d5000 	str	r5, [sp]
   17d84:	e1a0300b 	mov	r3, fp
   17d88:	e1a0200a 	mov	r2, sl
   17d8c:	e1a01009 	mov	r1, r9
   17d90:	eb0000c8 	bl	180b8 <LoggerWrite>
   17d94:	e2855001 	add	r5, r5, #1
   17d98:	e3550040 	cmp	r5, #64	; 0x40
   17d9c:	1affffee 	bne	17d5c <debug_stacktrace+0x30>
   17da0:	e28dd00c 	add	sp, sp, #12
   17da4:	e8bd8ff0 	pop	{r4, r5, r6, r7, r8, r9, sl, fp, pc}
   17da8:	0001d6dc 	.word	0x0001d6dc
   17dac:	00007fff 	.word	0x00007fff
   17db0:	0001b384 	.word	0x0001b384
   17db4:	0001d760 	.word	0x0001d760

00017db8 <__aeabi_uidiv>:
   17db8:	e92d4008 	push	{r3, lr}
   17dbc:	e3a02000 	mov	r2, #0
   17dc0:	eb000cbc 	bl	1b0b8 <Divide>
   17dc4:	e8bd8008 	pop	{r3, pc}

00017dc8 <__aeabi_uidivmod>:
   17dc8:	e52de004 	push	{lr}		; (str lr, [sp, #-4]!)
   17dcc:	e24dd00c 	sub	sp, sp, #12
   17dd0:	e28d2004 	add	r2, sp, #4
   17dd4:	eb000cb7 	bl	1b0b8 <Divide>
   17dd8:	e59d1004 	ldr	r1, [sp, #4]
   17ddc:	e28dd00c 	add	sp, sp, #12
   17de0:	e49df004 	pop	{pc}		; (ldr pc, [sp], #4)

00017de4 <Logger>:
   17de4:	e5801000 	str	r1, [r0]
   17de8:	e5802004 	str	r2, [r0, #4]
   17dec:	e3a03000 	mov	r3, #0
   17df0:	e5803008 	str	r3, [r0, #8]
   17df4:	e59f3004 	ldr	r3, [pc, #4]	; 17e00 <Logger+0x1c>
   17df8:	e5830000 	str	r0, [r3]
   17dfc:	e12fff1e 	bx	lr
   17e00:	00008948 	.word	0x00008948

00017e04 <_Logger>:
   17e04:	e3a03000 	mov	r3, #0
   17e08:	e59f200c 	ldr	r2, [pc, #12]	; 17e1c <_Logger+0x18>
   17e0c:	e5823000 	str	r3, [r2]
   17e10:	e5803008 	str	r3, [r0, #8]
   17e14:	e5803004 	str	r3, [r0, #4]
   17e18:	e12fff1e 	bx	lr
   17e1c:	00008948 	.word	0x00008948

00017e20 <LoggerGet>:
   17e20:	e59f3004 	ldr	r3, [pc, #4]	; 17e2c <LoggerGet+0xc>
   17e24:	e5930000 	ldr	r0, [r3]
   17e28:	e12fff1e 	bx	lr
   17e2c:	00008948 	.word	0x00008948

00017e30 <LoggerWrite2>:
   17e30:	e92d4070 	push	{r4, r5, r6, lr}
   17e34:	e1a05000 	mov	r5, r0
   17e38:	e1a04001 	mov	r4, r1
   17e3c:	e1a00001 	mov	r0, r1
   17e40:	eb000718 	bl	19aa8 <strlen>
   17e44:	e1a02000 	mov	r2, r0
   17e48:	e1a01004 	mov	r1, r4
   17e4c:	e5950008 	ldr	r0, [r5, #8]
   17e50:	eb0003ff 	bl	18e54 <ScreenDeviceWrite>
   17e54:	e8bd8070 	pop	{r4, r5, r6, pc}

00017e58 <LoggerWriteV>:
   17e58:	e590c000 	ldr	ip, [r0]
   17e5c:	e152000c 	cmp	r2, ip
   17e60:	812fff1e 	bxhi	lr
   17e64:	e92d41f0 	push	{r4, r5, r6, r7, r8, lr}
   17e68:	e24dd010 	sub	sp, sp, #16
   17e6c:	e1a05003 	mov	r5, r3
   17e70:	e1a07002 	mov	r7, r2
   17e74:	e1a06001 	mov	r6, r1
   17e78:	e1a04000 	mov	r4, r0
   17e7c:	e3520000 	cmp	r2, #0
   17e80:	1a000005 	bne	17e9c <LoggerWriteV+0x44>
   17e84:	e59f1218 	ldr	r1, [pc, #536]	; 180a4 <LoggerWriteV+0x24c>
   17e88:	ebffffe8 	bl	17e30 <LoggerWrite2>
   17e8c:	e5940004 	ldr	r0, [r4, #4]
   17e90:	e3500000 	cmp	r0, #0
   17e94:	1a00006b 	bne	18048 <LoggerWriteV+0x1f0>
   17e98:	ea00002a 	b	17f48 <LoggerWriteV+0xf0>
   17e9c:	e5900004 	ldr	r0, [r0, #4]
   17ea0:	e3500000 	cmp	r0, #0
   17ea4:	1a000051 	bne	17ff0 <LoggerWriteV+0x198>
   17ea8:	ea00006a 	b	18058 <LoggerWriteV+0x200>
   17eac:	e1a00008 	mov	r0, r8
   17eb0:	ebffe451 	bl	10ffc <StringGet>
   17eb4:	e1a01000 	mov	r1, r0
   17eb8:	e1a00004 	mov	r0, r4
   17ebc:	ebffffdb 	bl	17e30 <LoggerWrite2>
   17ec0:	e59f11e0 	ldr	r1, [pc, #480]	; 180a8 <LoggerWriteV+0x250>
   17ec4:	e1a00004 	mov	r0, r4
   17ec8:	ebffffd8 	bl	17e30 <LoggerWrite2>
   17ecc:	e1a00008 	mov	r0, r8
   17ed0:	ebffe439 	bl	10fbc <_String>
   17ed4:	e1a00008 	mov	r0, r8
   17ed8:	ebfffead 	bl	17994 <free>
   17edc:	e1a01006 	mov	r1, r6
   17ee0:	e1a00004 	mov	r0, r4
   17ee4:	ebffffd1 	bl	17e30 <LoggerWrite2>
   17ee8:	e59f11bc 	ldr	r1, [pc, #444]	; 180ac <LoggerWriteV+0x254>
   17eec:	e1a00004 	mov	r0, r4
   17ef0:	ebffffce 	bl	17e30 <LoggerWrite2>
   17ef4:	e28d0004 	add	r0, sp, #4
   17ef8:	ebffe40f 	bl	10f3c <String>
   17efc:	e59d2028 	ldr	r2, [sp, #40]	; 0x28
   17f00:	e1a01005 	mov	r1, r5
   17f04:	e28d0004 	add	r0, sp, #4
   17f08:	ebffe54b 	bl	1143c <StringFormatV>
   17f0c:	e28d0004 	add	r0, sp, #4
   17f10:	ebffe439 	bl	10ffc <StringGet>
   17f14:	e1a01000 	mov	r1, r0
   17f18:	e1a00004 	mov	r0, r4
   17f1c:	ebffffc3 	bl	17e30 <LoggerWrite2>
   17f20:	e3570000 	cmp	r7, #0
   17f24:	1a000019 	bne	17f90 <LoggerWriteV+0x138>
   17f28:	e59f1180 	ldr	r1, [pc, #384]	; 180b0 <LoggerWriteV+0x258>
   17f2c:	e1a00004 	mov	r0, r4
   17f30:	ebffffbe 	bl	17e30 <LoggerWrite2>
   17f34:	e59f1178 	ldr	r1, [pc, #376]	; 180b4 <LoggerWriteV+0x25c>
   17f38:	e1a00004 	mov	r0, r4
   17f3c:	ebffffbb 	bl	17e30 <LoggerWrite2>
   17f40:	f10c0080 	cpsid	i
   17f44:	eafffffe 	b	17f44 <LoggerWriteV+0xec>
   17f48:	e1a01006 	mov	r1, r6
   17f4c:	e1a00004 	mov	r0, r4
   17f50:	ebffffb6 	bl	17e30 <LoggerWrite2>
   17f54:	e59f1150 	ldr	r1, [pc, #336]	; 180ac <LoggerWriteV+0x254>
   17f58:	e1a00004 	mov	r0, r4
   17f5c:	ebffffb3 	bl	17e30 <LoggerWrite2>
   17f60:	e28d0004 	add	r0, sp, #4
   17f64:	ebffe3f4 	bl	10f3c <String>
   17f68:	e59d2028 	ldr	r2, [sp, #40]	; 0x28
   17f6c:	e1a01005 	mov	r1, r5
   17f70:	e28d0004 	add	r0, sp, #4
   17f74:	ebffe530 	bl	1143c <StringFormatV>
   17f78:	e28d0004 	add	r0, sp, #4
   17f7c:	ebffe41e 	bl	10ffc <StringGet>
   17f80:	e1a01000 	mov	r1, r0
   17f84:	e1a00004 	mov	r0, r4
   17f88:	ebffffa8 	bl	17e30 <LoggerWrite2>
   17f8c:	eaffffe5 	b	17f28 <LoggerWriteV+0xd0>
   17f90:	e59f111c 	ldr	r1, [pc, #284]	; 180b4 <LoggerWriteV+0x25c>
   17f94:	e1a00004 	mov	r0, r4
   17f98:	ebffffa4 	bl	17e30 <LoggerWrite2>
   17f9c:	e28d0004 	add	r0, sp, #4
   17fa0:	ebffe405 	bl	10fbc <_String>
   17fa4:	ea00003c 	b	1809c <LoggerWriteV+0x244>
   17fa8:	e1a01006 	mov	r1, r6
   17fac:	e1a00004 	mov	r0, r4
   17fb0:	ebffff9e 	bl	17e30 <LoggerWrite2>
   17fb4:	e59f10f0 	ldr	r1, [pc, #240]	; 180ac <LoggerWriteV+0x254>
   17fb8:	e1a00004 	mov	r0, r4
   17fbc:	ebffff9b 	bl	17e30 <LoggerWrite2>
   17fc0:	e28d0004 	add	r0, sp, #4
   17fc4:	ebffe3dc 	bl	10f3c <String>
   17fc8:	e59d2028 	ldr	r2, [sp, #40]	; 0x28
   17fcc:	e1a01005 	mov	r1, r5
   17fd0:	e28d0004 	add	r0, sp, #4
   17fd4:	ebffe518 	bl	1143c <StringFormatV>
   17fd8:	e28d0004 	add	r0, sp, #4
   17fdc:	ebffe406 	bl	10ffc <StringGet>
   17fe0:	e1a01000 	mov	r1, r0
   17fe4:	e1a00004 	mov	r0, r4
   17fe8:	ebffff90 	bl	17e30 <LoggerWrite2>
   17fec:	eaffffe7 	b	17f90 <LoggerWriteV+0x138>
   17ff0:	eb000428 	bl	19098 <TimerGetTimeString>
   17ff4:	e2508000 	subs	r8, r0, #0
   17ff8:	1affffab 	bne	17eac <LoggerWriteV+0x54>
   17ffc:	eaffffe9 	b	17fa8 <LoggerWriteV+0x150>
   18000:	e1a01006 	mov	r1, r6
   18004:	e1a00004 	mov	r0, r4
   18008:	ebffff88 	bl	17e30 <LoggerWrite2>
   1800c:	e59f1098 	ldr	r1, [pc, #152]	; 180ac <LoggerWriteV+0x254>
   18010:	e1a00004 	mov	r0, r4
   18014:	ebffff85 	bl	17e30 <LoggerWrite2>
   18018:	e28d0004 	add	r0, sp, #4
   1801c:	ebffe3c6 	bl	10f3c <String>
   18020:	e59d2028 	ldr	r2, [sp, #40]	; 0x28
   18024:	e1a01005 	mov	r1, r5
   18028:	e28d0004 	add	r0, sp, #4
   1802c:	ebffe502 	bl	1143c <StringFormatV>
   18030:	e28d0004 	add	r0, sp, #4
   18034:	ebffe3f0 	bl	10ffc <StringGet>
   18038:	e1a01000 	mov	r1, r0
   1803c:	e1a00004 	mov	r0, r4
   18040:	ebffff7a 	bl	17e30 <LoggerWrite2>
   18044:	eaffffb7 	b	17f28 <LoggerWriteV+0xd0>
   18048:	eb000412 	bl	19098 <TimerGetTimeString>
   1804c:	e2508000 	subs	r8, r0, #0
   18050:	1affff95 	bne	17eac <LoggerWriteV+0x54>
   18054:	eaffffe9 	b	18000 <LoggerWriteV+0x1a8>
   18058:	e1a00004 	mov	r0, r4
   1805c:	ebffff73 	bl	17e30 <LoggerWrite2>
   18060:	e59f1044 	ldr	r1, [pc, #68]	; 180ac <LoggerWriteV+0x254>
   18064:	e1a00004 	mov	r0, r4
   18068:	ebffff70 	bl	17e30 <LoggerWrite2>
   1806c:	e28d0004 	add	r0, sp, #4
   18070:	ebffe3b1 	bl	10f3c <String>
   18074:	e59d2028 	ldr	r2, [sp, #40]	; 0x28
   18078:	e1a01005 	mov	r1, r5
   1807c:	e28d0004 	add	r0, sp, #4
   18080:	ebffe4ed 	bl	1143c <StringFormatV>
   18084:	e28d0004 	add	r0, sp, #4
   18088:	ebffe3db 	bl	10ffc <StringGet>
   1808c:	e1a01000 	mov	r1, r0
   18090:	e1a00004 	mov	r0, r4
   18094:	ebffff65 	bl	17e30 <LoggerWrite2>
   18098:	eaffffbc 	b	17f90 <LoggerWriteV+0x138>
   1809c:	e28dd010 	add	sp, sp, #16
   180a0:	e8bd81f0 	pop	{r4, r5, r6, r7, r8, pc}
   180a4:	0001d774 	.word	0x0001d774
   180a8:	0001d530 	.word	0x0001d530
   180ac:	0001d77c 	.word	0x0001d77c
   180b0:	0001d780 	.word	0x0001d780
   180b4:	0001d540 	.word	0x0001d540

000180b8 <LoggerWrite>:
   180b8:	e52d3004 	push	{r3}		; (str r3, [sp, #-4]!)
   180bc:	e52de004 	push	{lr}		; (str lr, [sp, #-4]!)
   180c0:	e24dd010 	sub	sp, sp, #16
   180c4:	e28d3018 	add	r3, sp, #24
   180c8:	e58d300c 	str	r3, [sp, #12]
   180cc:	e58d3000 	str	r3, [sp]
   180d0:	e59d3014 	ldr	r3, [sp, #20]
   180d4:	ebffff5f 	bl	17e58 <LoggerWriteV>
   180d8:	e28dd010 	add	sp, sp, #16
   180dc:	e49de004 	pop	{lr}		; (ldr lr, [sp], #4)
   180e0:	e28dd004 	add	sp, sp, #4
   180e4:	e12fff1e 	bx	lr

000180e8 <LoggerInitialize>:
   180e8:	e92d4010 	push	{r4, lr}
   180ec:	e5801008 	str	r1, [r0, #8]
   180f0:	e59f3010 	ldr	r3, [pc, #16]	; 18108 <LoggerInitialize+0x20>
   180f4:	e3a02003 	mov	r2, #3
   180f8:	e59f100c 	ldr	r1, [pc, #12]	; 1810c <LoggerInitialize+0x24>
   180fc:	ebffffed 	bl	180b8 <LoggerWrite>
   18100:	e3a00001 	mov	r0, #1
   18104:	e8bd8010 	pop	{r4, pc}
   18108:	0001d788 	.word	0x0001d788
   1810c:	0001d798 	.word	0x0001d798

00018110 <ScreenDevice>:
   18110:	e92d4070 	push	{r4, r5, r6, lr}
   18114:	e1a04000 	mov	r4, r0
   18118:	e1a06001 	mov	r6, r1
   1811c:	e1a05002 	mov	r5, r2
   18120:	e280000c 	add	r0, r0, #12
   18124:	eb000a13 	bl	1a978 <CharGenerator>
   18128:	e5846000 	str	r6, [r4]
   1812c:	e5845004 	str	r5, [r4, #4]
   18130:	e3a03000 	mov	r3, #0
   18134:	e5843008 	str	r3, [r4, #8]
   18138:	e5843010 	str	r3, [r4, #16]
   1813c:	e5843028 	str	r3, [r4, #40]	; 0x28
   18140:	e584302c 	str	r3, [r4, #44]	; 0x2c
   18144:	e5843030 	str	r3, [r4, #48]	; 0x30
   18148:	e3a02001 	mov	r2, #1
   1814c:	e5842034 	str	r2, [r4, #52]	; 0x34
   18150:	e5c42038 	strb	r2, [r4, #56]	; 0x38
   18154:	e584303c 	str	r3, [r4, #60]	; 0x3c
   18158:	e8bd8070 	pop	{r4, r5, r6, pc}

0001815c <_ScreenDevice>:
   1815c:	e92d4070 	push	{r4, r5, r6, lr}
   18160:	e1a04000 	mov	r4, r0
   18164:	e3a05000 	mov	r5, #0
   18168:	e5805010 	str	r5, [r0, #16]
   1816c:	e5900008 	ldr	r0, [r0, #8]
   18170:	eb00090a 	bl	1a5a0 <_BcmFrameBuffer>
   18174:	e5940008 	ldr	r0, [r4, #8]
   18178:	ebfffe05 	bl	17994 <free>
   1817c:	e5845008 	str	r5, [r4, #8]
   18180:	e284000c 	add	r0, r4, #12
   18184:	eb000a07 	bl	1a9a8 <_CharGenerator>
   18188:	e8bd8070 	pop	{r4, r5, r6, pc}

0001818c <ScreenDeviceGetWidth>:
   1818c:	e590001c 	ldr	r0, [r0, #28]
   18190:	e12fff1e 	bx	lr

00018194 <ScreenDeviceGetHeight>:
   18194:	e5900020 	ldr	r0, [r0, #32]
   18198:	e12fff1e 	bx	lr

0001819c <ScreenDeviceSetPixel>:
   1819c:	e590c01c 	ldr	ip, [r0, #28]
   181a0:	e15c0001 	cmp	ip, r1
   181a4:	912fff1e 	bxls	lr
   181a8:	e590c020 	ldr	ip, [r0, #32]
   181ac:	e15c0002 	cmp	ip, r2
   181b0:	8590c018 	ldrhi	ip, [r0, #24]
   181b4:	85900010 	ldrhi	r0, [r0, #16]
   181b8:	8022029c 	mlahi	r2, ip, r2, r0
   181bc:	87c23001 	strbhi	r3, [r2, r1]
   181c0:	e12fff1e 	bx	lr

000181c4 <ScreenDeviceGetPixel>:
   181c4:	e590301c 	ldr	r3, [r0, #28]
   181c8:	e1530001 	cmp	r3, r1
   181cc:	9a000007 	bls	181f0 <ScreenDeviceGetPixel+0x2c>
   181d0:	e5903020 	ldr	r3, [r0, #32]
   181d4:	e1530002 	cmp	r3, r2
   181d8:	9a000006 	bls	181f8 <ScreenDeviceGetPixel+0x34>
   181dc:	e590c018 	ldr	ip, [r0, #24]
   181e0:	e5903010 	ldr	r3, [r0, #16]
   181e4:	e022329c 	mla	r2, ip, r2, r3
   181e8:	e7d20001 	ldrb	r0, [r2, r1]
   181ec:	e12fff1e 	bx	lr
   181f0:	e3a00000 	mov	r0, #0
   181f4:	e12fff1e 	bx	lr
   181f8:	e3a00000 	mov	r0, #0
   181fc:	e12fff1e 	bx	lr

00018200 <ScreenDeviceCarriageReturn>:
   18200:	e3a03000 	mov	r3, #0
   18204:	e580302c 	str	r3, [r0, #44]	; 0x2c
   18208:	e12fff1e 	bx	lr

0001820c <ScreenDeviceCursorHome>:
   1820c:	e3a03000 	mov	r3, #0
   18210:	e580302c 	str	r3, [r0, #44]	; 0x2c
   18214:	e5803030 	str	r3, [r0, #48]	; 0x30
   18218:	e12fff1e 	bx	lr

0001821c <ScreenDeviceCursorLeft>:
   1821c:	e92d4070 	push	{r4, r5, r6, lr}
   18220:	e1a04000 	mov	r4, r0
   18224:	e590302c 	ldr	r3, [r0, #44]	; 0x2c
   18228:	e3530000 	cmp	r3, #0
   1822c:	0a000005 	beq	18248 <ScreenDeviceCursorLeft+0x2c>
   18230:	e280000c 	add	r0, r0, #12
   18234:	eb0009dc 	bl	1a9ac <CharGeneratorGetCharWidth>
   18238:	e594302c 	ldr	r3, [r4, #44]	; 0x2c
   1823c:	e0600003 	rsb	r0, r0, r3
   18240:	e584002c 	str	r0, [r4, #44]	; 0x2c
   18244:	e8bd8070 	pop	{r4, r5, r6, pc}
   18248:	e5903030 	ldr	r3, [r0, #48]	; 0x30
   1824c:	e3530000 	cmp	r3, #0
   18250:	08bd8070 	popeq	{r4, r5, r6, pc}
   18254:	e590501c 	ldr	r5, [r0, #28]
   18258:	e280600c 	add	r6, r0, #12
   1825c:	e1a00006 	mov	r0, r6
   18260:	eb0009d1 	bl	1a9ac <CharGeneratorGetCharWidth>
   18264:	e0600005 	rsb	r0, r0, r5
   18268:	e584002c 	str	r0, [r4, #44]	; 0x2c
   1826c:	e1a00006 	mov	r0, r6
   18270:	eb0009d8 	bl	1a9d8 <CharGeneratorGetCharHeight>
   18274:	e5943030 	ldr	r3, [r4, #48]	; 0x30
   18278:	e0600003 	rsb	r0, r0, r3
   1827c:	e5840030 	str	r0, [r4, #48]	; 0x30
   18280:	e8bd8070 	pop	{r4, r5, r6, pc}

00018284 <ScreenDeviceCursorMove>:
   18284:	e92d41f0 	push	{r4, r5, r6, r7, r8, lr}
   18288:	e1a05000 	mov	r5, r0
   1828c:	e1a07001 	mov	r7, r1
   18290:	e1a04002 	mov	r4, r2
   18294:	e280600c 	add	r6, r0, #12
   18298:	e1a00006 	mov	r0, r6
   1829c:	eb0009c2 	bl	1a9ac <CharGeneratorGetCharWidth>
   182a0:	e2444001 	sub	r4, r4, #1
   182a4:	e0040490 	mul	r4, r0, r4
   182a8:	e1a00006 	mov	r0, r6
   182ac:	eb0009c9 	bl	1a9d8 <CharGeneratorGetCharHeight>
   182b0:	e595301c 	ldr	r3, [r5, #28]
   182b4:	e1540003 	cmp	r4, r3
   182b8:	28bd81f0 	popcs	{r4, r5, r6, r7, r8, pc}
   182bc:	e2477001 	sub	r7, r7, #1
   182c0:	e0000790 	mul	r0, r0, r7
   182c4:	e5953024 	ldr	r3, [r5, #36]	; 0x24
   182c8:	e1500003 	cmp	r0, r3
   182cc:	3585402c 	strcc	r4, [r5, #44]	; 0x2c
   182d0:	35850030 	strcc	r0, [r5, #48]	; 0x30
   182d4:	e8bd81f0 	pop	{r4, r5, r6, r7, r8, pc}

000182d8 <ScreenDeviceCursorUp>:
   182d8:	e92d4070 	push	{r4, r5, r6, lr}
   182dc:	e1a04000 	mov	r4, r0
   182e0:	e5906030 	ldr	r6, [r0, #48]	; 0x30
   182e4:	e280500c 	add	r5, r0, #12
   182e8:	e1a00005 	mov	r0, r5
   182ec:	eb0009b9 	bl	1a9d8 <CharGeneratorGetCharHeight>
   182f0:	e1560000 	cmp	r6, r0
   182f4:	38bd8070 	popcc	{r4, r5, r6, pc}
   182f8:	e1a00005 	mov	r0, r5
   182fc:	eb0009b5 	bl	1a9d8 <CharGeneratorGetCharHeight>
   18300:	e5943030 	ldr	r3, [r4, #48]	; 0x30
   18304:	e0600003 	rsb	r0, r0, r3
   18308:	e5840030 	str	r0, [r4, #48]	; 0x30
   1830c:	e8bd8070 	pop	{r4, r5, r6, pc}

00018310 <ScreenDeviceDeleteChars>:
   18310:	e12fff1e 	bx	lr

00018314 <ScreenDeviceDeleteLines>:
   18314:	e12fff1e 	bx	lr

00018318 <ScreenDeviceInsertLines>:
   18318:	e12fff1e 	bx	lr

0001831c <ScreenDeviceInsertMode>:
   1831c:	e580103c 	str	r1, [r0, #60]	; 0x3c
   18320:	e12fff1e 	bx	lr

00018324 <ScreenDeviceReverseScroll>:
   18324:	e12fff1e 	bx	lr

00018328 <ScreenDeviceSetCursorMode>:
   18328:	e5801034 	str	r1, [r0, #52]	; 0x34
   1832c:	e12fff1e 	bx	lr

00018330 <ScreenDeviceSetStandoutMode>:
   18330:	e351001b 	cmp	r1, #27
   18334:	979ff101 	ldrls	pc, [pc, r1, lsl #2]
   18338:	ea000023 	b	183cc <ScreenDeviceSetStandoutMode+0x9c>
   1833c:	000183ac 	.word	0x000183ac
   18340:	000183b8 	.word	0x000183b8
   18344:	000183c4 	.word	0x000183c4
   18348:	000183cc 	.word	0x000183cc
   1834c:	000183cc 	.word	0x000183cc
   18350:	000183cc 	.word	0x000183cc
   18354:	000183cc 	.word	0x000183cc
   18358:	000183cc 	.word	0x000183cc
   1835c:	000183cc 	.word	0x000183cc
   18360:	000183cc 	.word	0x000183cc
   18364:	000183cc 	.word	0x000183cc
   18368:	000183cc 	.word	0x000183cc
   1836c:	000183cc 	.word	0x000183cc
   18370:	000183cc 	.word	0x000183cc
   18374:	000183cc 	.word	0x000183cc
   18378:	000183cc 	.word	0x000183cc
   1837c:	000183cc 	.word	0x000183cc
   18380:	000183cc 	.word	0x000183cc
   18384:	000183cc 	.word	0x000183cc
   18388:	000183cc 	.word	0x000183cc
   1838c:	000183cc 	.word	0x000183cc
   18390:	000183cc 	.word	0x000183cc
   18394:	000183cc 	.word	0x000183cc
   18398:	000183cc 	.word	0x000183cc
   1839c:	000183cc 	.word	0x000183cc
   183a0:	000183cc 	.word	0x000183cc
   183a4:	000183cc 	.word	0x000183cc
   183a8:	000183ac 	.word	0x000183ac
   183ac:	e3a03001 	mov	r3, #1
   183b0:	e5c03038 	strb	r3, [r0, #56]	; 0x38
   183b4:	e12fff1e 	bx	lr
   183b8:	e3a03002 	mov	r3, #2
   183bc:	e5c03038 	strb	r3, [r0, #56]	; 0x38
   183c0:	e12fff1e 	bx	lr
   183c4:	e3a03003 	mov	r3, #3
   183c8:	e5c03038 	strb	r3, [r0, #56]	; 0x38
   183cc:	e12fff1e 	bx	lr

000183d0 <ScreenDeviceScroll>:
   183d0:	e92d47f0 	push	{r4, r5, r6, r7, r8, r9, sl, lr}
   183d4:	e1a05000 	mov	r5, r0
   183d8:	e280000c 	add	r0, r0, #12
   183dc:	eb00097d 	bl	1a9d8 <CharGeneratorGetCharHeight>
   183e0:	e1a08000 	mov	r8, r0
   183e4:	e5954024 	ldr	r4, [r5, #36]	; 0x24
   183e8:	e5956018 	ldr	r6, [r5, #24]
   183ec:	e5957010 	ldr	r7, [r5, #16]
   183f0:	e0604004 	rsb	r4, r0, r4
   183f4:	e0040496 	mul	r4, r6, r4
   183f8:	e0267096 	mla	r6, r6, r0, r7
   183fc:	e3c490ff 	bic	r9, r4, #255	; 0xff
   18400:	e1a02009 	mov	r2, r9
   18404:	e1a01006 	mov	r1, r6
   18408:	e1a00007 	mov	r0, r7
   1840c:	eb000618 	bl	19c74 <memcpyblk>
   18410:	e6ef2074 	uxtb	r2, r4
   18414:	e0861009 	add	r1, r6, r9
   18418:	e0870009 	add	r0, r7, r9
   1841c:	eb00057a 	bl	19a0c <memcpy>
   18420:	e5952018 	ldr	r2, [r5, #24]
   18424:	e0020892 	mul	r2, r2, r8
   18428:	e1b02122 	lsrs	r2, r2, #2
   1842c:	08bd87f0 	popeq	{r4, r5, r6, r7, r8, r9, sl, pc}
   18430:	e1a00124 	lsr	r0, r4, #2
   18434:	e0870100 	add	r0, r7, r0, lsl #2
   18438:	e1a02102 	lsl	r2, r2, #2
   1843c:	e3a01000 	mov	r1, #0
   18440:	e8bd47f0 	pop	{r4, r5, r6, r7, r8, r9, sl, lr}
   18444:	ea000568 	b	199ec <memset>

00018448 <ScreenDeviceCursorDown>:
   18448:	e92d4070 	push	{r4, r5, r6, lr}
   1844c:	e1a04000 	mov	r4, r0
   18450:	e280500c 	add	r5, r0, #12
   18454:	e1a00005 	mov	r0, r5
   18458:	eb00095e 	bl	1a9d8 <CharGeneratorGetCharHeight>
   1845c:	e5943030 	ldr	r3, [r4, #48]	; 0x30
   18460:	e0800003 	add	r0, r0, r3
   18464:	e5840030 	str	r0, [r4, #48]	; 0x30
   18468:	e5943024 	ldr	r3, [r4, #36]	; 0x24
   1846c:	e1500003 	cmp	r0, r3
   18470:	38bd8070 	popcc	{r4, r5, r6, pc}
   18474:	e1a00004 	mov	r0, r4
   18478:	ebffffd4 	bl	183d0 <ScreenDeviceScroll>
   1847c:	e1a00005 	mov	r0, r5
   18480:	eb000954 	bl	1a9d8 <CharGeneratorGetCharHeight>
   18484:	e5943030 	ldr	r3, [r4, #48]	; 0x30
   18488:	e0600003 	rsb	r0, r0, r3
   1848c:	e5840030 	str	r0, [r4, #48]	; 0x30
   18490:	e8bd8070 	pop	{r4, r5, r6, pc}

00018494 <ScreenDeviceNewLine>:
   18494:	e92d4010 	push	{r4, lr}
   18498:	e3a02000 	mov	r2, #0
   1849c:	e580202c 	str	r2, [r0, #44]	; 0x2c
   184a0:	ebffffe8 	bl	18448 <ScreenDeviceCursorDown>
   184a4:	e8bd8010 	pop	{r4, pc}

000184a8 <ScreenDeviceCursorRight>:
   184a8:	e92d4010 	push	{r4, lr}
   184ac:	e1a04000 	mov	r4, r0
   184b0:	e280000c 	add	r0, r0, #12
   184b4:	eb00093c 	bl	1a9ac <CharGeneratorGetCharWidth>
   184b8:	e594302c 	ldr	r3, [r4, #44]	; 0x2c
   184bc:	e0800003 	add	r0, r0, r3
   184c0:	e584002c 	str	r0, [r4, #44]	; 0x2c
   184c4:	e594301c 	ldr	r3, [r4, #28]
   184c8:	e1500003 	cmp	r0, r3
   184cc:	38bd8010 	popcc	{r4, pc}
   184d0:	e1a00004 	mov	r0, r4
   184d4:	ebffffee 	bl	18494 <ScreenDeviceNewLine>
   184d8:	e8bd8010 	pop	{r4, pc}

000184dc <ScreenDeviceTabulator>:
   184dc:	e92d4070 	push	{r4, r5, r6, lr}
   184e0:	e1a05000 	mov	r5, r0
   184e4:	e280000c 	add	r0, r0, #12
   184e8:	eb00092f 	bl	1a9ac <CharGeneratorGetCharWidth>
   184ec:	e1a04180 	lsl	r4, r0, #3
   184f0:	e595002c 	ldr	r0, [r5, #44]	; 0x2c
   184f4:	e1a01004 	mov	r1, r4
   184f8:	e0840000 	add	r0, r4, r0
   184fc:	ebfffe2d 	bl	17db8 <__aeabi_uidiv>
   18500:	e0000094 	mul	r0, r4, r0
   18504:	e585002c 	str	r0, [r5, #44]	; 0x2c
   18508:	e595301c 	ldr	r3, [r5, #28]
   1850c:	e1500003 	cmp	r0, r3
   18510:	38bd8070 	popcc	{r4, r5, r6, pc}
   18514:	e1a00005 	mov	r0, r5
   18518:	ebffffdd 	bl	18494 <ScreenDeviceNewLine>
   1851c:	e8bd8070 	pop	{r4, r5, r6, pc}

00018520 <ScreenDeviceDisplayChar2>:
   18520:	e92d4ff0 	push	{r4, r5, r6, r7, r8, r9, sl, fp, lr}
   18524:	e24dd00c 	sub	sp, sp, #12
   18528:	e1a09000 	mov	r9, r0
   1852c:	e58d1000 	str	r1, [sp]
   18530:	e1a0b002 	mov	fp, r2
   18534:	e58d3004 	str	r3, [sp, #4]
   18538:	e5dda030 	ldrb	sl, [sp, #48]	; 0x30
   1853c:	e3a07000 	mov	r7, #0
   18540:	e280500c 	add	r5, r0, #12
   18544:	ea000016 	b	185a4 <ScreenDeviceDisplayChar2+0x84>
   18548:	e084600b 	add	r6, r4, fp
   1854c:	e1a03007 	mov	r3, r7
   18550:	e1a02004 	mov	r2, r4
   18554:	e59d1000 	ldr	r1, [sp]
   18558:	e1a00005 	mov	r0, r5
   1855c:	eb000937 	bl	1aa40 <CharGeneratorGetPixel>
   18560:	e3500000 	cmp	r0, #0
   18564:	11a0300a 	movne	r3, sl
   18568:	03a03000 	moveq	r3, #0
   1856c:	e1a02008 	mov	r2, r8
   18570:	e1a01006 	mov	r1, r6
   18574:	e1a00009 	mov	r0, r9
   18578:	ebffff07 	bl	1819c <ScreenDeviceSetPixel>
   1857c:	e2844001 	add	r4, r4, #1
   18580:	ea000002 	b	18590 <ScreenDeviceDisplayChar2+0x70>
   18584:	e3a04000 	mov	r4, #0
   18588:	e59d3004 	ldr	r3, [sp, #4]
   1858c:	e0878003 	add	r8, r7, r3
   18590:	e1a00005 	mov	r0, r5
   18594:	eb000904 	bl	1a9ac <CharGeneratorGetCharWidth>
   18598:	e1540000 	cmp	r4, r0
   1859c:	3affffe9 	bcc	18548 <ScreenDeviceDisplayChar2+0x28>
   185a0:	e2877001 	add	r7, r7, #1
   185a4:	e1a00005 	mov	r0, r5
   185a8:	eb00090a 	bl	1a9d8 <CharGeneratorGetCharHeight>
   185ac:	e1570000 	cmp	r7, r0
   185b0:	3afffff3 	bcc	18584 <ScreenDeviceDisplayChar2+0x64>
   185b4:	e28dd00c 	add	sp, sp, #12
   185b8:	e8bd8ff0 	pop	{r4, r5, r6, r7, r8, r9, sl, fp, pc}

000185bc <ScreenDeviceRotor>:
   185bc:	e92d40f0 	push	{r4, r5, r6, r7, lr}
   185c0:	e24dd00c 	sub	sp, sp, #12
   185c4:	e1a05000 	mov	r5, r0
   185c8:	e1a04001 	mov	r4, r1
   185cc:	e1a06002 	mov	r6, r2
   185d0:	e590701c 	ldr	r7, [r0, #28]
   185d4:	e280000c 	add	r0, r0, #12
   185d8:	eb0008f3 	bl	1a9ac <CharGeneratorGetCharWidth>
   185dc:	e2044003 	and	r4, r4, #3
   185e0:	e0200094 	mla	r0, r4, r0, r0
   185e4:	e2066003 	and	r6, r6, #3
   185e8:	e59f3020 	ldr	r3, [pc, #32]	; 18610 <ScreenDeviceRotor+0x54>
   185ec:	e19310d6 	ldrsb	r1, [r3, r6]
   185f0:	e3a03002 	mov	r3, #2
   185f4:	e58d3000 	str	r3, [sp]
   185f8:	e3a03000 	mov	r3, #0
   185fc:	e0602007 	rsb	r2, r0, r7
   18600:	e1a00005 	mov	r0, r5
   18604:	ebffffc5 	bl	18520 <ScreenDeviceDisplayChar2>
   18608:	e28dd00c 	add	sp, sp, #12
   1860c:	e8bd80f0 	pop	{r4, r5, r6, r7, pc}
   18610:	0001d7a0 	.word	0x0001d7a0

00018614 <ScreenDeviceDisplayChar>:
   18614:	e6ef3071 	uxtb	r3, r1
   18618:	e353001f 	cmp	r3, #31
   1861c:	912fff1e 	bxls	lr
   18620:	e92d4010 	push	{r4, lr}
   18624:	e24dd008 	sub	sp, sp, #8
   18628:	e1a04000 	mov	r4, r0
   1862c:	e5d03038 	ldrb	r3, [r0, #56]	; 0x38
   18630:	e58d3000 	str	r3, [sp]
   18634:	e5903030 	ldr	r3, [r0, #48]	; 0x30
   18638:	e590202c 	ldr	r2, [r0, #44]	; 0x2c
   1863c:	ebffffb7 	bl	18520 <ScreenDeviceDisplayChar2>
   18640:	e1a00004 	mov	r0, r4
   18644:	ebffff97 	bl	184a8 <ScreenDeviceCursorRight>
   18648:	e28dd008 	add	sp, sp, #8
   1864c:	e8bd8010 	pop	{r4, pc}

00018650 <ScreenDeviceEraseChar>:
   18650:	e92d4ff8 	push	{r3, r4, r5, r6, r7, r8, r9, sl, fp, lr}
   18654:	e1a07000 	mov	r7, r0
   18658:	e1a09001 	mov	r9, r1
   1865c:	e1a0b002 	mov	fp, r2
   18660:	e3a0a000 	mov	sl, #0
   18664:	e280500c 	add	r5, r0, #12
   18668:	e1a0800a 	mov	r8, sl
   1866c:	ea00000d 	b	186a8 <ScreenDeviceEraseChar+0x58>
   18670:	e1a03008 	mov	r3, r8
   18674:	e1a02006 	mov	r2, r6
   18678:	e0841009 	add	r1, r4, r9
   1867c:	e1a00007 	mov	r0, r7
   18680:	ebfffec5 	bl	1819c <ScreenDeviceSetPixel>
   18684:	e2844001 	add	r4, r4, #1
   18688:	ea000001 	b	18694 <ScreenDeviceEraseChar+0x44>
   1868c:	e3a04000 	mov	r4, #0
   18690:	e08a600b 	add	r6, sl, fp
   18694:	e1a00005 	mov	r0, r5
   18698:	eb0008c3 	bl	1a9ac <CharGeneratorGetCharWidth>
   1869c:	e1540000 	cmp	r4, r0
   186a0:	3afffff2 	bcc	18670 <ScreenDeviceEraseChar+0x20>
   186a4:	e28aa001 	add	sl, sl, #1
   186a8:	e1a00005 	mov	r0, r5
   186ac:	eb0008c9 	bl	1a9d8 <CharGeneratorGetCharHeight>
   186b0:	e15a0000 	cmp	sl, r0
   186b4:	3afffff4 	bcc	1868c <ScreenDeviceEraseChar+0x3c>
   186b8:	e8bd8ff8 	pop	{r3, r4, r5, r6, r7, r8, r9, sl, fp, pc}

000186bc <ScreenDeviceClearLineEnd>:
   186bc:	e92d4070 	push	{r4, r5, r6, lr}
   186c0:	e590402c 	ldr	r4, [r0, #44]	; 0x2c
   186c4:	e590301c 	ldr	r3, [r0, #28]
   186c8:	e1540003 	cmp	r4, r3
   186cc:	28bd8070 	popcs	{r4, r5, r6, pc}
   186d0:	e1a05000 	mov	r5, r0
   186d4:	e280600c 	add	r6, r0, #12
   186d8:	e5952030 	ldr	r2, [r5, #48]	; 0x30
   186dc:	e1a01004 	mov	r1, r4
   186e0:	e1a00005 	mov	r0, r5
   186e4:	ebffffd9 	bl	18650 <ScreenDeviceEraseChar>
   186e8:	e1a00006 	mov	r0, r6
   186ec:	eb0008ae 	bl	1a9ac <CharGeneratorGetCharWidth>
   186f0:	e0844000 	add	r4, r4, r0
   186f4:	e595301c 	ldr	r3, [r5, #28]
   186f8:	e1530004 	cmp	r3, r4
   186fc:	8afffff5 	bhi	186d8 <ScreenDeviceClearLineEnd+0x1c>
   18700:	e8bd8070 	pop	{r4, r5, r6, pc}

00018704 <ScreenDeviceClearDisplayEnd>:
   18704:	e92d4070 	push	{r4, r5, r6, lr}
   18708:	e1a04000 	mov	r4, r0
   1870c:	ebffffea 	bl	186bc <ScreenDeviceClearLineEnd>
   18710:	e284000c 	add	r0, r4, #12
   18714:	e5945030 	ldr	r5, [r4, #48]	; 0x30
   18718:	eb0008ae 	bl	1a9d8 <CharGeneratorGetCharHeight>
   1871c:	e5943018 	ldr	r3, [r4, #24]
   18720:	e0850000 	add	r0, r5, r0
   18724:	e0000093 	mul	r0, r3, r0
   18728:	e5942014 	ldr	r2, [r4, #20]
   1872c:	e5943010 	ldr	r3, [r4, #16]
   18730:	e0522000 	subs	r2, r2, r0
   18734:	08bd8070 	popeq	{r4, r5, r6, pc}
   18738:	e0830000 	add	r0, r3, r0
   1873c:	e3a01000 	mov	r1, #0
   18740:	e8bd4070 	pop	{r4, r5, r6, lr}
   18744:	ea0004a8 	b	199ec <memset>

00018748 <ScreenDeviceEraseChars>:
   18748:	e3510000 	cmp	r1, #0
   1874c:	012fff1e 	bxeq	lr
   18750:	e92d41f0 	push	{r4, r5, r6, r7, r8, lr}
   18754:	e1a06001 	mov	r6, r1
   18758:	e1a05000 	mov	r5, r0
   1875c:	e590402c 	ldr	r4, [r0, #44]	; 0x2c
   18760:	e280700c 	add	r7, r0, #12
   18764:	e1a00007 	mov	r0, r7
   18768:	eb00088f 	bl	1a9ac <CharGeneratorGetCharWidth>
   1876c:	e0204690 	mla	r0, r0, r6, r4
   18770:	e595601c 	ldr	r6, [r5, #28]
   18774:	e1500006 	cmp	r0, r6
   18778:	31a06000 	movcc	r6, r0
   1877c:	e595402c 	ldr	r4, [r5, #44]	; 0x2c
   18780:	e1540006 	cmp	r4, r6
   18784:	28bd81f0 	popcs	{r4, r5, r6, r7, r8, pc}
   18788:	e5952030 	ldr	r2, [r5, #48]	; 0x30
   1878c:	e1a01004 	mov	r1, r4
   18790:	e1a00005 	mov	r0, r5
   18794:	ebffffad 	bl	18650 <ScreenDeviceEraseChar>
   18798:	e1a00007 	mov	r0, r7
   1879c:	eb000882 	bl	1a9ac <CharGeneratorGetCharWidth>
   187a0:	e0844000 	add	r4, r4, r0
   187a4:	e1540006 	cmp	r4, r6
   187a8:	3afffff6 	bcc	18788 <ScreenDeviceEraseChars+0x40>
   187ac:	e8bd81f0 	pop	{r4, r5, r6, r7, r8, pc}

000187b0 <ScreenDeviceWrite2>:
   187b0:	e92d4010 	push	{r4, lr}
   187b4:	e1a04000 	mov	r4, r0
   187b8:	e5903028 	ldr	r3, [r0, #40]	; 0x28
   187bc:	e3530007 	cmp	r3, #7
   187c0:	979ff103 	ldrls	pc, [pc, r3, lsl #2]
   187c4:	ea00012e 	b	18c84 <ScreenDeviceWrite2+0x4d4>
   187c8:	000187e8 	.word	0x000187e8
   187cc:	00018880 	.word	0x00018880
   187d0:	000188b8 	.word	0x000188b8
   187d4:	000189c8 	.word	0x000189c8
   187d8:	00018b88 	.word	0x00018b88
   187dc:	00018b64 	.word	0x00018b64
   187e0:	00018bac 	.word	0x00018bac
   187e4:	00018c0c 	.word	0x00018c0c
   187e8:	e2413008 	sub	r3, r1, #8
   187ec:	e3530013 	cmp	r3, #19
   187f0:	979ff103 	ldrls	pc, [pc, r3, lsl #2]
   187f4:	ea00001f 	b	18878 <ScreenDeviceWrite2+0xc8>
   187f8:	00018848 	.word	0x00018848
   187fc:	00018850 	.word	0x00018850
   18800:	00018858 	.word	0x00018858
   18804:	00018878 	.word	0x00018878
   18808:	00018878 	.word	0x00018878
   1880c:	00018860 	.word	0x00018860
   18810:	00018878 	.word	0x00018878
   18814:	00018878 	.word	0x00018878
   18818:	00018878 	.word	0x00018878
   1881c:	00018878 	.word	0x00018878
   18820:	00018878 	.word	0x00018878
   18824:	00018878 	.word	0x00018878
   18828:	00018878 	.word	0x00018878
   1882c:	00018878 	.word	0x00018878
   18830:	00018878 	.word	0x00018878
   18834:	00018878 	.word	0x00018878
   18838:	00018878 	.word	0x00018878
   1883c:	00018878 	.word	0x00018878
   18840:	00018878 	.word	0x00018878
   18844:	0001886c 	.word	0x0001886c
   18848:	ebfffe73 	bl	1821c <ScreenDeviceCursorLeft>
   1884c:	e8bd8010 	pop	{r4, pc}
   18850:	ebffff21 	bl	184dc <ScreenDeviceTabulator>
   18854:	e8bd8010 	pop	{r4, pc}
   18858:	ebffff0d 	bl	18494 <ScreenDeviceNewLine>
   1885c:	e8bd8010 	pop	{r4, pc}
   18860:	e3a03000 	mov	r3, #0
   18864:	e580302c 	str	r3, [r0, #44]	; 0x2c
   18868:	e8bd8010 	pop	{r4, pc}
   1886c:	e3a03001 	mov	r3, #1
   18870:	e5803028 	str	r3, [r0, #40]	; 0x28
   18874:	e8bd8010 	pop	{r4, pc}
   18878:	ebffff65 	bl	18614 <ScreenDeviceDisplayChar>
   1887c:	e8bd8010 	pop	{r4, pc}
   18880:	e351004d 	cmp	r1, #77	; 0x4d
   18884:	0a000002 	beq	18894 <ScreenDeviceWrite2+0xe4>
   18888:	e351005b 	cmp	r1, #91	; 0x5b
   1888c:	0a000003 	beq	188a0 <ScreenDeviceWrite2+0xf0>
   18890:	ea000005 	b	188ac <ScreenDeviceWrite2+0xfc>
   18894:	e3a03000 	mov	r3, #0
   18898:	e5803028 	str	r3, [r0, #40]	; 0x28
   1889c:	e8bd8010 	pop	{r4, pc}
   188a0:	e3a03002 	mov	r3, #2
   188a4:	e5803028 	str	r3, [r0, #40]	; 0x28
   188a8:	e8bd8010 	pop	{r4, pc}
   188ac:	e3a03000 	mov	r3, #0
   188b0:	e5803028 	str	r3, [r0, #40]	; 0x28
   188b4:	e8bd8010 	pop	{r4, pc}
   188b8:	e241303f 	sub	r3, r1, #63	; 0x3f
   188bc:	e3530011 	cmp	r3, #17
   188c0:	979ff103 	ldrls	pc, [pc, r3, lsl #2]
   188c4:	ea000036 	b	189a4 <ScreenDeviceWrite2+0x1f4>
   188c8:	00018910 	.word	0x00018910
   188cc:	000189a4 	.word	0x000189a4
   188d0:	0001891c 	.word	0x0001891c
   188d4:	0001892c 	.word	0x0001892c
   188d8:	0001893c 	.word	0x0001893c
   188dc:	000189a4 	.word	0x000189a4
   188e0:	000189a4 	.word	0x000189a4
   188e4:	000189a4 	.word	0x000189a4
   188e8:	000189a4 	.word	0x000189a4
   188ec:	0001894c 	.word	0x0001894c
   188f0:	000189a4 	.word	0x000189a4
   188f4:	00018960 	.word	0x00018960
   188f8:	00018970 	.word	0x00018970
   188fc:	00018980 	.word	0x00018980
   18900:	0001898c 	.word	0x0001898c
   18904:	000189a4 	.word	0x000189a4
   18908:	000189a4 	.word	0x000189a4
   1890c:	00018998 	.word	0x00018998
   18910:	e3a03004 	mov	r3, #4
   18914:	e5803028 	str	r3, [r0, #40]	; 0x28
   18918:	e8bd8010 	pop	{r4, pc}
   1891c:	ebfffe6d 	bl	182d8 <ScreenDeviceCursorUp>
   18920:	e3a03000 	mov	r3, #0
   18924:	e5843028 	str	r3, [r4, #40]	; 0x28
   18928:	e8bd8010 	pop	{r4, pc}
   1892c:	ebfffec5 	bl	18448 <ScreenDeviceCursorDown>
   18930:	e3a03000 	mov	r3, #0
   18934:	e5843028 	str	r3, [r4, #40]	; 0x28
   18938:	e8bd8010 	pop	{r4, pc}
   1893c:	ebfffed9 	bl	184a8 <ScreenDeviceCursorRight>
   18940:	e3a03000 	mov	r3, #0
   18944:	e5843028 	str	r3, [r4, #40]	; 0x28
   18948:	e8bd8010 	pop	{r4, pc}
   1894c:	e3a03000 	mov	r3, #0
   18950:	e580302c 	str	r3, [r0, #44]	; 0x2c
   18954:	e5803030 	str	r3, [r0, #48]	; 0x30
   18958:	e5803028 	str	r3, [r0, #40]	; 0x28
   1895c:	e8bd8010 	pop	{r4, pc}
   18960:	ebffff67 	bl	18704 <ScreenDeviceClearDisplayEnd>
   18964:	e3a03000 	mov	r3, #0
   18968:	e5843028 	str	r3, [r4, #40]	; 0x28
   1896c:	e8bd8010 	pop	{r4, pc}
   18970:	ebffff51 	bl	186bc <ScreenDeviceClearLineEnd>
   18974:	e3a03000 	mov	r3, #0
   18978:	e5843028 	str	r3, [r4, #40]	; 0x28
   1897c:	e8bd8010 	pop	{r4, pc}
   18980:	e3a03000 	mov	r3, #0
   18984:	e5803028 	str	r3, [r0, #40]	; 0x28
   18988:	e8bd8010 	pop	{r4, pc}
   1898c:	e3a03000 	mov	r3, #0
   18990:	e5803028 	str	r3, [r0, #40]	; 0x28
   18994:	e8bd8010 	pop	{r4, pc}
   18998:	e3a03000 	mov	r3, #0
   1899c:	e5803028 	str	r3, [r0, #40]	; 0x28
   189a0:	e8bd8010 	pop	{r4, pc}
   189a4:	e2413030 	sub	r3, r1, #48	; 0x30
   189a8:	e6ef3073 	uxtb	r3, r3
   189ac:	e3530009 	cmp	r3, #9
   189b0:	92411030 	subls	r1, r1, #48	; 0x30
   189b4:	95801040 	strls	r1, [r0, #64]	; 0x40
   189b8:	93a03003 	movls	r3, #3
   189bc:	83a03000 	movhi	r3, #0
   189c0:	e5803028 	str	r3, [r0, #40]	; 0x28
   189c4:	e8bd8010 	pop	{r4, pc}
   189c8:	e241303b 	sub	r3, r1, #59	; 0x3b
   189cc:	e3530032 	cmp	r3, #50	; 0x32
   189d0:	979ff103 	ldrls	pc, [pc, r3, lsl #2]
   189d4:	ea000052 	b	18b24 <ScreenDeviceWrite2+0x374>
   189d8:	00018aa4 	.word	0x00018aa4
   189dc:	00018b24 	.word	0x00018b24
   189e0:	00018b24 	.word	0x00018b24
   189e4:	00018b24 	.word	0x00018b24
   189e8:	00018b24 	.word	0x00018b24
   189ec:	00018b24 	.word	0x00018b24
   189f0:	00018b24 	.word	0x00018b24
   189f4:	00018b24 	.word	0x00018b24
   189f8:	00018b24 	.word	0x00018b24
   189fc:	00018b24 	.word	0x00018b24
   18a00:	00018b24 	.word	0x00018b24
   18a04:	00018b24 	.word	0x00018b24
   18a08:	00018b24 	.word	0x00018b24
   18a0c:	00018b24 	.word	0x00018b24
   18a10:	00018b24 	.word	0x00018b24
   18a14:	00018b24 	.word	0x00018b24
   18a18:	00018b24 	.word	0x00018b24
   18a1c:	00018ab0 	.word	0x00018ab0
   18a20:	00018abc 	.word	0x00018abc
   18a24:	00018b24 	.word	0x00018b24
   18a28:	00018b24 	.word	0x00018b24
   18a2c:	00018ac8 	.word	0x00018ac8
   18a30:	00018b24 	.word	0x00018b24
   18a34:	00018b24 	.word	0x00018b24
   18a38:	00018b24 	.word	0x00018b24
   18a3c:	00018b24 	.word	0x00018b24
   18a40:	00018b24 	.word	0x00018b24
   18a44:	00018b24 	.word	0x00018b24
   18a48:	00018b24 	.word	0x00018b24
   18a4c:	00018ad4 	.word	0x00018ad4
   18a50:	00018b24 	.word	0x00018b24
   18a54:	00018b24 	.word	0x00018b24
   18a58:	00018b24 	.word	0x00018b24
   18a5c:	00018b24 	.word	0x00018b24
   18a60:	00018b24 	.word	0x00018b24
   18a64:	00018b24 	.word	0x00018b24
   18a68:	00018b24 	.word	0x00018b24
   18a6c:	00018b24 	.word	0x00018b24
   18a70:	00018b24 	.word	0x00018b24
   18a74:	00018b24 	.word	0x00018b24
   18a78:	00018b24 	.word	0x00018b24
   18a7c:	00018b24 	.word	0x00018b24
   18a80:	00018b24 	.word	0x00018b24
   18a84:	00018b24 	.word	0x00018b24
   18a88:	00018b24 	.word	0x00018b24
   18a8c:	00018ae8 	.word	0x00018ae8
   18a90:	00018b24 	.word	0x00018b24
   18a94:	00018b24 	.word	0x00018b24
   18a98:	00018b24 	.word	0x00018b24
   18a9c:	00018ae8 	.word	0x00018ae8
   18aa0:	00018b10 	.word	0x00018b10
   18aa4:	e3a03005 	mov	r3, #5
   18aa8:	e5803028 	str	r3, [r0, #40]	; 0x28
   18aac:	e8bd8010 	pop	{r4, pc}
   18ab0:	e3a03000 	mov	r3, #0
   18ab4:	e5803028 	str	r3, [r0, #40]	; 0x28
   18ab8:	e8bd8010 	pop	{r4, pc}
   18abc:	e3a03000 	mov	r3, #0
   18ac0:	e5803028 	str	r3, [r0, #40]	; 0x28
   18ac4:	e8bd8010 	pop	{r4, pc}
   18ac8:	e3a03000 	mov	r3, #0
   18acc:	e5803028 	str	r3, [r0, #40]	; 0x28
   18ad0:	e8bd8010 	pop	{r4, pc}
   18ad4:	e5901040 	ldr	r1, [r0, #64]	; 0x40
   18ad8:	ebffff1a 	bl	18748 <ScreenDeviceEraseChars>
   18adc:	e3a03000 	mov	r3, #0
   18ae0:	e5843028 	str	r3, [r4, #40]	; 0x28
   18ae4:	e8bd8010 	pop	{r4, pc}
   18ae8:	e5903040 	ldr	r3, [r0, #64]	; 0x40
   18aec:	e3530004 	cmp	r3, #4
   18af0:	1a000003 	bne	18b04 <ScreenDeviceWrite2+0x354>
   18af4:	e3510068 	cmp	r1, #104	; 0x68
   18af8:	13a01000 	movne	r1, #0
   18afc:	03a01001 	moveq	r1, #1
   18b00:	e580103c 	str	r1, [r0, #60]	; 0x3c
   18b04:	e3a03000 	mov	r3, #0
   18b08:	e5843028 	str	r3, [r4, #40]	; 0x28
   18b0c:	e8bd8010 	pop	{r4, pc}
   18b10:	e5901040 	ldr	r1, [r0, #64]	; 0x40
   18b14:	ebfffe05 	bl	18330 <ScreenDeviceSetStandoutMode>
   18b18:	e3a03000 	mov	r3, #0
   18b1c:	e5843028 	str	r3, [r4, #40]	; 0x28
   18b20:	e8bd8010 	pop	{r4, pc}
   18b24:	e2413030 	sub	r3, r1, #48	; 0x30
   18b28:	e6ef3073 	uxtb	r3, r3
   18b2c:	e3530009 	cmp	r3, #9
   18b30:	8a000008 	bhi	18b58 <ScreenDeviceWrite2+0x3a8>
   18b34:	e5903040 	ldr	r3, [r0, #64]	; 0x40
   18b38:	e0833103 	add	r3, r3, r3, lsl #2
   18b3c:	e0813083 	add	r3, r1, r3, lsl #1
   18b40:	e2433030 	sub	r3, r3, #48	; 0x30
   18b44:	e5803040 	str	r3, [r0, #64]	; 0x40
   18b48:	e3530063 	cmp	r3, #99	; 0x63
   18b4c:	83a03000 	movhi	r3, #0
   18b50:	85803028 	strhi	r3, [r0, #40]	; 0x28
   18b54:	e8bd8010 	pop	{r4, pc}
   18b58:	e3a03000 	mov	r3, #0
   18b5c:	e5803028 	str	r3, [r0, #40]	; 0x28
   18b60:	e8bd8010 	pop	{r4, pc}
   18b64:	e2413030 	sub	r3, r1, #48	; 0x30
   18b68:	e6ef3073 	uxtb	r3, r3
   18b6c:	e3530009 	cmp	r3, #9
   18b70:	92411030 	subls	r1, r1, #48	; 0x30
   18b74:	95801044 	strls	r1, [r0, #68]	; 0x44
   18b78:	93a03006 	movls	r3, #6
   18b7c:	83a03000 	movhi	r3, #0
   18b80:	e5803028 	str	r3, [r0, #40]	; 0x28
   18b84:	e8bd8010 	pop	{r4, pc}
   18b88:	e2413030 	sub	r3, r1, #48	; 0x30
   18b8c:	e6ef3073 	uxtb	r3, r3
   18b90:	e3530009 	cmp	r3, #9
   18b94:	92411030 	subls	r1, r1, #48	; 0x30
   18b98:	95801040 	strls	r1, [r0, #64]	; 0x40
   18b9c:	93a03007 	movls	r3, #7
   18ba0:	83a03000 	movhi	r3, #0
   18ba4:	e5803028 	str	r3, [r0, #40]	; 0x28
   18ba8:	e8bd8010 	pop	{r4, pc}
   18bac:	e3510048 	cmp	r1, #72	; 0x48
   18bb0:	1a000005 	bne	18bcc <ScreenDeviceWrite2+0x41c>
   18bb4:	e5902044 	ldr	r2, [r0, #68]	; 0x44
   18bb8:	e5901040 	ldr	r1, [r0, #64]	; 0x40
   18bbc:	ebfffdb0 	bl	18284 <ScreenDeviceCursorMove>
   18bc0:	e3a03000 	mov	r3, #0
   18bc4:	e5843028 	str	r3, [r4, #40]	; 0x28
   18bc8:	e8bd8010 	pop	{r4, pc}
   18bcc:	e2413030 	sub	r3, r1, #48	; 0x30
   18bd0:	e6ef3073 	uxtb	r3, r3
   18bd4:	e3530009 	cmp	r3, #9
   18bd8:	8a000008 	bhi	18c00 <ScreenDeviceWrite2+0x450>
   18bdc:	e5903044 	ldr	r3, [r0, #68]	; 0x44
   18be0:	e0833103 	add	r3, r3, r3, lsl #2
   18be4:	e0811083 	add	r1, r1, r3, lsl #1
   18be8:	e2411030 	sub	r1, r1, #48	; 0x30
   18bec:	e5801044 	str	r1, [r0, #68]	; 0x44
   18bf0:	e35100c7 	cmp	r1, #199	; 0xc7
   18bf4:	83a03000 	movhi	r3, #0
   18bf8:	85803028 	strhi	r3, [r0, #40]	; 0x28
   18bfc:	e8bd8010 	pop	{r4, pc}
   18c00:	e3a03000 	mov	r3, #0
   18c04:	e5803028 	str	r3, [r0, #40]	; 0x28
   18c08:	e8bd8010 	pop	{r4, pc}
   18c0c:	e3510068 	cmp	r1, #104	; 0x68
   18c10:	0a000001 	beq	18c1c <ScreenDeviceWrite2+0x46c>
   18c14:	e351006c 	cmp	r1, #108	; 0x6c
   18c18:	1a000009 	bne	18c44 <ScreenDeviceWrite2+0x494>
   18c1c:	e5943040 	ldr	r3, [r4, #64]	; 0x40
   18c20:	e3530019 	cmp	r3, #25
   18c24:	1a000003 	bne	18c38 <ScreenDeviceWrite2+0x488>
   18c28:	e3510068 	cmp	r1, #104	; 0x68
   18c2c:	13a01000 	movne	r1, #0
   18c30:	03a01001 	moveq	r1, #1
   18c34:	e5841034 	str	r1, [r4, #52]	; 0x34
   18c38:	e3a03000 	mov	r3, #0
   18c3c:	e5843028 	str	r3, [r4, #40]	; 0x28
   18c40:	e8bd8010 	pop	{r4, pc}
   18c44:	e2413030 	sub	r3, r1, #48	; 0x30
   18c48:	e6ef3073 	uxtb	r3, r3
   18c4c:	e3530009 	cmp	r3, #9
   18c50:	8a000008 	bhi	18c78 <ScreenDeviceWrite2+0x4c8>
   18c54:	e5903040 	ldr	r3, [r0, #64]	; 0x40
   18c58:	e0833103 	add	r3, r3, r3, lsl #2
   18c5c:	e0811083 	add	r1, r1, r3, lsl #1
   18c60:	e2411030 	sub	r1, r1, #48	; 0x30
   18c64:	e5801040 	str	r1, [r0, #64]	; 0x40
   18c68:	e3510063 	cmp	r1, #99	; 0x63
   18c6c:	83a03000 	movhi	r3, #0
   18c70:	85803028 	strhi	r3, [r0, #40]	; 0x28
   18c74:	e8bd8010 	pop	{r4, pc}
   18c78:	e3a03000 	mov	r3, #0
   18c7c:	e5803028 	str	r3, [r0, #40]	; 0x28
   18c80:	e8bd8010 	pop	{r4, pc}
   18c84:	e3a03000 	mov	r3, #0
   18c88:	e5803028 	str	r3, [r0, #40]	; 0x28
   18c8c:	e8bd8010 	pop	{r4, pc}

00018c90 <ScreenDeviceInvertCursor>:
   18c90:	e5903034 	ldr	r3, [r0, #52]	; 0x34
   18c94:	e3530000 	cmp	r3, #0
   18c98:	012fff1e 	bxeq	lr
   18c9c:	e92d47f0 	push	{r4, r5, r6, r7, r8, r9, sl, lr}
   18ca0:	e1a06000 	mov	r6, r0
   18ca4:	e280900c 	add	r9, r0, #12
   18ca8:	e1a00009 	mov	r0, r9
   18cac:	eb000756 	bl	1aa0c <CharGeneratorGetUnderline>
   18cb0:	e1a08000 	mov	r8, r0
   18cb4:	e3a0a000 	mov	sl, #0
   18cb8:	ea000016 	b	18d18 <ScreenDeviceInvertCursor+0x88>
   18cbc:	e596402c 	ldr	r4, [r6, #44]	; 0x2c
   18cc0:	e0874004 	add	r4, r7, r4
   18cc4:	e5965030 	ldr	r5, [r6, #48]	; 0x30
   18cc8:	e0885005 	add	r5, r8, r5
   18ccc:	e1a02005 	mov	r2, r5
   18cd0:	e1a01004 	mov	r1, r4
   18cd4:	e1a00006 	mov	r0, r6
   18cd8:	ebfffd39 	bl	181c4 <ScreenDeviceGetPixel>
   18cdc:	e3500000 	cmp	r0, #0
   18ce0:	05d63038 	ldrbeq	r3, [r6, #56]	; 0x38
   18ce4:	11a0300a 	movne	r3, sl
   18ce8:	e1a02005 	mov	r2, r5
   18cec:	e1a01004 	mov	r1, r4
   18cf0:	e1a00006 	mov	r0, r6
   18cf4:	ebfffd28 	bl	1819c <ScreenDeviceSetPixel>
   18cf8:	e2877001 	add	r7, r7, #1
   18cfc:	ea000000 	b	18d04 <ScreenDeviceInvertCursor+0x74>
   18d00:	e3a07000 	mov	r7, #0
   18d04:	e1a00009 	mov	r0, r9
   18d08:	eb000727 	bl	1a9ac <CharGeneratorGetCharWidth>
   18d0c:	e1570000 	cmp	r7, r0
   18d10:	3affffe9 	bcc	18cbc <ScreenDeviceInvertCursor+0x2c>
   18d14:	e2888001 	add	r8, r8, #1
   18d18:	e1a00009 	mov	r0, r9
   18d1c:	eb00072d 	bl	1a9d8 <CharGeneratorGetCharHeight>
   18d20:	e1580000 	cmp	r8, r0
   18d24:	3afffff5 	bcc	18d00 <ScreenDeviceInvertCursor+0x70>
   18d28:	e8bd87f0 	pop	{r4, r5, r6, r7, r8, r9, sl, pc}

00018d2c <ScreenDeviceInitialize>:
   18d2c:	e92d4070 	push	{r4, r5, r6, lr}
   18d30:	e1a04000 	mov	r4, r0
   18d34:	e3a00008 	mov	r0, #8
   18d38:	ebfffaac 	bl	177f0 <malloc>
   18d3c:	e5840008 	str	r0, [r4, #8]
   18d40:	e3a03008 	mov	r3, #8
   18d44:	e5942004 	ldr	r2, [r4, #4]
   18d48:	e5941000 	ldr	r1, [r4]
   18d4c:	eb0005bf 	bl	1a450 <BcmFrameBuffer>
   18d50:	e59f20f8 	ldr	r2, [pc, #248]	; 18e50 <ScreenDeviceInitialize+0x124>
   18d54:	e3a01001 	mov	r1, #1
   18d58:	e5940008 	ldr	r0, [r4, #8]
   18d5c:	eb00061f 	bl	1a5e0 <BcmFrameBufferSetPalette>
   18d60:	e3a02b3e 	mov	r2, #63488	; 0xf800
   18d64:	e3a01002 	mov	r1, #2
   18d68:	e5940008 	ldr	r0, [r4, #8]
   18d6c:	eb00061b 	bl	1a5e0 <BcmFrameBufferSetPalette>
   18d70:	e3a0201f 	mov	r2, #31
   18d74:	e3a01003 	mov	r1, #3
   18d78:	e5940008 	ldr	r0, [r4, #8]
   18d7c:	eb000617 	bl	1a5e0 <BcmFrameBufferSetPalette>
   18d80:	e5940008 	ldr	r0, [r4, #8]
   18d84:	eb000627 	bl	1a628 <BcmFrameBufferInitialize>
   18d88:	e3500000 	cmp	r0, #0
   18d8c:	08bd8070 	popeq	{r4, r5, r6, pc}
   18d90:	e5940008 	ldr	r0, [r4, #8]
   18d94:	eb000661 	bl	1a720 <BcmFrameBufferGetDepth>
   18d98:	e3500008 	cmp	r0, #8
   18d9c:	1a000027 	bne	18e40 <ScreenDeviceInitialize+0x114>
   18da0:	e5940008 	ldr	r0, [r4, #8]
   18da4:	eb000669 	bl	1a750 <BcmFrameBufferGetBuffer>
   18da8:	e5840010 	str	r0, [r4, #16]
   18dac:	e5940008 	ldr	r0, [r4, #8]
   18db0:	eb000673 	bl	1a784 <BcmFrameBufferGetSize>
   18db4:	e5840014 	str	r0, [r4, #20]
   18db8:	e5940008 	ldr	r0, [r4, #8]
   18dbc:	eb000633 	bl	1a690 <BcmFrameBufferGetWidth>
   18dc0:	e584001c 	str	r0, [r4, #28]
   18dc4:	e5940008 	ldr	r0, [r4, #8]
   18dc8:	eb00063c 	bl	1a6c0 <BcmFrameBufferGetHeight>
   18dcc:	e5840020 	str	r0, [r4, #32]
   18dd0:	e5940008 	ldr	r0, [r4, #8]
   18dd4:	eb000645 	bl	1a6f0 <BcmFrameBufferGetPitch>
   18dd8:	e3100003 	tst	r0, #3
   18ddc:	1a000019 	bne	18e48 <ScreenDeviceInitialize+0x11c>
   18de0:	e5940008 	ldr	r0, [r4, #8]
   18de4:	eb000641 	bl	1a6f0 <BcmFrameBufferGetPitch>
   18de8:	e5840018 	str	r0, [r4, #24]
   18dec:	e5945020 	ldr	r5, [r4, #32]
   18df0:	e284600c 	add	r6, r4, #12
   18df4:	e1a00006 	mov	r0, r6
   18df8:	eb0006f6 	bl	1a9d8 <CharGeneratorGetCharHeight>
   18dfc:	e1a01000 	mov	r1, r0
   18e00:	e1a00005 	mov	r0, r5
   18e04:	ebfffbeb 	bl	17db8 <__aeabi_uidiv>
   18e08:	e1a05000 	mov	r5, r0
   18e0c:	e1a00006 	mov	r0, r6
   18e10:	eb0006f0 	bl	1a9d8 <CharGeneratorGetCharHeight>
   18e14:	e0000590 	mul	r0, r0, r5
   18e18:	e5840024 	str	r0, [r4, #36]	; 0x24
   18e1c:	e3a03000 	mov	r3, #0
   18e20:	e584302c 	str	r3, [r4, #44]	; 0x2c
   18e24:	e5843030 	str	r3, [r4, #48]	; 0x30
   18e28:	e1a00004 	mov	r0, r4
   18e2c:	ebfffe34 	bl	18704 <ScreenDeviceClearDisplayEnd>
   18e30:	e1a00004 	mov	r0, r4
   18e34:	ebffff95 	bl	18c90 <ScreenDeviceInvertCursor>
   18e38:	e3a00001 	mov	r0, #1
   18e3c:	e8bd8070 	pop	{r4, r5, r6, pc}
   18e40:	e3a00000 	mov	r0, #0
   18e44:	e8bd8070 	pop	{r4, r5, r6, pc}
   18e48:	e3a00000 	mov	r0, #0
   18e4c:	e8bd8070 	pop	{r4, r5, r6, pc}
   18e50:	0000ffdf 	.word	0x0000ffdf

00018e54 <ScreenDeviceWrite>:
   18e54:	e92d41f0 	push	{r4, r5, r6, r7, r8, lr}
   18e58:	e1a06000 	mov	r6, r0
   18e5c:	e1a05001 	mov	r5, r1
   18e60:	e1a07002 	mov	r7, r2
   18e64:	ebffff89 	bl	18c90 <ScreenDeviceInvertCursor>
   18e68:	e3570000 	cmp	r7, #0
   18e6c:	0a000006 	beq	18e8c <ScreenDeviceWrite+0x38>
   18e70:	e1a04007 	mov	r4, r7
   18e74:	e0d510d1 	ldrsb	r1, [r5], #1
   18e78:	e1a00006 	mov	r0, r6
   18e7c:	ebfffe4b 	bl	187b0 <ScreenDeviceWrite2>
   18e80:	e2544001 	subs	r4, r4, #1
   18e84:	1afffffa 	bne	18e74 <ScreenDeviceWrite+0x20>
   18e88:	ea000000 	b	18e90 <ScreenDeviceWrite+0x3c>
   18e8c:	e3a07000 	mov	r7, #0
   18e90:	e1a00006 	mov	r0, r6
   18e94:	ebffff7d 	bl	18c90 <ScreenDeviceInvertCursor>
   18e98:	e3a03000 	mov	r3, #0
   18e9c:	ee073fba 	mcr	15, 0, r3, cr7, cr10, {5}
   18ea0:	e1a00007 	mov	r0, r7
   18ea4:	e8bd81f0 	pop	{r4, r5, r6, r7, r8, pc}

00018ea8 <EnterCritical>:
   18ea8:	e10f3000 	mrs	r3, CPSR
   18eac:	f10c0080 	cpsid	i
   18eb0:	e59f102c 	ldr	r1, [pc, #44]	; 18ee4 <EnterCritical+0x3c>
   18eb4:	e5912000 	ldr	r2, [r1]
   18eb8:	e2820001 	add	r0, r2, #1
   18ebc:	e5810000 	str	r0, [r1]
   18ec0:	e3520000 	cmp	r2, #0
   18ec4:	01a033a3 	lsreq	r3, r3, #7
   18ec8:	02233001 	eoreq	r3, r3, #1
   18ecc:	02033001 	andeq	r3, r3, #1
   18ed0:	01a02001 	moveq	r2, r1
   18ed4:	05823004 	streq	r3, [r2, #4]
   18ed8:	e3a03000 	mov	r3, #0
   18edc:	ee073fba 	mcr	15, 0, r3, cr7, cr10, {5}
   18ee0:	e12fff1e 	bx	lr
   18ee4:	0000894c 	.word	0x0000894c

00018ee8 <LeaveCritical>:
   18ee8:	e92d4010 	push	{r4, lr}
   18eec:	e3a03000 	mov	r3, #0
   18ef0:	ee073fba 	mcr	15, 0, r3, cr7, cr10, {5}
   18ef4:	e59f3044 	ldr	r3, [pc, #68]	; 18f40 <LeaveCritical+0x58>
   18ef8:	e5933000 	ldr	r3, [r3]
   18efc:	e3530000 	cmp	r3, #0
   18f00:	1a000003 	bne	18f14 <LeaveCritical+0x2c>
   18f04:	e3a0202e 	mov	r2, #46	; 0x2e
   18f08:	e59f1034 	ldr	r1, [pc, #52]	; 18f44 <LeaveCritical+0x5c>
   18f0c:	e59f0034 	ldr	r0, [pc, #52]	; 18f48 <LeaveCritical+0x60>
   18f10:	ebfffb1f 	bl	17b94 <assertion_failed>
   18f14:	e59f2024 	ldr	r2, [pc, #36]	; 18f40 <LeaveCritical+0x58>
   18f18:	e5923000 	ldr	r3, [r2]
   18f1c:	e2433001 	sub	r3, r3, #1
   18f20:	e5823000 	str	r3, [r2]
   18f24:	e3530000 	cmp	r3, #0
   18f28:	18bd8010 	popne	{r4, pc}
   18f2c:	e5923004 	ldr	r3, [r2, #4]
   18f30:	e3530000 	cmp	r3, #0
   18f34:	08bd8010 	popeq	{r4, pc}
   18f38:	f1080080 	cpsie	i
   18f3c:	e8bd8010 	pop	{r4, pc}
   18f40:	0000894c 	.word	0x0000894c
   18f44:	0001cab8 	.word	0x0001cab8
   18f48:	0001cac8 	.word	0x0001cac8

00018f4c <Timer>:
   18f4c:	e92d4070 	push	{r4, r5, r6, lr}
   18f50:	e1a05001 	mov	r5, r1
   18f54:	e2504000 	subs	r4, r0, #0
   18f58:	1a000003 	bne	18f6c <Timer+0x20>
   18f5c:	e3a02027 	mov	r2, #39	; 0x27
   18f60:	e59f106c 	ldr	r1, [pc, #108]	; 18fd4 <Timer+0x88>
   18f64:	e59f006c 	ldr	r0, [pc, #108]	; 18fd8 <Timer+0x8c>
   18f68:	ebfffb09 	bl	17b94 <assertion_failed>
   18f6c:	e5845000 	str	r5, [r4]
   18f70:	e3a03000 	mov	r3, #0
   18f74:	e5843004 	str	r3, [r4, #4]
   18f78:	e5843008 	str	r3, [r4, #8]
   18f7c:	e59f3058 	ldr	r3, [pc, #88]	; 18fdc <Timer+0x90>
   18f80:	e584314c 	str	r3, [r4, #332]	; 0x14c
   18f84:	e59f3054 	ldr	r3, [pc, #84]	; 18fe0 <Timer+0x94>
   18f88:	e5843150 	str	r3, [r4, #336]	; 0x150
   18f8c:	e59f3050 	ldr	r3, [pc, #80]	; 18fe4 <Timer+0x98>
   18f90:	e5933000 	ldr	r3, [r3]
   18f94:	e3530000 	cmp	r3, #0
   18f98:	0a000003 	beq	18fac <Timer+0x60>
   18f9c:	e3a02033 	mov	r2, #51	; 0x33
   18fa0:	e59f102c 	ldr	r1, [pc, #44]	; 18fd4 <Timer+0x88>
   18fa4:	e59f003c 	ldr	r0, [pc, #60]	; 18fe8 <Timer+0x9c>
   18fa8:	ebfffaf9 	bl	17b94 <assertion_failed>
   18fac:	e59f3030 	ldr	r3, [pc, #48]	; 18fe4 <Timer+0x98>
   18fb0:	e5834000 	str	r4, [r3]
   18fb4:	e3a03000 	mov	r3, #0
   18fb8:	e1a01003 	mov	r1, r3
   18fbc:	e0842203 	add	r2, r4, r3, lsl #4
   18fc0:	e582100c 	str	r1, [r2, #12]
   18fc4:	e2833001 	add	r3, r3, #1
   18fc8:	e3530014 	cmp	r3, #20
   18fcc:	1afffffa 	bne	18fbc <Timer+0x70>
   18fd0:	e8bd8070 	pop	{r4, r5, r6, pc}
   18fd4:	0001d7a8 	.word	0x0001d7a8
   18fd8:	0001b4d8 	.word	0x0001b4d8
   18fdc:	00055730 	.word	0x00055730
   18fe0:	0000015e 	.word	0x0000015e
   18fe4:	00008954 	.word	0x00008954
   18fe8:	0001c200 	.word	0x0001c200

00018fec <_Timer>:
   18fec:	e3a02000 	mov	r2, #0
   18ff0:	e59f3004 	ldr	r3, [pc, #4]	; 18ffc <_Timer+0x10>
   18ff4:	e5832000 	str	r2, [r3]
   18ff8:	e12fff1e 	bx	lr
   18ffc:	00008954 	.word	0x00008954

00019000 <TimerGetClockTicks>:
   19000:	e92d4010 	push	{r4, lr}
   19004:	e3500000 	cmp	r0, #0
   19008:	1a000003 	bne	1901c <TimerGetClockTicks+0x1c>
   1900c:	e3a02057 	mov	r2, #87	; 0x57
   19010:	e59f101c 	ldr	r1, [pc, #28]	; 19034 <TimerGetClockTicks+0x34>
   19014:	e59f001c 	ldr	r0, [pc, #28]	; 19038 <TimerGetClockTicks+0x38>
   19018:	ebfffadd 	bl	17b94 <assertion_failed>
   1901c:	e3a04000 	mov	r4, #0
   19020:	ee074fba 	mcr	15, 0, r4, cr7, cr10, {5}
   19024:	e59f0010 	ldr	r0, [pc, #16]	; 1903c <TimerGetClockTicks+0x3c>
   19028:	eb000858 	bl	1b190 <read32>
   1902c:	ee074fba 	mcr	15, 0, r4, cr7, cr10, {5}
   19030:	e8bd8010 	pop	{r4, pc}
   19034:	0001d7a8 	.word	0x0001d7a8
   19038:	0001b4d8 	.word	0x0001b4d8
   1903c:	20003004 	.word	0x20003004

00019040 <TimerGetTicks>:
   19040:	e92d4010 	push	{r4, lr}
   19044:	e2504000 	subs	r4, r0, #0
   19048:	1a000003 	bne	1905c <TimerGetTicks+0x1c>
   1904c:	e3a02064 	mov	r2, #100	; 0x64
   19050:	e59f100c 	ldr	r1, [pc, #12]	; 19064 <TimerGetTicks+0x24>
   19054:	e59f000c 	ldr	r0, [pc, #12]	; 19068 <TimerGetTicks+0x28>
   19058:	ebfffacd 	bl	17b94 <assertion_failed>
   1905c:	e5940004 	ldr	r0, [r4, #4]
   19060:	e8bd8010 	pop	{r4, pc}
   19064:	0001d7a8 	.word	0x0001d7a8
   19068:	0001b4d8 	.word	0x0001b4d8

0001906c <TimerGetTime>:
   1906c:	e92d4010 	push	{r4, lr}
   19070:	e2504000 	subs	r4, r0, #0
   19074:	1a000003 	bne	19088 <TimerGetTime+0x1c>
   19078:	e3a0206b 	mov	r2, #107	; 0x6b
   1907c:	e59f100c 	ldr	r1, [pc, #12]	; 19090 <TimerGetTime+0x24>
   19080:	e59f000c 	ldr	r0, [pc, #12]	; 19094 <TimerGetTime+0x28>
   19084:	ebfffac2 	bl	17b94 <assertion_failed>
   19088:	e5940008 	ldr	r0, [r4, #8]
   1908c:	e8bd8010 	pop	{r4, pc}
   19090:	0001d7a8 	.word	0x0001d7a8
   19094:	0001b4d8 	.word	0x0001b4d8

00019098 <TimerGetTimeString>:
   19098:	e92d41f0 	push	{r4, r5, r6, r7, r8, lr}
   1909c:	e24dd008 	sub	sp, sp, #8
   190a0:	e2504000 	subs	r4, r0, #0
   190a4:	1a000003 	bne	190b8 <TimerGetTimeString+0x20>
   190a8:	e3a02072 	mov	r2, #114	; 0x72
   190ac:	e59f10c0 	ldr	r1, [pc, #192]	; 19174 <TimerGetTimeString+0xdc>
   190b0:	e59f00c0 	ldr	r0, [pc, #192]	; 19178 <TimerGetTimeString+0xe0>
   190b4:	ebfffab6 	bl	17b94 <assertion_failed>
   190b8:	ebffff7a 	bl	18ea8 <EnterCritical>
   190bc:	e5946008 	ldr	r6, [r4, #8]
   190c0:	e5948004 	ldr	r8, [r4, #4]
   190c4:	ebffff87 	bl	18ee8 <LeaveCritical>
   190c8:	e3580000 	cmp	r8, #0
   190cc:	03a00000 	moveq	r0, #0
   190d0:	0a000025 	beq	1916c <TimerGetTimeString+0xd4>
   190d4:	e59f40a0 	ldr	r4, [pc, #160]	; 1917c <TimerGetTimeString+0xe4>
   190d8:	e0853694 	umull	r3, r5, r4, r6
   190dc:	e1a052a5 	lsr	r5, r5, #5
   190e0:	e1a03005 	mov	r3, r5
   190e4:	e0655205 	rsb	r5, r5, r5, lsl #4
   190e8:	e0465105 	sub	r5, r6, r5, lsl #2
   190ec:	e0842394 	umull	r2, r4, r4, r3
   190f0:	e1a042a4 	lsr	r4, r4, #5
   190f4:	e0644204 	rsb	r4, r4, r4, lsl #4
   190f8:	e0434104 	sub	r4, r3, r4, lsl #2
   190fc:	e59f707c 	ldr	r7, [pc, #124]	; 19180 <TimerGetTimeString+0xe8>
   19100:	e0873697 	umull	r3, r7, r7, r6
   19104:	e1a075a7 	lsr	r7, r7, #11
   19108:	e59f6074 	ldr	r6, [pc, #116]	; 19184 <TimerGetTimeString+0xec>
   1910c:	e0863896 	umull	r3, r6, r6, r8
   19110:	e1a062a6 	lsr	r6, r6, #5
   19114:	e3a03064 	mov	r3, #100	; 0x64
   19118:	e0060693 	mul	r6, r3, r6
   1911c:	e0666008 	rsb	r6, r6, r8
   19120:	e3a0000c 	mov	r0, #12
   19124:	ebfff9b1 	bl	177f0 <malloc>
   19128:	e2508000 	subs	r8, r0, #0
   1912c:	1a000003 	bne	19140 <TimerGetTimeString+0xa8>
   19130:	e3a0208c 	mov	r2, #140	; 0x8c
   19134:	e59f1038 	ldr	r1, [pc, #56]	; 19174 <TimerGetTimeString+0xdc>
   19138:	e59f0048 	ldr	r0, [pc, #72]	; 19188 <TimerGetTimeString+0xf0>
   1913c:	ebfffa94 	bl	17b94 <assertion_failed>
   19140:	e1a00008 	mov	r0, r8
   19144:	ebffdf7c 	bl	10f3c <String>
   19148:	e58d6004 	str	r6, [sp, #4]
   1914c:	e58d5000 	str	r5, [sp]
   19150:	e1a03004 	mov	r3, r4
   19154:	e1a02007 	mov	r2, r7
   19158:	e59f102c 	ldr	r1, [pc, #44]	; 1918c <TimerGetTimeString+0xf4>
   1915c:	e1a00008 	mov	r0, r8
   19160:	ebffe202 	bl	11970 <StringFormat>
   19164:	e1a00008 	mov	r0, r8
   19168:	eaffffff 	b	1916c <TimerGetTimeString+0xd4>
   1916c:	e28dd008 	add	sp, sp, #8
   19170:	e8bd81f0 	pop	{r4, r5, r6, r7, r8, pc}
   19174:	0001d7a8 	.word	0x0001d7a8
   19178:	0001b4d8 	.word	0x0001b4d8
   1917c:	88888889 	.word	0x88888889
   19180:	91a2b3c5 	.word	0x91a2b3c5
   19184:	51eb851f 	.word	0x51eb851f
   19188:	0001bdc0 	.word	0x0001bdc0
   1918c:	0001d7b0 	.word	0x0001d7b0

00019190 <TimerStartKernelTimer>:
   19190:	e92d41f0 	push	{r4, r5, r6, r7, r8, lr}
   19194:	e1a07001 	mov	r7, r1
   19198:	e1a08002 	mov	r8, r2
   1919c:	e1a06003 	mov	r6, r3
   191a0:	e2505000 	subs	r5, r0, #0
   191a4:	1a000003 	bne	191b8 <TimerStartKernelTimer+0x28>
   191a8:	e3a02096 	mov	r2, #150	; 0x96
   191ac:	e59f10a4 	ldr	r1, [pc, #164]	; 19258 <TimerStartKernelTimer+0xc8>
   191b0:	e59f00a4 	ldr	r0, [pc, #164]	; 1925c <TimerStartKernelTimer+0xcc>
   191b4:	ebfffa76 	bl	17b94 <assertion_failed>
   191b8:	ebffff3a 	bl	18ea8 <EnterCritical>
   191bc:	e595300c 	ldr	r3, [r5, #12]
   191c0:	e3530000 	cmp	r3, #0
   191c4:	0a00001f 	beq	19248 <TimerStartKernelTimer+0xb8>
   191c8:	e3a04001 	mov	r4, #1
   191cc:	e0853204 	add	r3, r5, r4, lsl #4
   191d0:	e593300c 	ldr	r3, [r3, #12]
   191d4:	e3530000 	cmp	r3, #0
   191d8:	0a00001b 	beq	1924c <TimerStartKernelTimer+0xbc>
   191dc:	e2844001 	add	r4, r4, #1
   191e0:	e3540014 	cmp	r4, #20
   191e4:	1afffff8 	bne	191cc <TimerStartKernelTimer+0x3c>
   191e8:	ea00000e 	b	19228 <TimerStartKernelTimer+0x98>
   191ec:	e3a020ac 	mov	r2, #172	; 0xac
   191f0:	e59f1060 	ldr	r1, [pc, #96]	; 19258 <TimerStartKernelTimer+0xc8>
   191f4:	e59f0064 	ldr	r0, [pc, #100]	; 19260 <TimerStartKernelTimer+0xd0>
   191f8:	ebfffa65 	bl	17b94 <assertion_failed>
   191fc:	e0853204 	add	r3, r5, r4, lsl #4
   19200:	e583800c 	str	r8, [r3, #12]
   19204:	e5951004 	ldr	r1, [r5, #4]
   19208:	e0811007 	add	r1, r1, r7
   1920c:	e5831010 	str	r1, [r3, #16]
   19210:	e5836014 	str	r6, [r3, #20]
   19214:	e59d2018 	ldr	r2, [sp, #24]
   19218:	e5832018 	str	r2, [r3, #24]
   1921c:	ebffff31 	bl	18ee8 <LeaveCritical>
   19220:	e2840001 	add	r0, r4, #1
   19224:	e8bd81f0 	pop	{r4, r5, r6, r7, r8, pc}
   19228:	ebffff2e 	bl	18ee8 <LeaveCritical>
   1922c:	ebfffafb 	bl	17e20 <LoggerGet>
   19230:	e59f302c 	ldr	r3, [pc, #44]	; 19264 <TimerStartKernelTimer+0xd4>
   19234:	e3a02000 	mov	r2, #0
   19238:	e59f1028 	ldr	r1, [pc, #40]	; 19268 <TimerStartKernelTimer+0xd8>
   1923c:	ebfffb9d 	bl	180b8 <LoggerWrite>
   19240:	e3a00000 	mov	r0, #0
   19244:	e8bd81f0 	pop	{r4, r5, r6, r7, r8, pc}
   19248:	e3a04000 	mov	r4, #0
   1924c:	e3580000 	cmp	r8, #0
   19250:	1affffe9 	bne	191fc <TimerStartKernelTimer+0x6c>
   19254:	eaffffe4 	b	191ec <TimerStartKernelTimer+0x5c>
   19258:	0001d7a8 	.word	0x0001d7a8
   1925c:	0001b4d8 	.word	0x0001b4d8
   19260:	0001d7c8 	.word	0x0001d7c8
   19264:	0001d7d8 	.word	0x0001d7d8
   19268:	0001d800 	.word	0x0001d800

0001926c <TimerCancelKernelTimer>:
   1926c:	e92d4070 	push	{r4, r5, r6, lr}
   19270:	e1a04001 	mov	r4, r1
   19274:	e2505000 	subs	r5, r0, #0
   19278:	1a000003 	bne	1928c <TimerCancelKernelTimer+0x20>
   1927c:	e3a020b9 	mov	r2, #185	; 0xb9
   19280:	e59f1030 	ldr	r1, [pc, #48]	; 192b8 <TimerCancelKernelTimer+0x4c>
   19284:	e59f0030 	ldr	r0, [pc, #48]	; 192bc <TimerCancelKernelTimer+0x50>
   19288:	ebfffa41 	bl	17b94 <assertion_failed>
   1928c:	e2444001 	sub	r4, r4, #1
   19290:	e3540013 	cmp	r4, #19
   19294:	9a000003 	bls	192a8 <TimerCancelKernelTimer+0x3c>
   19298:	e3a020bb 	mov	r2, #187	; 0xbb
   1929c:	e59f1014 	ldr	r1, [pc, #20]	; 192b8 <TimerCancelKernelTimer+0x4c>
   192a0:	e59f0018 	ldr	r0, [pc, #24]	; 192c0 <TimerCancelKernelTimer+0x54>
   192a4:	ebfffa3a 	bl	17b94 <assertion_failed>
   192a8:	e0854204 	add	r4, r5, r4, lsl #4
   192ac:	e3a03000 	mov	r3, #0
   192b0:	e584300c 	str	r3, [r4, #12]
   192b4:	e8bd8070 	pop	{r4, r5, r6, pc}
   192b8:	0001d7a8 	.word	0x0001d7a8
   192bc:	0001b4d8 	.word	0x0001b4d8
   192c0:	0001d808 	.word	0x0001d808

000192c4 <TimerMsDelay>:
   192c4:	e92d4070 	push	{r4, r5, r6, lr}
   192c8:	e1a04001 	mov	r4, r1
   192cc:	e2505000 	subs	r5, r0, #0
   192d0:	1a000003 	bne	192e4 <TimerMsDelay+0x20>
   192d4:	e3a020c1 	mov	r2, #193	; 0xc1
   192d8:	e59f101c 	ldr	r1, [pc, #28]	; 192fc <TimerMsDelay+0x38>
   192dc:	e59f001c 	ldr	r0, [pc, #28]	; 19300 <TimerMsDelay+0x3c>
   192e0:	ebfffa2b 	bl	17b94 <assertion_failed>
   192e4:	e3540000 	cmp	r4, #0
   192e8:	08bd8070 	popeq	{r4, r5, r6, pc}
   192ec:	e595014c 	ldr	r0, [r5, #332]	; 0x14c
   192f0:	e0000490 	mul	r0, r0, r4
   192f4:	eb0005ff 	bl	1aaf8 <DelayLoop>
   192f8:	e8bd8070 	pop	{r4, r5, r6, pc}
   192fc:	0001d7a8 	.word	0x0001d7a8
   19300:	0001b4d8 	.word	0x0001b4d8

00019304 <TimerusDelay>:
   19304:	e92d4070 	push	{r4, r5, r6, lr}
   19308:	e1a04001 	mov	r4, r1
   1930c:	e2505000 	subs	r5, r0, #0
   19310:	1a000003 	bne	19324 <TimerusDelay+0x20>
   19314:	e3a020cd 	mov	r2, #205	; 0xcd
   19318:	e59f101c 	ldr	r1, [pc, #28]	; 1933c <TimerusDelay+0x38>
   1931c:	e59f001c 	ldr	r0, [pc, #28]	; 19340 <TimerusDelay+0x3c>
   19320:	ebfffa1b 	bl	17b94 <assertion_failed>
   19324:	e3540000 	cmp	r4, #0
   19328:	08bd8070 	popeq	{r4, r5, r6, pc}
   1932c:	e5950150 	ldr	r0, [r5, #336]	; 0x150
   19330:	e0000490 	mul	r0, r0, r4
   19334:	eb0005ef 	bl	1aaf8 <DelayLoop>
   19338:	e8bd8070 	pop	{r4, r5, r6, pc}
   1933c:	0001d7a8 	.word	0x0001d7a8
   19340:	0001b4d8 	.word	0x0001b4d8

00019344 <TimerGet>:
   19344:	e59f3034 	ldr	r3, [pc, #52]	; 19380 <TimerGet+0x3c>
   19348:	e5933000 	ldr	r3, [r3]
   1934c:	e3530000 	cmp	r3, #0
   19350:	1a000007 	bne	19374 <TimerGet+0x30>
   19354:	e92d4010 	push	{r4, lr}
   19358:	e3a020d9 	mov	r2, #217	; 0xd9
   1935c:	e59f1020 	ldr	r1, [pc, #32]	; 19384 <TimerGet+0x40>
   19360:	e59f0020 	ldr	r0, [pc, #32]	; 19388 <TimerGet+0x44>
   19364:	ebfffa0a 	bl	17b94 <assertion_failed>
   19368:	e59f3010 	ldr	r3, [pc, #16]	; 19380 <TimerGet+0x3c>
   1936c:	e5930000 	ldr	r0, [r3]
   19370:	e8bd8010 	pop	{r4, pc}
   19374:	e59f3004 	ldr	r3, [pc, #4]	; 19380 <TimerGet+0x3c>
   19378:	e5930000 	ldr	r0, [r3]
   1937c:	e12fff1e 	bx	lr
   19380:	00008954 	.word	0x00008954
   19384:	0001d7a8 	.word	0x0001d7a8
   19388:	0001c254 	.word	0x0001c254

0001938c <TimerSimpleusDelay>:
   1938c:	e3500000 	cmp	r0, #0
   19390:	012fff1e 	bxeq	lr
   19394:	e92d4070 	push	{r4, r5, r6, lr}
   19398:	e1a04000 	mov	r4, r0
   1939c:	e3a03000 	mov	r3, #0
   193a0:	ee073fba 	mcr	15, 0, r3, cr7, cr10, {5}
   193a4:	e59f0028 	ldr	r0, [pc, #40]	; 193d4 <TimerSimpleusDelay+0x48>
   193a8:	eb000778 	bl	1b190 <read32>
   193ac:	e1a06000 	mov	r6, r0
   193b0:	e59f501c 	ldr	r5, [pc, #28]	; 193d4 <TimerSimpleusDelay+0x48>
   193b4:	e1a00005 	mov	r0, r5
   193b8:	eb000774 	bl	1b190 <read32>
   193bc:	e0660000 	rsb	r0, r6, r0
   193c0:	e1540000 	cmp	r4, r0
   193c4:	8afffffa 	bhi	193b4 <TimerSimpleusDelay+0x28>
   193c8:	e3a03000 	mov	r3, #0
   193cc:	ee073fba 	mcr	15, 0, r3, cr7, cr10, {5}
   193d0:	e8bd8070 	pop	{r4, r5, r6, pc}
   193d4:	20003004 	.word	0x20003004

000193d8 <TimerSimpleMsDelay>:
   193d8:	e3500000 	cmp	r0, #0
   193dc:	012fff1e 	bxeq	lr
   193e0:	e92d4010 	push	{r4, lr}
   193e4:	e3a03ffa 	mov	r3, #1000	; 0x3e8
   193e8:	e0000093 	mul	r0, r3, r0
   193ec:	ebffffe6 	bl	1938c <TimerSimpleusDelay>
   193f0:	e8bd8010 	pop	{r4, pc}

000193f4 <TimerPollKernelTimers>:
   193f4:	e92d41f0 	push	{r4, r5, r6, r7, r8, lr}
   193f8:	e2505000 	subs	r5, r0, #0
   193fc:	1a000003 	bne	19410 <TimerPollKernelTimers+0x1c>
   19400:	e3a020f9 	mov	r2, #249	; 0xf9
   19404:	e59f1060 	ldr	r1, [pc, #96]	; 1946c <TimerPollKernelTimers+0x78>
   19408:	e59f0060 	ldr	r0, [pc, #96]	; 19470 <TimerPollKernelTimers+0x7c>
   1940c:	ebfff9e0 	bl	17b94 <assertion_failed>
   19410:	ebfffea4 	bl	18ea8 <EnterCritical>
   19414:	e3a04000 	mov	r4, #0
   19418:	e1a07004 	mov	r7, r4
   1941c:	e0853204 	add	r3, r5, r4, lsl #4
   19420:	e593600c 	ldr	r6, [r3, #12]
   19424:	e3560000 	cmp	r6, #0
   19428:	0a00000a 	beq	19458 <TimerPollKernelTimers+0x64>
   1942c:	e5933010 	ldr	r3, [r3, #16]
   19430:	e5952004 	ldr	r2, [r5, #4]
   19434:	e0623003 	rsb	r3, r2, r3
   19438:	e3530000 	cmp	r3, #0
   1943c:	ca000005 	bgt	19458 <TimerPollKernelTimers+0x64>
   19440:	e0853204 	add	r3, r5, r4, lsl #4
   19444:	e583700c 	str	r7, [r3, #12]
   19448:	e5931014 	ldr	r1, [r3, #20]
   1944c:	e5932018 	ldr	r2, [r3, #24]
   19450:	e2840001 	add	r0, r4, #1
   19454:	e12fff36 	blx	r6
   19458:	e2844001 	add	r4, r4, #1
   1945c:	e3540014 	cmp	r4, #20
   19460:	1affffed 	bne	1941c <TimerPollKernelTimers+0x28>
   19464:	ebfffe9f 	bl	18ee8 <LeaveCritical>
   19468:	e8bd81f0 	pop	{r4, r5, r6, r7, r8, pc}
   1946c:	0001d7a8 	.word	0x0001d7a8
   19470:	0001b4d8 	.word	0x0001b4d8

00019474 <TimerInterruptHandler>:
   19474:	e92d4070 	push	{r4, r5, r6, lr}
   19478:	e2504000 	subs	r4, r0, #0
   1947c:	1a000003 	bne	19490 <TimerInterruptHandler+0x1c>
   19480:	e59f20c8 	ldr	r2, [pc, #200]	; 19550 <TimerInterruptHandler+0xdc>
   19484:	e59f10c8 	ldr	r1, [pc, #200]	; 19554 <TimerInterruptHandler+0xe0>
   19488:	e59f00c8 	ldr	r0, [pc, #200]	; 19558 <TimerInterruptHandler+0xe4>
   1948c:	ebfff9c0 	bl	17b94 <assertion_failed>
   19490:	e3a03000 	mov	r3, #0
   19494:	ee073fba 	mcr	15, 0, r3, cr7, cr10, {5}
   19498:	e59f00bc 	ldr	r0, [pc, #188]	; 1955c <TimerInterruptHandler+0xe8>
   1949c:	eb00073b 	bl	1b190 <read32>
   194a0:	e3100008 	tst	r0, #8
   194a4:	1a000003 	bne	194b8 <TimerInterruptHandler+0x44>
   194a8:	e59f20b0 	ldr	r2, [pc, #176]	; 19560 <TimerInterruptHandler+0xec>
   194ac:	e59f10a0 	ldr	r1, [pc, #160]	; 19554 <TimerInterruptHandler+0xe0>
   194b0:	e59f00ac 	ldr	r0, [pc, #172]	; 19564 <TimerInterruptHandler+0xf0>
   194b4:	ebfff9b6 	bl	17b94 <assertion_failed>
   194b8:	e59f60a8 	ldr	r6, [pc, #168]	; 19568 <TimerInterruptHandler+0xf4>
   194bc:	e1a00006 	mov	r0, r6
   194c0:	eb000732 	bl	1b190 <read32>
   194c4:	e2800c27 	add	r0, r0, #9984	; 0x2700
   194c8:	e2805010 	add	r5, r0, #16
   194cc:	e1a01005 	mov	r1, r5
   194d0:	e1a00006 	mov	r0, r6
   194d4:	eb00072f 	bl	1b198 <write32>
   194d8:	e59f008c 	ldr	r0, [pc, #140]	; 1956c <TimerInterruptHandler+0xf8>
   194dc:	eb00072b 	bl	1b190 <read32>
   194e0:	e1550000 	cmp	r5, r0
   194e4:	2a000005 	bcs	19500 <TimerInterruptHandler+0x8c>
   194e8:	e59f007c 	ldr	r0, [pc, #124]	; 1956c <TimerInterruptHandler+0xf8>
   194ec:	eb000727 	bl	1b190 <read32>
   194f0:	e2801c27 	add	r1, r0, #9984	; 0x2700
   194f4:	e2811010 	add	r1, r1, #16
   194f8:	e1a00006 	mov	r0, r6
   194fc:	eb000725 	bl	1b198 <write32>
   19500:	e3a01008 	mov	r1, #8
   19504:	e59f0050 	ldr	r0, [pc, #80]	; 1955c <TimerInterruptHandler+0xe8>
   19508:	eb000722 	bl	1b198 <write32>
   1950c:	e3a03000 	mov	r3, #0
   19510:	ee073fba 	mcr	15, 0, r3, cr7, cr10, {5}
   19514:	e5943004 	ldr	r3, [r4, #4]
   19518:	e2833001 	add	r3, r3, #1
   1951c:	e5843004 	str	r3, [r4, #4]
   19520:	e59f2048 	ldr	r2, [pc, #72]	; 19570 <TimerInterruptHandler+0xfc>
   19524:	e0821392 	umull	r1, r2, r2, r3
   19528:	e1a022a2 	lsr	r2, r2, #5
   1952c:	e3a01064 	mov	r1, #100	; 0x64
   19530:	e0020291 	mul	r2, r1, r2
   19534:	e1530002 	cmp	r3, r2
   19538:	05943008 	ldreq	r3, [r4, #8]
   1953c:	02833001 	addeq	r3, r3, #1
   19540:	05843008 	streq	r3, [r4, #8]
   19544:	e1a00004 	mov	r0, r4
   19548:	ebffffa9 	bl	193f4 <TimerPollKernelTimers>
   1954c:	e8bd8070 	pop	{r4, r5, r6, pc}
   19550:	00000113 	.word	0x00000113
   19554:	0001d7a8 	.word	0x0001d7a8
   19558:	0001b4d8 	.word	0x0001b4d8
   1955c:	20003000 	.word	0x20003000
   19560:	00000117 	.word	0x00000117
   19564:	0001d830 	.word	0x0001d830
   19568:	20003018 	.word	0x20003018
   1956c:	20003004 	.word	0x20003004
   19570:	51eb851f 	.word	0x51eb851f

00019574 <TimerTuneMsDelay>:
   19574:	e92d4070 	push	{r4, r5, r6, lr}
   19578:	e2504000 	subs	r4, r0, #0
   1957c:	1a000003 	bne	19590 <TimerTuneMsDelay+0x1c>
   19580:	e59f2064 	ldr	r2, [pc, #100]	; 195ec <TimerTuneMsDelay+0x78>
   19584:	e59f1064 	ldr	r1, [pc, #100]	; 195f0 <TimerTuneMsDelay+0x7c>
   19588:	e59f0064 	ldr	r0, [pc, #100]	; 195f4 <TimerTuneMsDelay+0x80>
   1958c:	ebfff980 	bl	17b94 <assertion_failed>
   19590:	e1a00004 	mov	r0, r4
   19594:	ebfffea9 	bl	19040 <TimerGetTicks>
   19598:	e1a05000 	mov	r5, r0
   1959c:	e3a01ffa 	mov	r1, #1000	; 0x3e8
   195a0:	e1a00004 	mov	r0, r4
   195a4:	ebffff46 	bl	192c4 <TimerMsDelay>
   195a8:	e1a00004 	mov	r0, r4
   195ac:	ebfffea3 	bl	19040 <TimerGetTicks>
   195b0:	e0651000 	rsb	r1, r5, r0
   195b4:	e59f003c 	ldr	r0, [pc, #60]	; 195f8 <TimerTuneMsDelay+0x84>
   195b8:	ebfff9fe 	bl	17db8 <__aeabi_uidiv>
   195bc:	e594314c 	ldr	r3, [r4, #332]	; 0x14c
   195c0:	e0000093 	mul	r0, r3, r0
   195c4:	e59f3030 	ldr	r3, [pc, #48]	; 195fc <TimerTuneMsDelay+0x88>
   195c8:	e0803093 	umull	r3, r0, r3, r0
   195cc:	e1a002a0 	lsr	r0, r0, #5
   195d0:	e584014c 	str	r0, [r4, #332]	; 0x14c
   195d4:	e2800f7d 	add	r0, r0, #500	; 0x1f4
   195d8:	e59f3020 	ldr	r3, [pc, #32]	; 19600 <TimerTuneMsDelay+0x8c>
   195dc:	e0803093 	umull	r3, r0, r3, r0
   195e0:	e1a00320 	lsr	r0, r0, #6
   195e4:	e5840150 	str	r0, [r4, #336]	; 0x150
   195e8:	e8bd8070 	pop	{r4, r5, r6, pc}
   195ec:	0000012f 	.word	0x0000012f
   195f0:	0001d7a8 	.word	0x0001d7a8
   195f4:	0001b4d8 	.word	0x0001b4d8
   195f8:	00002710 	.word	0x00002710
   195fc:	51eb851f 	.word	0x51eb851f
   19600:	10624dd3 	.word	0x10624dd3

00019604 <TimerInitialize>:
   19604:	e92d4070 	push	{r4, r5, r6, lr}
   19608:	e2504000 	subs	r4, r0, #0
   1960c:	1a000003 	bne	19620 <TimerInitialize+0x1c>
   19610:	e3a02043 	mov	r2, #67	; 0x43
   19614:	e59f1078 	ldr	r1, [pc, #120]	; 19694 <TimerInitialize+0x90>
   19618:	e59f0078 	ldr	r0, [pc, #120]	; 19698 <TimerInitialize+0x94>
   1961c:	ebfff95c 	bl	17b94 <assertion_failed>
   19620:	e5943000 	ldr	r3, [r4]
   19624:	e3530000 	cmp	r3, #0
   19628:	1a000003 	bne	1963c <TimerInitialize+0x38>
   1962c:	e3a02045 	mov	r2, #69	; 0x45
   19630:	e59f105c 	ldr	r1, [pc, #92]	; 19694 <TimerInitialize+0x90>
   19634:	e59f0060 	ldr	r0, [pc, #96]	; 1969c <TimerInitialize+0x98>
   19638:	ebfff955 	bl	17b94 <assertion_failed>
   1963c:	e1a03004 	mov	r3, r4
   19640:	e59f2058 	ldr	r2, [pc, #88]	; 196a0 <TimerInitialize+0x9c>
   19644:	e3a01003 	mov	r1, #3
   19648:	e5940000 	ldr	r0, [r4]
   1964c:	eb0005da 	bl	1adbc <InterruptSystemConnectIRQ>
   19650:	e3a05000 	mov	r5, #0
   19654:	ee075fba 	mcr	15, 0, r5, cr7, cr10, {5}
   19658:	e59f6044 	ldr	r6, [pc, #68]	; 196a4 <TimerInitialize+0xa0>
   1965c:	e59f1044 	ldr	r1, [pc, #68]	; 196a8 <TimerInitialize+0xa4>
   19660:	e1a00006 	mov	r0, r6
   19664:	eb0006cb 	bl	1b198 <write32>
   19668:	e1a00006 	mov	r0, r6
   1966c:	eb0006c7 	bl	1b190 <read32>
   19670:	e2801c27 	add	r1, r0, #9984	; 0x2700
   19674:	e2811010 	add	r1, r1, #16
   19678:	e59f002c 	ldr	r0, [pc, #44]	; 196ac <TimerInitialize+0xa8>
   1967c:	eb0006c5 	bl	1b198 <write32>
   19680:	e1a00004 	mov	r0, r4
   19684:	ebffffba 	bl	19574 <TimerTuneMsDelay>
   19688:	ee075fba 	mcr	15, 0, r5, cr7, cr10, {5}
   1968c:	e3a00001 	mov	r0, #1
   19690:	e8bd8070 	pop	{r4, r5, r6, pc}
   19694:	0001d7a8 	.word	0x0001d7a8
   19698:	0001b4d8 	.word	0x0001b4d8
   1969c:	0001d854 	.word	0x0001d854
   196a0:	00019474 	.word	0x00019474
   196a4:	20003004 	.word	0x20003004
   196a8:	fe363c80 	.word	0xfe363c80
   196ac:	20003018 	.word	0x20003018

000196b0 <MsDelay>:
   196b0:	e92d4010 	push	{r4, lr}
   196b4:	e1a04000 	mov	r4, r0
   196b8:	ebffff21 	bl	19344 <TimerGet>
   196bc:	e1a01004 	mov	r1, r4
   196c0:	ebfffeff 	bl	192c4 <TimerMsDelay>
   196c4:	e8bd8010 	pop	{r4, pc}

000196c8 <usDelay>:
   196c8:	e92d4010 	push	{r4, lr}
   196cc:	e1a04000 	mov	r4, r0
   196d0:	ebffff1b 	bl	19344 <TimerGet>
   196d4:	e1a01004 	mov	r1, r4
   196d8:	ebffff09 	bl	19304 <TimerusDelay>
   196dc:	e8bd8010 	pop	{r4, pc}

000196e0 <StartKernelTimer>:
   196e0:	e92d40f0 	push	{r4, r5, r6, r7, lr}
   196e4:	e24dd00c 	sub	sp, sp, #12
   196e8:	e1a04000 	mov	r4, r0
   196ec:	e1a05001 	mov	r5, r1
   196f0:	e1a06002 	mov	r6, r2
   196f4:	e1a07003 	mov	r7, r3
   196f8:	ebffff11 	bl	19344 <TimerGet>
   196fc:	e58d7000 	str	r7, [sp]
   19700:	e1a03006 	mov	r3, r6
   19704:	e1a02005 	mov	r2, r5
   19708:	e1a01004 	mov	r1, r4
   1970c:	ebfffe9f 	bl	19190 <TimerStartKernelTimer>
   19710:	e28dd00c 	add	sp, sp, #12
   19714:	e8bd80f0 	pop	{r4, r5, r6, r7, pc}

00019718 <CancelKernelTimer>:
   19718:	e92d4010 	push	{r4, lr}
   1971c:	e1a04000 	mov	r4, r0
   19720:	ebffff07 	bl	19344 <TimerGet>
   19724:	e1a01004 	mov	r1, r4
   19728:	ebfffecf 	bl	1926c <TimerCancelKernelTimer>
   1972c:	e8bd8010 	pop	{r4, pc}

00019730 <ConnectInterrupt>:
   19730:	e92d4070 	push	{r4, r5, r6, lr}
   19734:	e1a04000 	mov	r4, r0
   19738:	e1a05001 	mov	r5, r1
   1973c:	e1a06002 	mov	r6, r2
   19740:	eb0005fc 	bl	1af38 <InterruptSystemGet>
   19744:	e1a03006 	mov	r3, r6
   19748:	e1a02005 	mov	r2, r5
   1974c:	e1a01004 	mov	r1, r4
   19750:	eb000599 	bl	1adbc <InterruptSystemConnectIRQ>
   19754:	e8bd8070 	pop	{r4, r5, r6, pc}

00019758 <SetPowerStateOn>:
   19758:	e92d4010 	push	{r4, lr}
   1975c:	e24dd020 	sub	sp, sp, #32
   19760:	e1a04000 	mov	r4, r0
   19764:	e28d001c 	add	r0, sp, #28
   19768:	eb000411 	bl	1a7b4 <BcmPropertyTags>
   1976c:	e58d4014 	str	r4, [sp, #20]
   19770:	e3a03003 	mov	r3, #3
   19774:	e58d3018 	str	r3, [sp, #24]
   19778:	e3a03008 	mov	r3, #8
   1977c:	e58d3000 	str	r3, [sp]
   19780:	e3a03014 	mov	r3, #20
   19784:	e28d2008 	add	r2, sp, #8
   19788:	e59f1040 	ldr	r1, [pc, #64]	; 197d0 <SetPowerStateOn+0x78>
   1978c:	e28d001c 	add	r0, sp, #28
   19790:	eb000420 	bl	1a818 <BcmPropertyTagsGetTag>
   19794:	e3500000 	cmp	r0, #0
   19798:	0a000003 	beq	197ac <SetPowerStateOn+0x54>
   1979c:	e59d3018 	ldr	r3, [sp, #24]
   197a0:	e2033003 	and	r3, r3, #3
   197a4:	e3530001 	cmp	r3, #1
   197a8:	0a000003 	beq	197bc <SetPowerStateOn+0x64>
   197ac:	e28d001c 	add	r0, sp, #28
   197b0:	eb00040c 	bl	1a7e8 <_BcmPropertyTags>
   197b4:	e3a00000 	mov	r0, #0
   197b8:	ea000002 	b	197c8 <SetPowerStateOn+0x70>
   197bc:	e28d001c 	add	r0, sp, #28
   197c0:	eb000408 	bl	1a7e8 <_BcmPropertyTags>
   197c4:	e3a00001 	mov	r0, #1
   197c8:	e28dd020 	add	sp, sp, #32
   197cc:	e8bd8010 	pop	{r4, pc}
   197d0:	00028001 	.word	0x00028001

000197d4 <GetMACAddress>:
   197d4:	e92d4030 	push	{r4, r5, lr}
   197d8:	e24dd024 	sub	sp, sp, #36	; 0x24
   197dc:	e1a05000 	mov	r5, r0
   197e0:	e28d001c 	add	r0, sp, #28
   197e4:	eb0003f2 	bl	1a7b4 <BcmPropertyTags>
   197e8:	e3a03000 	mov	r3, #0
   197ec:	e58d3000 	str	r3, [sp]
   197f0:	e3a03014 	mov	r3, #20
   197f4:	e28d2008 	add	r2, sp, #8
   197f8:	e59f1040 	ldr	r1, [pc, #64]	; 19840 <GetMACAddress+0x6c>
   197fc:	e28d001c 	add	r0, sp, #28
   19800:	eb000404 	bl	1a818 <BcmPropertyTagsGetTag>
   19804:	e2504000 	subs	r4, r0, #0
   19808:	1a000002 	bne	19818 <GetMACAddress+0x44>
   1980c:	e28d001c 	add	r0, sp, #28
   19810:	eb0003f4 	bl	1a7e8 <_BcmPropertyTags>
   19814:	ea000006 	b	19834 <GetMACAddress+0x60>
   19818:	e3a02006 	mov	r2, #6
   1981c:	e28d1014 	add	r1, sp, #20
   19820:	e1a00005 	mov	r0, r5
   19824:	eb000078 	bl	19a0c <memcpy>
   19828:	e28d001c 	add	r0, sp, #28
   1982c:	eb0003ed 	bl	1a7e8 <_BcmPropertyTags>
   19830:	e3a04001 	mov	r4, #1
   19834:	e1a00004 	mov	r0, r4
   19838:	e28dd024 	add	sp, sp, #36	; 0x24
   1983c:	e8bd8030 	pop	{r4, r5, pc}
   19840:	00010003 	.word	0x00010003

00019844 <LogWrite>:
   19844:	e92d000c 	push	{r2, r3}
   19848:	e92d4030 	push	{r4, r5, lr}
   1984c:	e24dd014 	sub	sp, sp, #20
   19850:	e1a04000 	mov	r4, r0
   19854:	e1a05001 	mov	r5, r1
   19858:	e28d3024 	add	r3, sp, #36	; 0x24
   1985c:	e58d300c 	str	r3, [sp, #12]
   19860:	ebfff96e 	bl	17e20 <LoggerGet>
   19864:	e59d300c 	ldr	r3, [sp, #12]
   19868:	e58d3000 	str	r3, [sp]
   1986c:	e59d3020 	ldr	r3, [sp, #32]
   19870:	e6ef2075 	uxtb	r2, r5
   19874:	e1a01004 	mov	r1, r4
   19878:	ebfff976 	bl	17e58 <LoggerWriteV>
   1987c:	e28dd014 	add	sp, sp, #20
   19880:	e8bd4030 	pop	{r4, r5, lr}
   19884:	e28dd008 	add	sp, sp, #8
   19888:	e12fff1e 	bx	lr

0001988c <uspi_assertion_failed>:
   1988c:	e92d4010 	push	{r4, lr}
   19890:	ebfff8bf 	bl	17b94 <assertion_failed>
   19894:	e8bd8010 	pop	{r4, pc}

00019898 <DebugHexdump>:
   19898:	e92d4010 	push	{r4, lr}
   1989c:	ebfff8de 	bl	17c1c <debug_hexdump>
   198a0:	e8bd8010 	pop	{r4, pc}

000198a4 <USPiEnvInitialize>:
   198a4:	e92d4070 	push	{r4, r5, r6, lr}
   198a8:	e59f40ec 	ldr	r4, [pc, #236]	; 1999c <USPiEnvInitialize+0xf8>
   198ac:	e3a01001 	mov	r1, #1
   198b0:	e1a00004 	mov	r0, r4
   198b4:	eb000160 	bl	19e3c <MemorySystem>
   198b8:	e2844010 	add	r4, r4, #16
   198bc:	e3a02000 	mov	r2, #0
   198c0:	e1a01002 	mov	r1, r2
   198c4:	e1a00004 	mov	r0, r4
   198c8:	ebfffa10 	bl	18110 <ScreenDevice>
   198cc:	e1a00004 	mov	r0, r4
   198d0:	ebfffd15 	bl	18d2c <ScreenDeviceInitialize>
   198d4:	e2504000 	subs	r4, r0, #0
   198d8:	1a000002 	bne	198e8 <USPiEnvInitialize+0x44>
   198dc:	e59f00bc 	ldr	r0, [pc, #188]	; 199a0 <USPiEnvInitialize+0xfc>
   198e0:	ebfffa1d 	bl	1815c <_ScreenDevice>
   198e4:	ea00002a 	b	19994 <USPiEnvInitialize+0xf0>
   198e8:	e59f40ac 	ldr	r4, [pc, #172]	; 1999c <USPiEnvInitialize+0xf8>
   198ec:	e2845064 	add	r5, r4, #100	; 0x64
   198f0:	e1a00005 	mov	r0, r5
   198f4:	eb000222 	bl	1a184 <ExceptionHandler2>
   198f8:	e1a00005 	mov	r0, r5
   198fc:	eb0004b8 	bl	1abe4 <InterruptSystem>
   19900:	e2846fa9 	add	r6, r4, #676	; 0x2a4
   19904:	e1a01005 	mov	r1, r5
   19908:	e1a00006 	mov	r0, r6
   1990c:	ebfffd8e 	bl	18f4c <Timer>
   19910:	e2845058 	add	r5, r4, #88	; 0x58
   19914:	e1a02006 	mov	r2, r6
   19918:	e3a01004 	mov	r1, #4
   1991c:	e1a00005 	mov	r0, r5
   19920:	ebfff92f 	bl	17de4 <Logger>
   19924:	e2841010 	add	r1, r4, #16
   19928:	e1a00005 	mov	r0, r5
   1992c:	ebfff9ed 	bl	180e8 <LoggerInitialize>
   19930:	e3500000 	cmp	r0, #0
   19934:	0a000008 	beq	1995c <USPiEnvInitialize+0xb8>
   19938:	e2840064 	add	r0, r4, #100	; 0x64
   1993c:	eb0004c2 	bl	1ac4c <InterruptSystemInitialize>
   19940:	e3500000 	cmp	r0, #0
   19944:	0a000004 	beq	1995c <USPiEnvInitialize+0xb8>
   19948:	e1a00006 	mov	r0, r6
   1994c:	ebffff2c 	bl	19604 <TimerInitialize>
   19950:	e3500000 	cmp	r0, #0
   19954:	13a04001 	movne	r4, #1
   19958:	1a00000d 	bne	19994 <USPiEnvInitialize+0xf0>
   1995c:	e59f4038 	ldr	r4, [pc, #56]	; 1999c <USPiEnvInitialize+0xf8>
   19960:	e2840058 	add	r0, r4, #88	; 0x58
   19964:	ebfff926 	bl	17e04 <_Logger>
   19968:	e2840fa9 	add	r0, r4, #676	; 0x2a4
   1996c:	ebfffd9e 	bl	18fec <_Timer>
   19970:	e2845064 	add	r5, r4, #100	; 0x64
   19974:	e1a00005 	mov	r0, r5
   19978:	eb0004ae 	bl	1ac38 <_InterruptSystem>
   1997c:	e1a00005 	mov	r0, r5
   19980:	eb00022e 	bl	1a240 <_ExceptionHandler>
   19984:	e2840010 	add	r0, r4, #16
   19988:	ebfff9f3 	bl	1815c <_ScreenDevice>
   1998c:	e3a04000 	mov	r4, #0
   19990:	eaffffff 	b	19994 <USPiEnvInitialize+0xf0>
   19994:	e1a00004 	mov	r0, r4
   19998:	e8bd8070 	pop	{r4, r5, r6, pc}
   1999c:	00008958 	.word	0x00008958
   199a0:	00008968 	.word	0x00008968

000199a4 <USPiEnvClose>:
   199a4:	e92d4070 	push	{r4, r5, r6, lr}
   199a8:	e59f402c 	ldr	r4, [pc, #44]	; 199dc <USPiEnvClose+0x38>
   199ac:	e2840058 	add	r0, r4, #88	; 0x58
   199b0:	ebfff913 	bl	17e04 <_Logger>
   199b4:	e2840fa9 	add	r0, r4, #676	; 0x2a4
   199b8:	ebfffd8b 	bl	18fec <_Timer>
   199bc:	e2845064 	add	r5, r4, #100	; 0x64
   199c0:	e1a00005 	mov	r0, r5
   199c4:	eb00049b 	bl	1ac38 <_InterruptSystem>
   199c8:	e1a00005 	mov	r0, r5
   199cc:	eb00021b 	bl	1a240 <_ExceptionHandler>
   199d0:	e2840010 	add	r0, r4, #16
   199d4:	ebfff9e0 	bl	1815c <_ScreenDevice>
   199d8:	e8bd8070 	pop	{r4, r5, r6, pc}
   199dc:	00008958 	.word	0x00008958

000199e0 <USPiEnvGetScreen>:
   199e0:	e59f0000 	ldr	r0, [pc]	; 199e8 <USPiEnvGetScreen+0x8>
   199e4:	e12fff1e 	bx	lr
   199e8:	00008968 	.word	0x00008968

000199ec <memset>:
   199ec:	e3520000 	cmp	r2, #0
   199f0:	012fff1e 	bxeq	lr
   199f4:	e0802002 	add	r2, r0, r2
   199f8:	e1a03000 	mov	r3, r0
   199fc:	e4c31001 	strb	r1, [r3], #1
   19a00:	e1520003 	cmp	r2, r3
   19a04:	1afffffc 	bne	199fc <memset+0x10>
   19a08:	e12fff1e 	bx	lr

00019a0c <memcpy>:
   19a0c:	e3520000 	cmp	r2, #0
   19a10:	012fff1e 	bxeq	lr
   19a14:	e2403001 	sub	r3, r0, #1
   19a18:	e0812002 	add	r2, r1, r2
   19a1c:	e0d1c0d1 	ldrsb	ip, [r1], #1
   19a20:	e5e3c001 	strb	ip, [r3, #1]!
   19a24:	e1510002 	cmp	r1, r2
   19a28:	1afffffb 	bne	19a1c <memcpy+0x10>
   19a2c:	e12fff1e 	bx	lr

00019a30 <memcmp>:
   19a30:	e3520000 	cmp	r2, #0
   19a34:	0a000011 	beq	19a80 <memcmp+0x50>
   19a38:	e5d0c000 	ldrb	ip, [r0]
   19a3c:	e5d13000 	ldrb	r3, [r1]
   19a40:	e15c0003 	cmp	ip, r3
   19a44:	8a00000f 	bhi	19a88 <memcmp+0x58>
   19a48:	3a000010 	bcc	19a90 <memcmp+0x60>
   19a4c:	e52de004 	push	{lr}		; (str lr, [sp, #-4]!)
   19a50:	e2803001 	add	r3, r0, #1
   19a54:	e0800002 	add	r0, r0, r2
   19a58:	ea000004 	b	19a70 <memcmp+0x40>
   19a5c:	e4d3e001 	ldrb	lr, [r3], #1
   19a60:	e5f1c001 	ldrb	ip, [r1, #1]!
   19a64:	e15e000c 	cmp	lr, ip
   19a68:	8a00000a 	bhi	19a98 <memcmp+0x68>
   19a6c:	3a00000b 	bcc	19aa0 <memcmp+0x70>
   19a70:	e1530000 	cmp	r3, r0
   19a74:	1afffff8 	bne	19a5c <memcmp+0x2c>
   19a78:	e3a00000 	mov	r0, #0
   19a7c:	e49df004 	pop	{pc}		; (ldr pc, [sp], #4)
   19a80:	e3a00000 	mov	r0, #0
   19a84:	e12fff1e 	bx	lr
   19a88:	e3a00001 	mov	r0, #1
   19a8c:	e12fff1e 	bx	lr
   19a90:	e3e00000 	mvn	r0, #0
   19a94:	e12fff1e 	bx	lr
   19a98:	e3a00001 	mov	r0, #1
   19a9c:	e49df004 	pop	{pc}		; (ldr pc, [sp], #4)
   19aa0:	e3e00000 	mvn	r0, #0
   19aa4:	e49df004 	pop	{pc}		; (ldr pc, [sp], #4)

00019aa8 <strlen>:
   19aa8:	e1a01000 	mov	r1, r0
   19aac:	e2803001 	add	r3, r0, #1
   19ab0:	e1d020d0 	ldrsb	r2, [r0]
   19ab4:	e3520000 	cmp	r2, #0
   19ab8:	0a000004 	beq	19ad0 <strlen+0x28>
   19abc:	e0610003 	rsb	r0, r1, r3
   19ac0:	e0d320d1 	ldrsb	r2, [r3], #1
   19ac4:	e3520000 	cmp	r2, #0
   19ac8:	1afffffb 	bne	19abc <strlen+0x14>
   19acc:	e12fff1e 	bx	lr
   19ad0:	e3a00000 	mov	r0, #0
   19ad4:	e12fff1e 	bx	lr

00019ad8 <strcmp>:
   19ad8:	e1d030d0 	ldrsb	r3, [r0]
   19adc:	e3530000 	cmp	r3, #0
   19ae0:	0a000011 	beq	19b2c <strcmp+0x54>
   19ae4:	e1d120d0 	ldrsb	r2, [r1]
   19ae8:	e3520000 	cmp	r2, #0
   19aec:	0a00000e 	beq	19b2c <strcmp+0x54>
   19af0:	e1530002 	cmp	r3, r2
   19af4:	ca000013 	bgt	19b48 <strcmp+0x70>
   19af8:	ba000014 	blt	19b50 <strcmp+0x78>
   19afc:	e281c001 	add	ip, r1, #1
   19b00:	ea000002 	b	19b10 <strcmp+0x38>
   19b04:	e1530002 	cmp	r3, r2
   19b08:	ca000012 	bgt	19b58 <strcmp+0x80>
   19b0c:	ba000013 	blt	19b60 <strcmp+0x88>
   19b10:	e1a0100c 	mov	r1, ip
   19b14:	e1f030d1 	ldrsb	r3, [r0, #1]!
   19b18:	e3530000 	cmp	r3, #0
   19b1c:	0a000002 	beq	19b2c <strcmp+0x54>
   19b20:	e0dc20d1 	ldrsb	r2, [ip], #1
   19b24:	e3520000 	cmp	r2, #0
   19b28:	1afffff5 	bne	19b04 <strcmp+0x2c>
   19b2c:	e1d100d0 	ldrsb	r0, [r1]
   19b30:	e1500003 	cmp	r0, r3
   19b34:	ba00000b 	blt	19b68 <strcmp+0x90>
   19b38:	e1500003 	cmp	r0, r3
   19b3c:	d3a00000 	movle	r0, #0
   19b40:	c3e00000 	mvngt	r0, #0
   19b44:	e12fff1e 	bx	lr
   19b48:	e3a00001 	mov	r0, #1
   19b4c:	e12fff1e 	bx	lr
   19b50:	e3e00000 	mvn	r0, #0
   19b54:	e12fff1e 	bx	lr
   19b58:	e3a00001 	mov	r0, #1
   19b5c:	e12fff1e 	bx	lr
   19b60:	e3e00000 	mvn	r0, #0
   19b64:	e12fff1e 	bx	lr
   19b68:	e3a00001 	mov	r0, #1
   19b6c:	e12fff1e 	bx	lr

00019b70 <strcpy>:
   19b70:	e1d130d0 	ldrsb	r3, [r1]
   19b74:	e3530000 	cmp	r3, #0
   19b78:	0a000005 	beq	19b94 <strcpy+0x24>
   19b7c:	e1a02000 	mov	r2, r0
   19b80:	e4c23001 	strb	r3, [r2], #1
   19b84:	e1f130d1 	ldrsb	r3, [r1, #1]!
   19b88:	e3530000 	cmp	r3, #0
   19b8c:	1afffffb 	bne	19b80 <strcpy+0x10>
   19b90:	ea000000 	b	19b98 <strcpy+0x28>
   19b94:	e1a02000 	mov	r2, r0
   19b98:	e3a03000 	mov	r3, #0
   19b9c:	e5c23000 	strb	r3, [r2]
   19ba0:	e12fff1e 	bx	lr

00019ba4 <strncpy>:
   19ba4:	e3520000 	cmp	r2, #0
   19ba8:	012fff1e 	bxeq	lr
   19bac:	e52de004 	push	{lr}		; (str lr, [sp, #-4]!)
   19bb0:	e1d130d0 	ldrsb	r3, [r1]
   19bb4:	e3530000 	cmp	r3, #0
   19bb8:	0a00000a 	beq	19be8 <strncpy+0x44>
   19bbc:	e281c001 	add	ip, r1, #1
   19bc0:	e0811002 	add	r1, r1, r2
   19bc4:	e1a0e000 	mov	lr, r0
   19bc8:	ea000002 	b	19bd8 <strncpy+0x34>
   19bcc:	e0dc30d1 	ldrsb	r3, [ip], #1
   19bd0:	e3530000 	cmp	r3, #0
   19bd4:	0a000004 	beq	19bec <strncpy+0x48>
   19bd8:	e4ce3001 	strb	r3, [lr], #1
   19bdc:	e15c0001 	cmp	ip, r1
   19be0:	1afffff9 	bne	19bcc <strncpy+0x28>
   19be4:	e49df004 	pop	{pc}		; (ldr pc, [sp], #4)
   19be8:	e1a0e000 	mov	lr, r0
   19bec:	e3a03000 	mov	r3, #0
   19bf0:	e5ce3000 	strb	r3, [lr]
   19bf4:	e49df004 	pop	{pc}		; (ldr pc, [sp], #4)

00019bf8 <strcat>:
   19bf8:	e1d030d0 	ldrsb	r3, [r0]
   19bfc:	e3530000 	cmp	r3, #0
   19c00:	0a000004 	beq	19c18 <strcat+0x20>
   19c04:	e1a03000 	mov	r3, r0
   19c08:	e1f320d1 	ldrsb	r2, [r3, #1]!
   19c0c:	e3520000 	cmp	r2, #0
   19c10:	1afffffc 	bne	19c08 <strcat+0x10>
   19c14:	ea000000 	b	19c1c <strcat+0x24>
   19c18:	e1a03000 	mov	r3, r0
   19c1c:	e1d120d0 	ldrsb	r2, [r1]
   19c20:	e3520000 	cmp	r2, #0
   19c24:	0a000003 	beq	19c38 <strcat+0x40>
   19c28:	e4c32001 	strb	r2, [r3], #1
   19c2c:	e1f120d1 	ldrsb	r2, [r1, #1]!
   19c30:	e3520000 	cmp	r2, #0
   19c34:	1afffffb 	bne	19c28 <strcat+0x30>
   19c38:	e3a02000 	mov	r2, #0
   19c3c:	e5c32000 	strb	r2, [r3]
   19c40:	e12fff1e 	bx	lr

00019c44 <char2int>:
   19c44:	e12fff1e 	bx	lr

00019c48 <le2be16>:
   19c48:	e1a03420 	lsr	r3, r0, #8
   19c4c:	e1830400 	orr	r0, r3, r0, lsl #8
   19c50:	e6ff0070 	uxth	r0, r0
   19c54:	e12fff1e 	bx	lr

00019c58 <le2be32>:
   19c58:	e1a03c20 	lsr	r3, r0, #24
   19c5c:	e1833c00 	orr	r3, r3, r0, lsl #24
   19c60:	e2002cff 	and	r2, r0, #65280	; 0xff00
   19c64:	e1833402 	orr	r3, r3, r2, lsl #8
   19c68:	e20008ff 	and	r0, r0, #16711680	; 0xff0000
   19c6c:	e1830420 	orr	r0, r3, r0, lsr #8
   19c70:	e12fff1e 	bx	lr

00019c74 <memcpyblk>:
   19c74:	e92d0079 	push	{r0, r3, r4, r5, r6}
   19c78:	e8b10078 	ldm	r1!, {r3, r4, r5, r6}
   19c7c:	e2522010 	subs	r2, r2, #16
   19c80:	e8a00078 	stmia	r0!, {r3, r4, r5, r6}
   19c84:	f5d1f040 	pld	[r1, #64]	; 0x40
   19c88:	1afffffa 	bne	19c78 <memcpyblk+0x4>
   19c8c:	e8bd0079 	pop	{r0, r3, r4, r5, r6}
   19c90:	e12fff1e 	bx	lr

00019c94 <_MemorySystem>:
   19c94:	e92d4070 	push	{r4, r5, r6, lr}
   19c98:	e2504000 	subs	r4, r0, #0
   19c9c:	1a000003 	bne	19cb0 <_MemorySystem+0x1c>
   19ca0:	e3a02058 	mov	r2, #88	; 0x58
   19ca4:	e59f1058 	ldr	r1, [pc, #88]	; 19d04 <_MemorySystem+0x70>
   19ca8:	e59f0058 	ldr	r0, [pc, #88]	; 19d08 <_MemorySystem+0x74>
   19cac:	ebfff7b8 	bl	17b94 <assertion_failed>
   19cb0:	e5943000 	ldr	r3, [r4]
   19cb4:	e3530000 	cmp	r3, #0
   19cb8:	0a000005 	beq	19cd4 <_MemorySystem+0x40>
   19cbc:	ee112f10 	mrc	15, 0, r2, cr1, cr0, {0}
   19cc0:	e59f3044 	ldr	r3, [pc, #68]	; 19d0c <_MemorySystem+0x78>
   19cc4:	e0033002 	and	r3, r3, r2
   19cc8:	ee013f10 	mcr	15, 0, r3, cr1, cr0, {0}
   19ccc:	e3a03000 	mov	r3, #0
   19cd0:	ee083f17 	mcr	15, 0, r3, cr8, cr7, {0}
   19cd4:	e594000c 	ldr	r0, [r4, #12]
   19cd8:	eb00010c 	bl	1a110 <_PageTable>
   19cdc:	e594000c 	ldr	r0, [r4, #12]
   19ce0:	ebfff72b 	bl	17994 <free>
   19ce4:	e3a05000 	mov	r5, #0
   19ce8:	e584500c 	str	r5, [r4, #12]
   19cec:	e5940008 	ldr	r0, [r4, #8]
   19cf0:	eb000106 	bl	1a110 <_PageTable>
   19cf4:	e5940008 	ldr	r0, [r4, #8]
   19cf8:	ebfff725 	bl	17994 <free>
   19cfc:	e5845008 	str	r5, [r4, #8]
   19d00:	e8bd8070 	pop	{r4, r5, r6, pc}
   19d04:	0001d874 	.word	0x0001d874
   19d08:	0001b4d8 	.word	0x0001b4d8
   19d0c:	ff7fe7fa 	.word	0xff7fe7fa

00019d10 <MemorySystemGetMemSize>:
   19d10:	e92d4010 	push	{r4, lr}
   19d14:	e2504000 	subs	r4, r0, #0
   19d18:	1a000003 	bne	19d2c <MemorySystemGetMemSize+0x1c>
   19d1c:	e3a02071 	mov	r2, #113	; 0x71
   19d20:	e59f100c 	ldr	r1, [pc, #12]	; 19d34 <MemorySystemGetMemSize+0x24>
   19d24:	e59f000c 	ldr	r0, [pc, #12]	; 19d38 <MemorySystemGetMemSize+0x28>
   19d28:	ebfff799 	bl	17b94 <assertion_failed>
   19d2c:	e5940004 	ldr	r0, [r4, #4]
   19d30:	e8bd8010 	pop	{r4, pc}
   19d34:	0001d874 	.word	0x0001d874
   19d38:	0001b4d8 	.word	0x0001b4d8

00019d3c <MemorySystemEnableMMU>:
   19d3c:	e92d4010 	push	{r4, lr}
   19d40:	e2504000 	subs	r4, r0, #0
   19d44:	1a000003 	bne	19d58 <MemorySystemEnableMMU+0x1c>
   19d48:	e3a02078 	mov	r2, #120	; 0x78
   19d4c:	e59f10cc 	ldr	r1, [pc, #204]	; 19e20 <MemorySystemEnableMMU+0xe4>
   19d50:	e59f00cc 	ldr	r0, [pc, #204]	; 19e24 <MemorySystemEnableMMU+0xe8>
   19d54:	ebfff78e 	bl	17b94 <assertion_failed>
   19d58:	e5943000 	ldr	r3, [r4]
   19d5c:	e3530000 	cmp	r3, #0
   19d60:	1a000003 	bne	19d74 <MemorySystemEnableMMU+0x38>
   19d64:	e3a0207a 	mov	r2, #122	; 0x7a
   19d68:	e59f10b0 	ldr	r1, [pc, #176]	; 19e20 <MemorySystemEnableMMU+0xe4>
   19d6c:	e59f00b4 	ldr	r0, [pc, #180]	; 19e28 <MemorySystemEnableMMU+0xec>
   19d70:	ebfff787 	bl	17b94 <assertion_failed>
   19d74:	ee113f30 	mrc	15, 0, r3, cr1, cr0, {1}
   19d78:	e3833040 	orr	r3, r3, #64	; 0x40
   19d7c:	ee013f30 	mcr	15, 0, r3, cr1, cr0, {1}
   19d80:	ee103f70 	mrc	15, 0, r3, cr0, cr0, {3}
   19d84:	e3130001 	tst	r3, #1
   19d88:	0a000003 	beq	19d9c <MemorySystemEnableMMU+0x60>
   19d8c:	e3a02087 	mov	r2, #135	; 0x87
   19d90:	e59f1088 	ldr	r1, [pc, #136]	; 19e20 <MemorySystemEnableMMU+0xe4>
   19d94:	e59f0090 	ldr	r0, [pc, #144]	; 19e2c <MemorySystemEnableMMU+0xf0>
   19d98:	ebfff77d 	bl	17b94 <assertion_failed>
   19d9c:	e3a03003 	mov	r3, #3
   19da0:	ee023f50 	mcr	15, 0, r3, cr2, cr0, {2}
   19da4:	e5943008 	ldr	r3, [r4, #8]
   19da8:	e3530000 	cmp	r3, #0
   19dac:	1a000003 	bne	19dc0 <MemorySystemEnableMMU+0x84>
   19db0:	e3a0208d 	mov	r2, #141	; 0x8d
   19db4:	e59f1064 	ldr	r1, [pc, #100]	; 19e20 <MemorySystemEnableMMU+0xe4>
   19db8:	e59f0070 	ldr	r0, [pc, #112]	; 19e30 <MemorySystemEnableMMU+0xf4>
   19dbc:	ebfff774 	bl	17b94 <assertion_failed>
   19dc0:	e5940008 	ldr	r0, [r4, #8]
   19dc4:	eb0000e2 	bl	1a154 <PageTableGetBaseAddress>
   19dc8:	ee020f10 	mcr	15, 0, r0, cr2, cr0, {0}
   19dcc:	e594300c 	ldr	r3, [r4, #12]
   19dd0:	e3530000 	cmp	r3, #0
   19dd4:	1a000003 	bne	19de8 <MemorySystemEnableMMU+0xac>
   19dd8:	e3a02091 	mov	r2, #145	; 0x91
   19ddc:	e59f103c 	ldr	r1, [pc, #60]	; 19e20 <MemorySystemEnableMMU+0xe4>
   19de0:	e59f004c 	ldr	r0, [pc, #76]	; 19e34 <MemorySystemEnableMMU+0xf8>
   19de4:	ebfff76a 	bl	17b94 <assertion_failed>
   19de8:	e594000c 	ldr	r0, [r4, #12]
   19dec:	eb0000d8 	bl	1a154 <PageTableGetBaseAddress>
   19df0:	ee020f30 	mcr	15, 0, r0, cr2, cr0, {1}
   19df4:	e3a03005 	mov	r3, #5
   19df8:	ee033f10 	mcr	15, 0, r3, cr3, cr0, {0}
   19dfc:	e3a03000 	mov	r3, #0
   19e00:	ee073f16 	mcr	15, 0, r3, cr7, cr6, {0}
   19e04:	ee073f95 	mcr	15, 0, r3, cr7, cr5, {4}
   19e08:	ee112f10 	mrc	15, 0, r2, cr1, cr0, {0}
   19e0c:	e3c22501 	bic	r2, r2, #4194304	; 0x400000
   19e10:	e59f3020 	ldr	r3, [pc, #32]	; 19e38 <MemorySystemEnableMMU+0xfc>
   19e14:	e1823003 	orr	r3, r2, r3
   19e18:	ee013f10 	mcr	15, 0, r3, cr1, cr0, {0}
   19e1c:	e8bd8010 	pop	{r4, pc}
   19e20:	0001d874 	.word	0x0001d874
   19e24:	0001b4d8 	.word	0x0001b4d8
   19e28:	0001d880 	.word	0x0001d880
   19e2c:	0001d894 	.word	0x0001d894
   19e30:	0001d8c0 	.word	0x0001d8c0
   19e34:	0001d8e4 	.word	0x0001d8e4
   19e38:	00801807 	.word	0x00801807

00019e3c <MemorySystem>:
   19e3c:	e92d4030 	push	{r4, r5, lr}
   19e40:	e24dd024 	sub	sp, sp, #36	; 0x24
   19e44:	e1a05001 	mov	r5, r1
   19e48:	e2504000 	subs	r4, r0, #0
   19e4c:	1a000003 	bne	19e60 <MemorySystem+0x24>
   19e50:	e3a02031 	mov	r2, #49	; 0x31
   19e54:	e59f10f8 	ldr	r1, [pc, #248]	; 19f54 <MemorySystem+0x118>
   19e58:	e59f00f8 	ldr	r0, [pc, #248]	; 19f58 <MemorySystem+0x11c>
   19e5c:	ebfff74c 	bl	17b94 <assertion_failed>
   19e60:	e5845000 	str	r5, [r4]
   19e64:	e3a05000 	mov	r5, #0
   19e68:	e5845004 	str	r5, [r4, #4]
   19e6c:	e5845008 	str	r5, [r4, #8]
   19e70:	e584500c 	str	r5, [r4, #12]
   19e74:	e28d001c 	add	r0, sp, #28
   19e78:	eb00024d 	bl	1a7b4 <BcmPropertyTags>
   19e7c:	e58d5000 	str	r5, [sp]
   19e80:	e3a03014 	mov	r3, #20
   19e84:	e28d2008 	add	r2, sp, #8
   19e88:	e59f10cc 	ldr	r1, [pc, #204]	; 19f5c <MemorySystem+0x120>
   19e8c:	e28d001c 	add	r0, sp, #28
   19e90:	eb000260 	bl	1a818 <BcmPropertyTagsGetTag>
   19e94:	e1500005 	cmp	r0, r5
   19e98:	058d5014 	streq	r5, [sp, #20]
   19e9c:	03a03303 	moveq	r3, #201326592	; 0xc000000
   19ea0:	058d3018 	streq	r3, [sp, #24]
   19ea4:	0a000006 	beq	19ec4 <MemorySystem+0x88>
   19ea8:	e59d3014 	ldr	r3, [sp, #20]
   19eac:	e3530000 	cmp	r3, #0
   19eb0:	0a000003 	beq	19ec4 <MemorySystem+0x88>
   19eb4:	e3a02041 	mov	r2, #65	; 0x41
   19eb8:	e59f1094 	ldr	r1, [pc, #148]	; 19f54 <MemorySystem+0x118>
   19ebc:	e59f009c 	ldr	r0, [pc, #156]	; 19f60 <MemorySystem+0x124>
   19ec0:	ebfff733 	bl	17b94 <assertion_failed>
   19ec4:	e59d1018 	ldr	r1, [sp, #24]
   19ec8:	e5841004 	str	r1, [r4, #4]
   19ecc:	e59d0014 	ldr	r0, [sp, #20]
   19ed0:	ebfff62b 	bl	17784 <mem_init>
   19ed4:	e5943000 	ldr	r3, [r4]
   19ed8:	e3530000 	cmp	r3, #0
   19edc:	0a000018 	beq	19f44 <MemorySystem+0x108>
   19ee0:	e3a00008 	mov	r0, #8
   19ee4:	ebfff641 	bl	177f0 <malloc>
   19ee8:	e5840008 	str	r0, [r4, #8]
   19eec:	e3500000 	cmp	r0, #0
   19ef0:	1a000003 	bne	19f04 <MemorySystem+0xc8>
   19ef4:	e3a02049 	mov	r2, #73	; 0x49
   19ef8:	e59f1054 	ldr	r1, [pc, #84]	; 19f54 <MemorySystem+0x118>
   19efc:	e59f0060 	ldr	r0, [pc, #96]	; 19f64 <MemorySystem+0x128>
   19f00:	ebfff723 	bl	17b94 <assertion_failed>
   19f04:	e5941004 	ldr	r1, [r4, #4]
   19f08:	e5940008 	ldr	r0, [r4, #8]
   19f0c:	eb00003e 	bl	1a00c <PageTable2>
   19f10:	e3a00008 	mov	r0, #8
   19f14:	ebfff635 	bl	177f0 <malloc>
   19f18:	e584000c 	str	r0, [r4, #12]
   19f1c:	e3500000 	cmp	r0, #0
   19f20:	1a000003 	bne	19f34 <MemorySystem+0xf8>
   19f24:	e3a0204d 	mov	r2, #77	; 0x4d
   19f28:	e59f1024 	ldr	r1, [pc, #36]	; 19f54 <MemorySystem+0x118>
   19f2c:	e59f0034 	ldr	r0, [pc, #52]	; 19f68 <MemorySystem+0x12c>
   19f30:	ebfff717 	bl	17b94 <assertion_failed>
   19f34:	e594000c 	ldr	r0, [r4, #12]
   19f38:	eb00000b 	bl	19f6c <PageTable>
   19f3c:	e1a00004 	mov	r0, r4
   19f40:	ebffff7d 	bl	19d3c <MemorySystemEnableMMU>
   19f44:	e28d001c 	add	r0, sp, #28
   19f48:	eb000226 	bl	1a7e8 <_BcmPropertyTags>
   19f4c:	e28dd024 	add	sp, sp, #36	; 0x24
   19f50:	e8bd8030 	pop	{r4, r5, pc}
   19f54:	0001d874 	.word	0x0001d874
   19f58:	0001b4d8 	.word	0x0001b4d8
   19f5c:	00010005 	.word	0x00010005
   19f60:	0001d900 	.word	0x0001d900
   19f64:	0001d8c0 	.word	0x0001d8c0
   19f68:	0001d8e4 	.word	0x0001d8e4

00019f6c <PageTable>:
   19f6c:	e92d4070 	push	{r4, r5, r6, lr}
   19f70:	e2504000 	subs	r4, r0, #0
   19f74:	1a000003 	bne	19f88 <PageTable+0x1c>
   19f78:	e3a02029 	mov	r2, #41	; 0x29
   19f7c:	e59f107c 	ldr	r1, [pc, #124]	; 1a000 <PageTable+0x94>
   19f80:	e59f007c 	ldr	r0, [pc, #124]	; 1a004 <PageTable+0x98>
   19f84:	ebfff702 	bl	17b94 <assertion_failed>
   19f88:	e3a03000 	mov	r3, #0
   19f8c:	e5843000 	str	r3, [r4]
   19f90:	e3a0298e 	mov	r2, #2326528	; 0x238000
   19f94:	e5842004 	str	r2, [r4, #4]
   19f98:	e59f5068 	ldr	r5, [pc, #104]	; 1a008 <PageTable+0x9c>
   19f9c:	e5941004 	ldr	r1, [r4, #4]
   19fa0:	e0810103 	add	r0, r1, r3, lsl #2
   19fa4:	e3a02006 	mov	r2, #6
   19fa8:	e7c12103 	strb	r2, [r1, r3, lsl #2]
   19fac:	e3a02004 	mov	r2, #4
   19fb0:	e5c02001 	strb	r2, [r0, #1]
   19fb4:	e1a02a03 	lsl	r2, r3, #20
   19fb8:	e1a02a22 	lsr	r2, r2, #20
   19fbc:	e202e00f 	and	lr, r2, #15
   19fc0:	e3a0c001 	mov	ip, #1
   19fc4:	e18cc20e 	orr	ip, ip, lr, lsl #4
   19fc8:	e5c0c002 	strb	ip, [r0, #2]
   19fcc:	e1a02222 	lsr	r2, r2, #4
   19fd0:	e5c02003 	strb	r2, [r0, #3]
   19fd4:	e1530005 	cmp	r3, r5
   19fd8:	87d12103 	ldrbhi	r2, [r1, r3, lsl #2]
   19fdc:	83822010 	orrhi	r2, r2, #16
   19fe0:	87c12103 	strbhi	r2, [r1, r3, lsl #2]
   19fe4:	e2833001 	add	r3, r3, #1
   19fe8:	e3530a01 	cmp	r3, #4096	; 0x1000
   19fec:	1affffea 	bne	19f9c <PageTable+0x30>
   19ff0:	e3a03000 	mov	r3, #0
   19ff4:	ee073f1a 	mcr	15, 0, r3, cr7, cr10, {0}
   19ff8:	ee073f9a 	mcr	15, 0, r3, cr7, cr10, {4}
   19ffc:	e8bd8070 	pop	{r4, r5, r6, pc}
   1a000:	0001d91c 	.word	0x0001d91c
   1a004:	0001b4d8 	.word	0x0001b4d8
   1a008:	000001ff 	.word	0x000001ff

0001a00c <PageTable2>:
   1a00c:	e92d4070 	push	{r4, r5, r6, lr}
   1a010:	e1a05001 	mov	r5, r1
   1a014:	e2504000 	subs	r4, r0, #0
   1a018:	1a000003 	bne	1a02c <PageTable2+0x20>
   1a01c:	e3a02052 	mov	r2, #82	; 0x52
   1a020:	e59f10d4 	ldr	r1, [pc, #212]	; 1a0fc <PageTable2+0xf0>
   1a024:	e59f00d4 	ldr	r0, [pc, #212]	; 1a100 <PageTable2+0xf4>
   1a028:	ebfff6d9 	bl	17b94 <assertion_failed>
   1a02c:	e3a03001 	mov	r3, #1
   1a030:	e5843000 	str	r3, [r4]
   1a034:	ebfff694 	bl	17a8c <palloc>
   1a038:	e5840004 	str	r0, [r4, #4]
   1a03c:	e3500000 	cmp	r0, #0
   1a040:	1a000003 	bne	1a054 <PageTable2+0x48>
   1a044:	e3a02057 	mov	r2, #87	; 0x57
   1a048:	e59f10ac 	ldr	r1, [pc, #172]	; 1a0fc <PageTable2+0xf0>
   1a04c:	e59f00b0 	ldr	r0, [pc, #176]	; 1a104 <PageTable2+0xf8>
   1a050:	ebfff6cf 	bl	17b94 <assertion_failed>
   1a054:	e5943004 	ldr	r3, [r4, #4]
   1a058:	e1b03a03 	lsls	r3, r3, #20
   1a05c:	0a000003 	beq	1a070 <PageTable2+0x64>
   1a060:	e3a02058 	mov	r2, #88	; 0x58
   1a064:	e59f1090 	ldr	r1, [pc, #144]	; 1a0fc <PageTable2+0xf0>
   1a068:	e59f0098 	ldr	r0, [pc, #152]	; 1a108 <PageTable2+0xfc>
   1a06c:	ebfff6c8 	bl	17b94 <assertion_failed>
   1a070:	e3a00000 	mov	r0, #0
   1a074:	e1a03000 	mov	r3, r0
   1a078:	e59f608c 	ldr	r6, [pc, #140]	; 1a10c <PageTable2+0x100>
   1a07c:	e594c004 	ldr	ip, [r4, #4]
   1a080:	e08c1003 	add	r1, ip, r3
   1a084:	e3a0200e 	mov	r2, #14
   1a088:	e7cc2003 	strb	r2, [ip, r3]
   1a08c:	e3a02004 	mov	r2, #4
   1a090:	e5c12001 	strb	r2, [r1, #1]
   1a094:	e1a02a20 	lsr	r2, r0, #20
   1a098:	e1a0e202 	lsl	lr, r2, #4
   1a09c:	e5c1e002 	strb	lr, [r1, #2]
   1a0a0:	e1a02222 	lsr	r2, r2, #4
   1a0a4:	e5c12003 	strb	r2, [r1, #3]
   1a0a8:	e1500006 	cmp	r0, r6
   1a0ac:	3a00000a 	bcc	1a0dc <PageTable2+0xd0>
   1a0b0:	e7dc2003 	ldrb	r2, [ip, r3]
   1a0b4:	e3822010 	orr	r2, r2, #16
   1a0b8:	e7cc2003 	strb	r2, [ip, r3]
   1a0bc:	e1500005 	cmp	r0, r5
   1a0c0:	3a000005 	bcc	1a0dc <PageTable2+0xd0>
   1a0c4:	e6ef2072 	uxtb	r2, r2
   1a0c8:	e3c22008 	bic	r2, r2, #8
   1a0cc:	e5c12000 	strb	r2, [r1]
   1a0d0:	e5d12002 	ldrb	r2, [r1, #2]
   1a0d4:	e3822001 	orr	r2, r2, #1
   1a0d8:	e5c12002 	strb	r2, [r1, #2]
   1a0dc:	e2833004 	add	r3, r3, #4
   1a0e0:	e2800601 	add	r0, r0, #1048576	; 0x100000
   1a0e4:	e3530b02 	cmp	r3, #2048	; 0x800
   1a0e8:	1affffe3 	bne	1a07c <PageTable2+0x70>
   1a0ec:	e3a03000 	mov	r3, #0
   1a0f0:	ee073f1a 	mcr	15, 0, r3, cr7, cr10, {0}
   1a0f4:	ee073f9a 	mcr	15, 0, r3, cr7, cr10, {4}
   1a0f8:	e8bd8070 	pop	{r4, r5, r6, pc}
   1a0fc:	0001d91c 	.word	0x0001d91c
   1a100:	0001b4d8 	.word	0x0001b4d8
   1a104:	0001d928 	.word	0x0001d928
   1a108:	0001d940 	.word	0x0001d940
   1a10c:	0001b384 	.word	0x0001b384

0001a110 <_PageTable>:
   1a110:	e92d4010 	push	{r4, lr}
   1a114:	e2504000 	subs	r4, r0, #0
   1a118:	1a000003 	bne	1a12c <_PageTable+0x1c>
   1a11c:	e3a02090 	mov	r2, #144	; 0x90
   1a120:	e59f1024 	ldr	r1, [pc, #36]	; 1a14c <_PageTable+0x3c>
   1a124:	e59f0024 	ldr	r0, [pc, #36]	; 1a150 <_PageTable+0x40>
   1a128:	ebfff699 	bl	17b94 <assertion_failed>
   1a12c:	e5943000 	ldr	r3, [r4]
   1a130:	e3530000 	cmp	r3, #0
   1a134:	08bd8010 	popeq	{r4, pc}
   1a138:	e5940004 	ldr	r0, [r4, #4]
   1a13c:	ebfff680 	bl	17b44 <pfree>
   1a140:	e3a03000 	mov	r3, #0
   1a144:	e5843004 	str	r3, [r4, #4]
   1a148:	e8bd8010 	pop	{r4, pc}
   1a14c:	0001d91c 	.word	0x0001d91c
   1a150:	0001b4d8 	.word	0x0001b4d8

0001a154 <PageTableGetBaseAddress>:
   1a154:	e92d4010 	push	{r4, lr}
   1a158:	e2504000 	subs	r4, r0, #0
   1a15c:	1a000003 	bne	1a170 <PageTableGetBaseAddress+0x1c>
   1a160:	e3a0209b 	mov	r2, #155	; 0x9b
   1a164:	e59f1010 	ldr	r1, [pc, #16]	; 1a17c <PageTableGetBaseAddress+0x28>
   1a168:	e59f0010 	ldr	r0, [pc, #16]	; 1a180 <PageTableGetBaseAddress+0x2c>
   1a16c:	ebfff688 	bl	17b94 <assertion_failed>
   1a170:	e5940004 	ldr	r0, [r4, #4]
   1a174:	e3800001 	orr	r0, r0, #1
   1a178:	e8bd8010 	pop	{r4, pc}
   1a17c:	0001d91c 	.word	0x0001d91c
   1a180:	0001b4d8 	.word	0x0001b4d8

0001a184 <ExceptionHandler2>:
   1a184:	e92d4010 	push	{r4, lr}
   1a188:	e2504000 	subs	r4, r0, #0
   1a18c:	1a000003 	bne	1a1a0 <ExceptionHandler2+0x1c>
   1a190:	e3a02029 	mov	r2, #41	; 0x29
   1a194:	e59f1088 	ldr	r1, [pc, #136]	; 1a224 <ExceptionHandler2+0xa0>
   1a198:	e59f0088 	ldr	r0, [pc, #136]	; 1a228 <ExceptionHandler2+0xa4>
   1a19c:	ebfff67c 	bl	17b94 <assertion_failed>
   1a1a0:	e59f3084 	ldr	r3, [pc, #132]	; 1a22c <ExceptionHandler2+0xa8>
   1a1a4:	e5933000 	ldr	r3, [r3]
   1a1a8:	e3530000 	cmp	r3, #0
   1a1ac:	0a000003 	beq	1a1c0 <ExceptionHandler2+0x3c>
   1a1b0:	e3a0202b 	mov	r2, #43	; 0x2b
   1a1b4:	e59f1068 	ldr	r1, [pc, #104]	; 1a224 <ExceptionHandler2+0xa0>
   1a1b8:	e59f0070 	ldr	r0, [pc, #112]	; 1a230 <ExceptionHandler2+0xac>
   1a1bc:	ebfff674 	bl	17b94 <assertion_failed>
   1a1c0:	e59f3064 	ldr	r3, [pc, #100]	; 1a22c <ExceptionHandler2+0xa8>
   1a1c4:	e5834000 	str	r4, [r3]
   1a1c8:	e3a03000 	mov	r3, #0
   1a1cc:	e59f2060 	ldr	r2, [pc, #96]	; 1a234 <ExceptionHandler2+0xb0>
   1a1d0:	e1a02142 	asr	r2, r2, #2
   1a1d4:	e2422002 	sub	r2, r2, #2
   1a1d8:	e38224ea 	orr	r2, r2, #-369098752	; 0xea000000
   1a1dc:	e5832004 	str	r2, [r3, #4]
   1a1e0:	e59f2050 	ldr	r2, [pc, #80]	; 1a238 <ExceptionHandler2+0xb4>
   1a1e4:	e1a02142 	asr	r2, r2, #2
   1a1e8:	e2422002 	sub	r2, r2, #2
   1a1ec:	e38224ea 	orr	r2, r2, #-369098752	; 0xea000000
   1a1f0:	e583200c 	str	r2, [r3, #12]
   1a1f4:	e59f2040 	ldr	r2, [pc, #64]	; 1a23c <ExceptionHandler2+0xb8>
   1a1f8:	e1a02142 	asr	r2, r2, #2
   1a1fc:	e2422002 	sub	r2, r2, #2
   1a200:	e38224ea 	orr	r2, r2, #-369098752	; 0xea000000
   1a204:	e5832010 	str	r2, [r3, #16]
   1a208:	ee073f1a 	mcr	15, 0, r3, cr7, cr10, {0}
   1a20c:	ee073f9a 	mcr	15, 0, r3, cr7, cr10, {4}
   1a210:	ee073f15 	mcr	15, 0, r3, cr7, cr5, {0}
   1a214:	ee073fd5 	mcr	15, 0, r3, cr7, cr5, {6}
   1a218:	ee073f9a 	mcr	15, 0, r3, cr7, cr10, {4}
   1a21c:	ee073f95 	mcr	15, 0, r3, cr7, cr5, {4}
   1a220:	e8bd8010 	pop	{r4, pc}
   1a224:	0001d980 	.word	0x0001d980
   1a228:	0001b4d8 	.word	0x0001b4d8
   1a22c:	00008d50 	.word	0x00008d50
   1a230:	0001c200 	.word	0x0001c200
   1a234:	0001ab00 	.word	0x0001ab00
   1a238:	0001ab3c 	.word	0x0001ab3c
   1a23c:	0001ab7c 	.word	0x0001ab7c

0001a240 <_ExceptionHandler>:
   1a240:	e3500000 	cmp	r0, #0
   1a244:	1a000008 	bne	1a26c <_ExceptionHandler+0x2c>
   1a248:	e92d4010 	push	{r4, lr}
   1a24c:	e3a02044 	mov	r2, #68	; 0x44
   1a250:	e59f1024 	ldr	r1, [pc, #36]	; 1a27c <_ExceptionHandler+0x3c>
   1a254:	e59f0024 	ldr	r0, [pc, #36]	; 1a280 <_ExceptionHandler+0x40>
   1a258:	ebfff64d 	bl	17b94 <assertion_failed>
   1a25c:	e3a02000 	mov	r2, #0
   1a260:	e59f301c 	ldr	r3, [pc, #28]	; 1a284 <_ExceptionHandler+0x44>
   1a264:	e5832000 	str	r2, [r3]
   1a268:	e8bd8010 	pop	{r4, pc}
   1a26c:	e3a02000 	mov	r2, #0
   1a270:	e59f300c 	ldr	r3, [pc, #12]	; 1a284 <_ExceptionHandler+0x44>
   1a274:	e5832000 	str	r2, [r3]
   1a278:	e12fff1e 	bx	lr
   1a27c:	0001d980 	.word	0x0001d980
   1a280:	0001b4d8 	.word	0x0001b4d8
   1a284:	00008d50 	.word	0x00008d50

0001a288 <ExceptionHandlerThrow>:
   1a288:	e92d4010 	push	{r4, lr}
   1a28c:	e24dd008 	sub	sp, sp, #8
   1a290:	e1a04001 	mov	r4, r1
   1a294:	e3500000 	cmp	r0, #0
   1a298:	1a000003 	bne	1a2ac <ExceptionHandlerThrow+0x24>
   1a29c:	e3a0204b 	mov	r2, #75	; 0x4b
   1a2a0:	e59f102c 	ldr	r1, [pc, #44]	; 1a2d4 <ExceptionHandlerThrow+0x4c>
   1a2a4:	e59f002c 	ldr	r0, [pc, #44]	; 1a2d8 <ExceptionHandlerThrow+0x50>
   1a2a8:	ebfff639 	bl	17b94 <assertion_failed>
   1a2ac:	ebfff6db 	bl	17e20 <LoggerGet>
   1a2b0:	e59f1024 	ldr	r1, [pc, #36]	; 1a2dc <ExceptionHandlerThrow+0x54>
   1a2b4:	e0814104 	add	r4, r1, r4, lsl #2
   1a2b8:	e5943008 	ldr	r3, [r4, #8]
   1a2bc:	e58d3000 	str	r3, [sp]
   1a2c0:	e59f3018 	ldr	r3, [pc, #24]	; 1a2e0 <ExceptionHandlerThrow+0x58>
   1a2c4:	e3a02000 	mov	r2, #0
   1a2c8:	ebfff77a 	bl	180b8 <LoggerWrite>
   1a2cc:	e28dd008 	add	sp, sp, #8
   1a2d0:	e8bd8010 	pop	{r4, pc}
   1a2d4:	0001d980 	.word	0x0001d980
   1a2d8:	0001b4d8 	.word	0x0001b4d8
   1a2dc:	0001d968 	.word	0x0001d968
   1a2e0:	0001d994 	.word	0x0001d994

0001a2e4 <ExceptionHandlerThrow2>:
   1a2e4:	e92d47f0 	push	{r4, r5, r6, r7, r8, r9, sl, lr}
   1a2e8:	e24dd020 	sub	sp, sp, #32
   1a2ec:	e1a05001 	mov	r5, r1
   1a2f0:	e1a04002 	mov	r4, r2
   1a2f4:	e3500000 	cmp	r0, #0
   1a2f8:	1a000003 	bne	1a30c <ExceptionHandlerThrow2+0x28>
   1a2fc:	e3a02052 	mov	r2, #82	; 0x52
   1a300:	e59f10c4 	ldr	r1, [pc, #196]	; 1a3cc <ExceptionHandlerThrow2+0xe8>
   1a304:	e59f00c4 	ldr	r0, [pc, #196]	; 1a3d0 <ExceptionHandlerThrow2+0xec>
   1a308:	ebfff621 	bl	17b94 <assertion_failed>
   1a30c:	e3550002 	cmp	r5, #2
   1a310:	0a000002 	beq	1a320 <ExceptionHandlerThrow2+0x3c>
   1a314:	e3550003 	cmp	r5, #3
   1a318:	0a000003 	beq	1a32c <ExceptionHandlerThrow2+0x48>
   1a31c:	ea000005 	b	1a338 <ExceptionHandlerThrow2+0x54>
   1a320:	ee15af30 	mrc	15, 0, sl, cr5, cr0, {1}
   1a324:	ee169f50 	mrc	15, 0, r9, cr6, cr0, {2}
   1a328:	ea000004 	b	1a340 <ExceptionHandlerThrow2+0x5c>
   1a32c:	ee15af10 	mrc	15, 0, sl, cr5, cr0, {0}
   1a330:	ee169f10 	mrc	15, 0, r9, cr6, cr0, {0}
   1a334:	ea000001 	b	1a340 <ExceptionHandlerThrow2+0x5c>
   1a338:	e3a09000 	mov	r9, #0
   1a33c:	e1a0a009 	mov	sl, r9
   1a340:	e3540000 	cmp	r4, #0
   1a344:	1a000003 	bne	1a358 <ExceptionHandlerThrow2+0x74>
   1a348:	e3a02065 	mov	r2, #101	; 0x65
   1a34c:	e59f1078 	ldr	r1, [pc, #120]	; 1a3cc <ExceptionHandlerThrow2+0xe8>
   1a350:	e59f007c 	ldr	r0, [pc, #124]	; 1a3d4 <ExceptionHandlerThrow2+0xf0>
   1a354:	ebfff60e 	bl	17b94 <assertion_failed>
   1a358:	e5948040 	ldr	r8, [r4, #64]	; 0x40
   1a35c:	e594703c 	ldr	r7, [r4, #60]	; 0x3c
   1a360:	e5943044 	ldr	r3, [r4, #68]	; 0x44
   1a364:	e203301f 	and	r3, r3, #31
   1a368:	e3530012 	cmp	r3, #18
   1a36c:	05948004 	ldreq	r8, [r4, #4]
   1a370:	05947000 	ldreq	r7, [r4]
   1a374:	e59f605c 	ldr	r6, [pc, #92]	; 1a3d8 <ExceptionHandlerThrow2+0xf4>
   1a378:	e1a01006 	mov	r1, r6
   1a37c:	e1a00007 	mov	r0, r7
   1a380:	ebfff669 	bl	17d2c <debug_stacktrace>
   1a384:	ebfff6a5 	bl	17e20 <LoggerGet>
   1a388:	e5943044 	ldr	r3, [r4, #68]	; 0x44
   1a38c:	e58d3018 	str	r3, [sp, #24]
   1a390:	e58d8014 	str	r8, [sp, #20]
   1a394:	e58d7010 	str	r7, [sp, #16]
   1a398:	e58d900c 	str	r9, [sp, #12]
   1a39c:	e58da008 	str	sl, [sp, #8]
   1a3a0:	e5943048 	ldr	r3, [r4, #72]	; 0x48
   1a3a4:	e58d3004 	str	r3, [sp, #4]
   1a3a8:	e0865105 	add	r5, r6, r5, lsl #2
   1a3ac:	e5953008 	ldr	r3, [r5, #8]
   1a3b0:	e58d3000 	str	r3, [sp]
   1a3b4:	e59f3020 	ldr	r3, [pc, #32]	; 1a3dc <ExceptionHandlerThrow2+0xf8>
   1a3b8:	e3a02000 	mov	r2, #0
   1a3bc:	e1a01006 	mov	r1, r6
   1a3c0:	ebfff73c 	bl	180b8 <LoggerWrite>
   1a3c4:	e28dd020 	add	sp, sp, #32
   1a3c8:	e8bd87f0 	pop	{r4, r5, r6, r7, r8, r9, sl, pc}
   1a3cc:	0001d980 	.word	0x0001d980
   1a3d0:	0001b4d8 	.word	0x0001b4d8
   1a3d4:	0001d9a4 	.word	0x0001d9a4
   1a3d8:	0001d968 	.word	0x0001d968
   1a3dc:	0001d9b0 	.word	0x0001d9b0

0001a3e0 <ExceptionHandlerGet>:
   1a3e0:	e59f3034 	ldr	r3, [pc, #52]	; 1a41c <ExceptionHandlerGet+0x3c>
   1a3e4:	e5933000 	ldr	r3, [r3]
   1a3e8:	e3530000 	cmp	r3, #0
   1a3ec:	1a000007 	bne	1a410 <ExceptionHandlerGet+0x30>
   1a3f0:	e92d4010 	push	{r4, lr}
   1a3f4:	e3a0207c 	mov	r2, #124	; 0x7c
   1a3f8:	e59f1020 	ldr	r1, [pc, #32]	; 1a420 <ExceptionHandlerGet+0x40>
   1a3fc:	e59f0020 	ldr	r0, [pc, #32]	; 1a424 <ExceptionHandlerGet+0x44>
   1a400:	ebfff5e3 	bl	17b94 <assertion_failed>
   1a404:	e59f3010 	ldr	r3, [pc, #16]	; 1a41c <ExceptionHandlerGet+0x3c>
   1a408:	e5930000 	ldr	r0, [r3]
   1a40c:	e8bd8010 	pop	{r4, pc}
   1a410:	e59f3004 	ldr	r3, [pc, #4]	; 1a41c <ExceptionHandlerGet+0x3c>
   1a414:	e5930000 	ldr	r0, [r3]
   1a418:	e12fff1e 	bx	lr
   1a41c:	00008d50 	.word	0x00008d50
   1a420:	0001d980 	.word	0x0001d980
   1a424:	0001c254 	.word	0x0001c254

0001a428 <ExceptionHandler>:
   1a428:	e92d4070 	push	{r4, r5, r6, lr}
   1a42c:	e1a04000 	mov	r4, r0
   1a430:	e1a05001 	mov	r5, r1
   1a434:	e3a03000 	mov	r3, #0
   1a438:	ee073fba 	mcr	15, 0, r3, cr7, cr10, {5}
   1a43c:	ebffffe7 	bl	1a3e0 <ExceptionHandlerGet>
   1a440:	e1a02005 	mov	r2, r5
   1a444:	e1a01004 	mov	r1, r4
   1a448:	ebffffa5 	bl	1a2e4 <ExceptionHandlerThrow2>
   1a44c:	e8bd8070 	pop	{r4, r5, r6, pc}

0001a450 <BcmFrameBuffer>:
   1a450:	e92d40f0 	push	{r4, r5, r6, r7, lr}
   1a454:	e24dd024 	sub	sp, sp, #36	; 0x24
   1a458:	e1a05001 	mov	r5, r1
   1a45c:	e1a06002 	mov	r6, r2
   1a460:	e1a07003 	mov	r7, r3
   1a464:	e2504000 	subs	r4, r0, #0
   1a468:	1a000003 	bne	1a47c <BcmFrameBuffer+0x2c>
   1a46c:	e3a0201e 	mov	r2, #30
   1a470:	e59f111c 	ldr	r1, [pc, #284]	; 1a594 <BcmFrameBuffer+0x144>
   1a474:	e59f011c 	ldr	r0, [pc, #284]	; 1a598 <BcmFrameBuffer+0x148>
   1a478:	ebfff5c5 	bl	17b94 <assertion_failed>
   1a47c:	e3a01001 	mov	r1, #1
   1a480:	e2840004 	add	r0, r4, #4
   1a484:	eb000345 	bl	1b1a0 <BcmMailBox>
   1a488:	e3560000 	cmp	r6, #0
   1a48c:	13550000 	cmpne	r5, #0
   1a490:	1a00001b 	bne	1a504 <BcmFrameBuffer+0xb4>
   1a494:	e28d0008 	add	r0, sp, #8
   1a498:	eb0000c5 	bl	1a7b4 <BcmPropertyTags>
   1a49c:	e3a03000 	mov	r3, #0
   1a4a0:	e58d3000 	str	r3, [sp]
   1a4a4:	e3a03014 	mov	r3, #20
   1a4a8:	e28d200c 	add	r2, sp, #12
   1a4ac:	e59f10e8 	ldr	r1, [pc, #232]	; 1a59c <BcmFrameBuffer+0x14c>
   1a4b0:	e28d0008 	add	r0, sp, #8
   1a4b4:	eb0000d7 	bl	1a818 <BcmPropertyTagsGetTag>
   1a4b8:	e3500000 	cmp	r0, #0
   1a4bc:	03a06e1e 	moveq	r6, #480	; 0x1e0
   1a4c0:	03a05d0a 	moveq	r5, #640	; 0x280
   1a4c4:	0a00000c 	beq	1a4fc <BcmFrameBuffer+0xac>
   1a4c8:	e59d5018 	ldr	r5, [sp, #24]
   1a4cc:	e59d601c 	ldr	r6, [sp, #28]
   1a4d0:	e2453d0a 	sub	r3, r5, #640	; 0x280
   1a4d4:	e3530c05 	cmp	r3, #1280	; 0x500
   1a4d8:	83a06e1e 	movhi	r6, #480	; 0x1e0
   1a4dc:	83a05d0a 	movhi	r5, #640	; 0x280
   1a4e0:	8a000005 	bhi	1a4fc <BcmFrameBuffer+0xac>
   1a4e4:	e2463e1e 	sub	r3, r6, #480	; 0x1e0
   1a4e8:	e3530f96 	cmp	r3, #600	; 0x258
   1a4ec:	83a06e1e 	movhi	r6, #480	; 0x1e0
   1a4f0:	e3530f96 	cmp	r3, #600	; 0x258
   1a4f4:	83a05d0a 	movhi	r5, #640	; 0x280
   1a4f8:	eaffffff 	b	1a4fc <BcmFrameBuffer+0xac>
   1a4fc:	e28d0008 	add	r0, sp, #8
   1a500:	eb0000b8 	bl	1a7e8 <_BcmPropertyTags>
   1a504:	e3570008 	cmp	r7, #8
   1a508:	1a000007 	bne	1a52c <BcmFrameBuffer+0xdc>
   1a50c:	e3a00f8a 	mov	r0, #552	; 0x228
   1a510:	ebfff4b6 	bl	177f0 <malloc>
   1a514:	e5840000 	str	r0, [r4]
   1a518:	e3a02c02 	mov	r2, #512	; 0x200
   1a51c:	e3a01000 	mov	r1, #0
   1a520:	e2800028 	add	r0, r0, #40	; 0x28
   1a524:	ebfffd30 	bl	199ec <memset>
   1a528:	ea000002 	b	1a538 <BcmFrameBuffer+0xe8>
   1a52c:	e3a00028 	mov	r0, #40	; 0x28
   1a530:	ebfff4ae 	bl	177f0 <malloc>
   1a534:	e5840000 	str	r0, [r4]
   1a538:	e5943000 	ldr	r3, [r4]
   1a53c:	e5835000 	str	r5, [r3]
   1a540:	e5943000 	ldr	r3, [r4]
   1a544:	e5836004 	str	r6, [r3, #4]
   1a548:	e5943000 	ldr	r3, [r4]
   1a54c:	e5835008 	str	r5, [r3, #8]
   1a550:	e5943000 	ldr	r3, [r4]
   1a554:	e583600c 	str	r6, [r3, #12]
   1a558:	e5942000 	ldr	r2, [r4]
   1a55c:	e3a03000 	mov	r3, #0
   1a560:	e5823010 	str	r3, [r2, #16]
   1a564:	e5942000 	ldr	r2, [r4]
   1a568:	e5827014 	str	r7, [r2, #20]
   1a56c:	e5942000 	ldr	r2, [r4]
   1a570:	e5823018 	str	r3, [r2, #24]
   1a574:	e5942000 	ldr	r2, [r4]
   1a578:	e582301c 	str	r3, [r2, #28]
   1a57c:	e5942000 	ldr	r2, [r4]
   1a580:	e5823020 	str	r3, [r2, #32]
   1a584:	e5942000 	ldr	r2, [r4]
   1a588:	e5823024 	str	r3, [r2, #36]	; 0x24
   1a58c:	e28dd024 	add	sp, sp, #36	; 0x24
   1a590:	e8bd80f0 	pop	{r4, r5, r6, r7, pc}
   1a594:	0001da38 	.word	0x0001da38
   1a598:	0001b4d8 	.word	0x0001b4d8
   1a59c:	00040003 	.word	0x00040003

0001a5a0 <_BcmFrameBuffer>:
   1a5a0:	e92d4010 	push	{r4, lr}
   1a5a4:	e2504000 	subs	r4, r0, #0
   1a5a8:	1a000003 	bne	1a5bc <_BcmFrameBuffer+0x1c>
   1a5ac:	e3a0205b 	mov	r2, #91	; 0x5b
   1a5b0:	e59f1020 	ldr	r1, [pc, #32]	; 1a5d8 <_BcmFrameBuffer+0x38>
   1a5b4:	e59f0020 	ldr	r0, [pc, #32]	; 1a5dc <_BcmFrameBuffer+0x3c>
   1a5b8:	ebfff575 	bl	17b94 <assertion_failed>
   1a5bc:	e5940000 	ldr	r0, [r4]
   1a5c0:	ebfff4f3 	bl	17994 <free>
   1a5c4:	e1a00004 	mov	r0, r4
   1a5c8:	e3a03000 	mov	r3, #0
   1a5cc:	e4803004 	str	r3, [r0], #4
   1a5d0:	eb0002fe 	bl	1b1d0 <_BcmMailBox>
   1a5d4:	e8bd8010 	pop	{r4, pc}
   1a5d8:	0001da38 	.word	0x0001da38
   1a5dc:	0001b4d8 	.word	0x0001b4d8

0001a5e0 <BcmFrameBufferSetPalette>:
   1a5e0:	e92d4070 	push	{r4, r5, r6, lr}
   1a5e4:	e1a04001 	mov	r4, r1
   1a5e8:	e1a06002 	mov	r6, r2
   1a5ec:	e2505000 	subs	r5, r0, #0
   1a5f0:	1a000003 	bne	1a604 <BcmFrameBufferSetPalette+0x24>
   1a5f4:	e3a02065 	mov	r2, #101	; 0x65
   1a5f8:	e59f1020 	ldr	r1, [pc, #32]	; 1a620 <BcmFrameBufferSetPalette+0x40>
   1a5fc:	e59f0020 	ldr	r0, [pc, #32]	; 1a624 <BcmFrameBufferSetPalette+0x44>
   1a600:	ebfff563 	bl	17b94 <assertion_failed>
   1a604:	e5953000 	ldr	r3, [r5]
   1a608:	e5932014 	ldr	r2, [r3, #20]
   1a60c:	e3520008 	cmp	r2, #8
   1a610:	02844014 	addeq	r4, r4, #20
   1a614:	01a04084 	lsleq	r4, r4, #1
   1a618:	018360b4 	strheq	r6, [r3, r4]
   1a61c:	e8bd8070 	pop	{r4, r5, r6, pc}
   1a620:	0001da38 	.word	0x0001da38
   1a624:	0001b4d8 	.word	0x0001b4d8

0001a628 <BcmFrameBufferInitialize>:
   1a628:	e92d4070 	push	{r4, r5, r6, lr}
   1a62c:	e2505000 	subs	r5, r0, #0
   1a630:	1a000003 	bne	1a644 <BcmFrameBufferInitialize+0x1c>
   1a634:	e3a0206f 	mov	r2, #111	; 0x6f
   1a638:	e59f1048 	ldr	r1, [pc, #72]	; 1a688 <BcmFrameBufferInitialize+0x60>
   1a63c:	e59f0048 	ldr	r0, [pc, #72]	; 1a68c <BcmFrameBufferInitialize+0x64>
   1a640:	ebfff553 	bl	17b94 <assertion_failed>
   1a644:	e3a04000 	mov	r4, #0
   1a648:	ee074f1a 	mcr	15, 0, r4, cr7, cr10, {0}
   1a64c:	ee074f9a 	mcr	15, 0, r4, cr7, cr10, {4}
   1a650:	e1a00005 	mov	r0, r5
   1a654:	e4901004 	ldr	r1, [r0], #4
   1a658:	e2811101 	add	r1, r1, #1073741824	; 0x40000000
   1a65c:	eb000333 	bl	1b330 <BcmMailBoxWriteRead>
   1a660:	ee074f16 	mcr	15, 0, r4, cr7, cr6, {0}
   1a664:	e1500004 	cmp	r0, r4
   1a668:	1a000004 	bne	1a680 <BcmFrameBufferInitialize+0x58>
   1a66c:	e5953000 	ldr	r3, [r5]
   1a670:	e5930020 	ldr	r0, [r3, #32]
   1a674:	e0500004 	subs	r0, r0, r4
   1a678:	13a00001 	movne	r0, #1
   1a67c:	e8bd8070 	pop	{r4, r5, r6, pc}
   1a680:	e3a00000 	mov	r0, #0
   1a684:	e8bd8070 	pop	{r4, r5, r6, pc}
   1a688:	0001da38 	.word	0x0001da38
   1a68c:	0001b4d8 	.word	0x0001b4d8

0001a690 <BcmFrameBufferGetWidth>:
   1a690:	e92d4010 	push	{r4, lr}
   1a694:	e2504000 	subs	r4, r0, #0
   1a698:	1a000003 	bne	1a6ac <BcmFrameBufferGetWidth+0x1c>
   1a69c:	e3a02085 	mov	r2, #133	; 0x85
   1a6a0:	e59f1010 	ldr	r1, [pc, #16]	; 1a6b8 <BcmFrameBufferGetWidth+0x28>
   1a6a4:	e59f0010 	ldr	r0, [pc, #16]	; 1a6bc <BcmFrameBufferGetWidth+0x2c>
   1a6a8:	ebfff539 	bl	17b94 <assertion_failed>
   1a6ac:	e5943000 	ldr	r3, [r4]
   1a6b0:	e5930000 	ldr	r0, [r3]
   1a6b4:	e8bd8010 	pop	{r4, pc}
   1a6b8:	0001da38 	.word	0x0001da38
   1a6bc:	0001b4d8 	.word	0x0001b4d8

0001a6c0 <BcmFrameBufferGetHeight>:
   1a6c0:	e92d4010 	push	{r4, lr}
   1a6c4:	e2504000 	subs	r4, r0, #0
   1a6c8:	1a000003 	bne	1a6dc <BcmFrameBufferGetHeight+0x1c>
   1a6cc:	e3a0208b 	mov	r2, #139	; 0x8b
   1a6d0:	e59f1010 	ldr	r1, [pc, #16]	; 1a6e8 <BcmFrameBufferGetHeight+0x28>
   1a6d4:	e59f0010 	ldr	r0, [pc, #16]	; 1a6ec <BcmFrameBufferGetHeight+0x2c>
   1a6d8:	ebfff52d 	bl	17b94 <assertion_failed>
   1a6dc:	e5943000 	ldr	r3, [r4]
   1a6e0:	e5930004 	ldr	r0, [r3, #4]
   1a6e4:	e8bd8010 	pop	{r4, pc}
   1a6e8:	0001da38 	.word	0x0001da38
   1a6ec:	0001b4d8 	.word	0x0001b4d8

0001a6f0 <BcmFrameBufferGetPitch>:
   1a6f0:	e92d4010 	push	{r4, lr}
   1a6f4:	e2504000 	subs	r4, r0, #0
   1a6f8:	1a000003 	bne	1a70c <BcmFrameBufferGetPitch+0x1c>
   1a6fc:	e3a02091 	mov	r2, #145	; 0x91
   1a700:	e59f1010 	ldr	r1, [pc, #16]	; 1a718 <BcmFrameBufferGetPitch+0x28>
   1a704:	e59f0010 	ldr	r0, [pc, #16]	; 1a71c <BcmFrameBufferGetPitch+0x2c>
   1a708:	ebfff521 	bl	17b94 <assertion_failed>
   1a70c:	e5943000 	ldr	r3, [r4]
   1a710:	e5930010 	ldr	r0, [r3, #16]
   1a714:	e8bd8010 	pop	{r4, pc}
   1a718:	0001da38 	.word	0x0001da38
   1a71c:	0001b4d8 	.word	0x0001b4d8

0001a720 <BcmFrameBufferGetDepth>:
   1a720:	e92d4010 	push	{r4, lr}
   1a724:	e2504000 	subs	r4, r0, #0
   1a728:	1a000003 	bne	1a73c <BcmFrameBufferGetDepth+0x1c>
   1a72c:	e3a02097 	mov	r2, #151	; 0x97
   1a730:	e59f1010 	ldr	r1, [pc, #16]	; 1a748 <BcmFrameBufferGetDepth+0x28>
   1a734:	e59f0010 	ldr	r0, [pc, #16]	; 1a74c <BcmFrameBufferGetDepth+0x2c>
   1a738:	ebfff515 	bl	17b94 <assertion_failed>
   1a73c:	e5943000 	ldr	r3, [r4]
   1a740:	e5930014 	ldr	r0, [r3, #20]
   1a744:	e8bd8010 	pop	{r4, pc}
   1a748:	0001da38 	.word	0x0001da38
   1a74c:	0001b4d8 	.word	0x0001b4d8

0001a750 <BcmFrameBufferGetBuffer>:
   1a750:	e92d4010 	push	{r4, lr}
   1a754:	e2504000 	subs	r4, r0, #0
   1a758:	1a000003 	bne	1a76c <BcmFrameBufferGetBuffer+0x1c>
   1a75c:	e3a0209d 	mov	r2, #157	; 0x9d
   1a760:	e59f1014 	ldr	r1, [pc, #20]	; 1a77c <BcmFrameBufferGetBuffer+0x2c>
   1a764:	e59f0014 	ldr	r0, [pc, #20]	; 1a780 <BcmFrameBufferGetBuffer+0x30>
   1a768:	ebfff509 	bl	17b94 <assertion_failed>
   1a76c:	e5943000 	ldr	r3, [r4]
   1a770:	e5930020 	ldr	r0, [r3, #32]
   1a774:	e3c00103 	bic	r0, r0, #-1073741824	; 0xc0000000
   1a778:	e8bd8010 	pop	{r4, pc}
   1a77c:	0001da38 	.word	0x0001da38
   1a780:	0001b4d8 	.word	0x0001b4d8

0001a784 <BcmFrameBufferGetSize>:
   1a784:	e92d4010 	push	{r4, lr}
   1a788:	e2504000 	subs	r4, r0, #0
   1a78c:	1a000003 	bne	1a7a0 <BcmFrameBufferGetSize+0x1c>
   1a790:	e3a020a3 	mov	r2, #163	; 0xa3
   1a794:	e59f1010 	ldr	r1, [pc, #16]	; 1a7ac <BcmFrameBufferGetSize+0x28>
   1a798:	e59f0010 	ldr	r0, [pc, #16]	; 1a7b0 <BcmFrameBufferGetSize+0x2c>
   1a79c:	ebfff4fc 	bl	17b94 <assertion_failed>
   1a7a0:	e5943000 	ldr	r3, [r4]
   1a7a4:	e5930024 	ldr	r0, [r3, #36]	; 0x24
   1a7a8:	e8bd8010 	pop	{r4, pc}
   1a7ac:	0001da38 	.word	0x0001da38
   1a7b0:	0001b4d8 	.word	0x0001b4d8

0001a7b4 <BcmPropertyTags>:
   1a7b4:	e92d4010 	push	{r4, lr}
   1a7b8:	e2504000 	subs	r4, r0, #0
   1a7bc:	1a000003 	bne	1a7d0 <BcmPropertyTags+0x1c>
   1a7c0:	e3a02029 	mov	r2, #41	; 0x29
   1a7c4:	e59f1014 	ldr	r1, [pc, #20]	; 1a7e0 <BcmPropertyTags+0x2c>
   1a7c8:	e59f0014 	ldr	r0, [pc, #20]	; 1a7e4 <BcmPropertyTags+0x30>
   1a7cc:	ebfff4f0 	bl	17b94 <assertion_failed>
   1a7d0:	e3a01008 	mov	r1, #8
   1a7d4:	e1a00004 	mov	r0, r4
   1a7d8:	eb000270 	bl	1b1a0 <BcmMailBox>
   1a7dc:	e8bd8010 	pop	{r4, pc}
   1a7e0:	0001da4c 	.word	0x0001da4c
   1a7e4:	0001b4d8 	.word	0x0001b4d8

0001a7e8 <_BcmPropertyTags>:
   1a7e8:	e92d4010 	push	{r4, lr}
   1a7ec:	e2504000 	subs	r4, r0, #0
   1a7f0:	1a000003 	bne	1a804 <_BcmPropertyTags+0x1c>
   1a7f4:	e3a02030 	mov	r2, #48	; 0x30
   1a7f8:	e59f1010 	ldr	r1, [pc, #16]	; 1a810 <_BcmPropertyTags+0x28>
   1a7fc:	e59f0010 	ldr	r0, [pc, #16]	; 1a814 <_BcmPropertyTags+0x2c>
   1a800:	ebfff4e3 	bl	17b94 <assertion_failed>
   1a804:	e1a00004 	mov	r0, r4
   1a808:	eb000270 	bl	1b1d0 <_BcmMailBox>
   1a80c:	e8bd8010 	pop	{r4, pc}
   1a810:	0001da4c 	.word	0x0001da4c
   1a814:	0001b4d8 	.word	0x0001b4d8

0001a818 <BcmPropertyTagsGetTag>:
   1a818:	e92d4ff8 	push	{r3, r4, r5, r6, r7, r8, r9, sl, fp, lr}
   1a81c:	e28db024 	add	fp, sp, #36	; 0x24
   1a820:	e1a0a001 	mov	sl, r1
   1a824:	e1a07002 	mov	r7, r2
   1a828:	e1a05003 	mov	r5, r3
   1a82c:	e2509000 	subs	r9, r0, #0
   1a830:	1a000003 	bne	1a844 <BcmPropertyTagsGetTag+0x2c>
   1a834:	e3a02038 	mov	r2, #56	; 0x38
   1a838:	e59f1124 	ldr	r1, [pc, #292]	; 1a964 <BcmPropertyTagsGetTag+0x14c>
   1a83c:	e59f0124 	ldr	r0, [pc, #292]	; 1a968 <BcmPropertyTagsGetTag+0x150>
   1a840:	ebfff4d3 	bl	17b94 <assertion_failed>
   1a844:	e3570000 	cmp	r7, #0
   1a848:	1a000003 	bne	1a85c <BcmPropertyTagsGetTag+0x44>
   1a84c:	e3a0203a 	mov	r2, #58	; 0x3a
   1a850:	e59f110c 	ldr	r1, [pc, #268]	; 1a964 <BcmPropertyTagsGetTag+0x14c>
   1a854:	e59f0110 	ldr	r0, [pc, #272]	; 1a96c <BcmPropertyTagsGetTag+0x154>
   1a858:	ebfff4cd 	bl	17b94 <assertion_failed>
   1a85c:	e355000f 	cmp	r5, #15
   1a860:	8a000003 	bhi	1a874 <BcmPropertyTagsGetTag+0x5c>
   1a864:	e3a0203b 	mov	r2, #59	; 0x3b
   1a868:	e59f10f4 	ldr	r1, [pc, #244]	; 1a964 <BcmPropertyTagsGetTag+0x14c>
   1a86c:	e59f00fc 	ldr	r0, [pc, #252]	; 1a970 <BcmPropertyTagsGetTag+0x158>
   1a870:	ebfff4c7 	bl	17b94 <assertion_failed>
   1a874:	e285600c 	add	r6, r5, #12
   1a878:	e3160003 	tst	r6, #3
   1a87c:	0a000003 	beq	1a890 <BcmPropertyTagsGetTag+0x78>
   1a880:	e3a0203d 	mov	r2, #61	; 0x3d
   1a884:	e59f10d8 	ldr	r1, [pc, #216]	; 1a964 <BcmPropertyTagsGetTag+0x14c>
   1a888:	e59f00e4 	ldr	r0, [pc, #228]	; 1a974 <BcmPropertyTagsGetTag+0x15c>
   1a88c:	ebfff4c0 	bl	17b94 <assertion_failed>
   1a890:	e2853022 	add	r3, r5, #34	; 0x22
   1a894:	e3c33007 	bic	r3, r3, #7
   1a898:	e04dd003 	sub	sp, sp, r3
   1a89c:	e28d400f 	add	r4, sp, #15
   1a8a0:	e3c4400f 	bic	r4, r4, #15
   1a8a4:	e5846000 	str	r6, [r4]
   1a8a8:	e3a06000 	mov	r6, #0
   1a8ac:	e5846004 	str	r6, [r4, #4]
   1a8b0:	e2848008 	add	r8, r4, #8
   1a8b4:	e1a02005 	mov	r2, r5
   1a8b8:	e1a01007 	mov	r1, r7
   1a8bc:	e1a00008 	mov	r0, r8
   1a8c0:	ebfffc51 	bl	19a0c <memcpy>
   1a8c4:	e584a008 	str	sl, [r4, #8]
   1a8c8:	e245300c 	sub	r3, r5, #12
   1a8cc:	e584300c 	str	r3, [r4, #12]
   1a8d0:	e59b3004 	ldr	r3, [fp, #4]
   1a8d4:	e3c33102 	bic	r3, r3, #-2147483648	; 0x80000000
   1a8d8:	e5843010 	str	r3, [r4, #16]
   1a8dc:	e7886005 	str	r6, [r8, r5]
   1a8e0:	ee076f1a 	mcr	15, 0, r6, cr7, cr10, {0}
   1a8e4:	ee076f9a 	mcr	15, 0, r6, cr7, cr10, {4}
   1a8e8:	e2846101 	add	r6, r4, #1073741824	; 0x40000000
   1a8ec:	e1a01006 	mov	r1, r6
   1a8f0:	e1a00009 	mov	r0, r9
   1a8f4:	eb00028d 	bl	1b330 <BcmMailBoxWriteRead>
   1a8f8:	e1560000 	cmp	r6, r0
   1a8fc:	13a00000 	movne	r0, #0
   1a900:	1a000015 	bne	1a95c <BcmPropertyTagsGetTag+0x144>
   1a904:	e3a03000 	mov	r3, #0
   1a908:	ee073f16 	mcr	15, 0, r3, cr7, cr6, {0}
   1a90c:	ee073f9a 	mcr	15, 0, r3, cr7, cr10, {4}
   1a910:	e5943004 	ldr	r3, [r4, #4]
   1a914:	e3530102 	cmp	r3, #-2147483648	; 0x80000000
   1a918:	13a00000 	movne	r0, #0
   1a91c:	1a00000e 	bne	1a95c <BcmPropertyTagsGetTag+0x144>
   1a920:	e5943010 	ldr	r3, [r4, #16]
   1a924:	e3530000 	cmp	r3, #0
   1a928:	a3a00000 	movge	r0, #0
   1a92c:	aa00000a 	bge	1a95c <BcmPropertyTagsGetTag+0x144>
   1a930:	e3c33102 	bic	r3, r3, #-2147483648	; 0x80000000
   1a934:	e5843010 	str	r3, [r4, #16]
   1a938:	e3530000 	cmp	r3, #0
   1a93c:	03a00000 	moveq	r0, #0
   1a940:	0a000005 	beq	1a95c <BcmPropertyTagsGetTag+0x144>
   1a944:	e1a02005 	mov	r2, r5
   1a948:	e1a01008 	mov	r1, r8
   1a94c:	e1a00007 	mov	r0, r7
   1a950:	ebfffc2d 	bl	19a0c <memcpy>
   1a954:	e3a00001 	mov	r0, #1
   1a958:	eaffffff 	b	1a95c <BcmPropertyTagsGetTag+0x144>
   1a95c:	e24bd024 	sub	sp, fp, #36	; 0x24
   1a960:	e8bd8ff8 	pop	{r3, r4, r5, r6, r7, r8, r9, sl, fp, pc}
   1a964:	0001da4c 	.word	0x0001da4c
   1a968:	0001b4d8 	.word	0x0001b4d8
   1a96c:	0001da60 	.word	0x0001da60
   1a970:	0001da6c 	.word	0x0001da6c
   1a974:	0001da94 	.word	0x0001da94

0001a978 <CharGenerator>:
   1a978:	e92d4010 	push	{r4, lr}
   1a97c:	e2504000 	subs	r4, r0, #0
   1a980:	1a000003 	bne	1a994 <CharGenerator+0x1c>
   1a984:	e3a02020 	mov	r2, #32
   1a988:	e59f1010 	ldr	r1, [pc, #16]	; 1a9a0 <CharGenerator+0x28>
   1a98c:	e59f0010 	ldr	r0, [pc, #16]	; 1a9a4 <CharGenerator+0x2c>
   1a990:	ebfff47f 	bl	17b94 <assertion_failed>
   1a994:	e3a03008 	mov	r3, #8
   1a998:	e5843000 	str	r3, [r4]
   1a99c:	e8bd8010 	pop	{r4, pc}
   1a9a0:	0001e89c 	.word	0x0001e89c
   1a9a4:	0001b4d8 	.word	0x0001b4d8

0001a9a8 <_CharGenerator>:
   1a9a8:	e12fff1e 	bx	lr

0001a9ac <CharGeneratorGetCharWidth>:
   1a9ac:	e92d4010 	push	{r4, lr}
   1a9b0:	e2504000 	subs	r4, r0, #0
   1a9b4:	1a000003 	bne	1a9c8 <CharGeneratorGetCharWidth+0x1c>
   1a9b8:	e3a0202f 	mov	r2, #47	; 0x2f
   1a9bc:	e59f100c 	ldr	r1, [pc, #12]	; 1a9d0 <CharGeneratorGetCharWidth+0x24>
   1a9c0:	e59f000c 	ldr	r0, [pc, #12]	; 1a9d4 <CharGeneratorGetCharWidth+0x28>
   1a9c4:	ebfff472 	bl	17b94 <assertion_failed>
   1a9c8:	e5940000 	ldr	r0, [r4]
   1a9cc:	e8bd8010 	pop	{r4, pc}
   1a9d0:	0001e89c 	.word	0x0001e89c
   1a9d4:	0001b4d8 	.word	0x0001b4d8

0001a9d8 <CharGeneratorGetCharHeight>:
   1a9d8:	e3500000 	cmp	r0, #0
   1a9dc:	1a000006 	bne	1a9fc <CharGeneratorGetCharHeight+0x24>
   1a9e0:	e92d4010 	push	{r4, lr}
   1a9e4:	e3a02035 	mov	r2, #53	; 0x35
   1a9e8:	e59f1014 	ldr	r1, [pc, #20]	; 1aa04 <CharGeneratorGetCharHeight+0x2c>
   1a9ec:	e59f0014 	ldr	r0, [pc, #20]	; 1aa08 <CharGeneratorGetCharHeight+0x30>
   1a9f0:	ebfff467 	bl	17b94 <assertion_failed>
   1a9f4:	e3a00013 	mov	r0, #19
   1a9f8:	e8bd8010 	pop	{r4, pc}
   1a9fc:	e3a00013 	mov	r0, #19
   1aa00:	e12fff1e 	bx	lr
   1aa04:	0001e89c 	.word	0x0001e89c
   1aa08:	0001b4d8 	.word	0x0001b4d8

0001aa0c <CharGeneratorGetUnderline>:
   1aa0c:	e3500000 	cmp	r0, #0
   1aa10:	1a000006 	bne	1aa30 <CharGeneratorGetUnderline+0x24>
   1aa14:	e92d4010 	push	{r4, lr}
   1aa18:	e3a02040 	mov	r2, #64	; 0x40
   1aa1c:	e59f1014 	ldr	r1, [pc, #20]	; 1aa38 <CharGeneratorGetUnderline+0x2c>
   1aa20:	e59f0014 	ldr	r0, [pc, #20]	; 1aa3c <CharGeneratorGetUnderline+0x30>
   1aa24:	ebfff45a 	bl	17b94 <assertion_failed>
   1aa28:	e3a00010 	mov	r0, #16
   1aa2c:	e8bd8010 	pop	{r4, pc}
   1aa30:	e3a00010 	mov	r0, #16
   1aa34:	e12fff1e 	bx	lr
   1aa38:	0001e89c 	.word	0x0001e89c
   1aa3c:	0001b4d8 	.word	0x0001b4d8

0001aa40 <CharGeneratorGetPixel>:
   1aa40:	e92d41f0 	push	{r4, r5, r6, r7, r8, lr}
   1aa44:	e1a04001 	mov	r4, r1
   1aa48:	e1a05002 	mov	r5, r2
   1aa4c:	e1a06003 	mov	r6, r3
   1aa50:	e2507000 	subs	r7, r0, #0
   1aa54:	1a00001e 	bne	1aad4 <CharGeneratorGetPixel+0x94>
   1aa58:	e3a0204b 	mov	r2, #75	; 0x4b
   1aa5c:	e59f1084 	ldr	r1, [pc, #132]	; 1aae8 <CharGeneratorGetPixel+0xa8>
   1aa60:	e59f0084 	ldr	r0, [pc, #132]	; 1aaec <CharGeneratorGetPixel+0xac>
   1aa64:	ebfff44a 	bl	17b94 <assertion_failed>
   1aa68:	e6ef4074 	uxtb	r4, r4
   1aa6c:	e2444021 	sub	r4, r4, #33	; 0x21
   1aa70:	e35400de 	cmp	r4, #222	; 0xde
   1aa74:	8a000010 	bhi	1aabc <CharGeneratorGetPixel+0x7c>
   1aa78:	e5973000 	ldr	r3, [r7]
   1aa7c:	e1530005 	cmp	r3, r5
   1aa80:	8a000003 	bhi	1aa94 <CharGeneratorGetPixel+0x54>
   1aa84:	e3a02057 	mov	r2, #87	; 0x57
   1aa88:	e59f1058 	ldr	r1, [pc, #88]	; 1aae8 <CharGeneratorGetPixel+0xa8>
   1aa8c:	e59f005c 	ldr	r0, [pc, #92]	; 1aaf0 <CharGeneratorGetPixel+0xb0>
   1aa90:	ebfff43f 	bl	17b94 <assertion_failed>
   1aa94:	e356000f 	cmp	r6, #15
   1aa98:	8a000009 	bhi	1aac4 <CharGeneratorGetPixel+0x84>
   1aa9c:	e59f3050 	ldr	r3, [pc, #80]	; 1aaf4 <CharGeneratorGetPixel+0xb4>
   1aaa0:	e0834204 	add	r4, r3, r4, lsl #4
   1aaa4:	e7d43006 	ldrb	r3, [r4, r6]
   1aaa8:	e3a02080 	mov	r2, #128	; 0x80
   1aaac:	e0133552 	ands	r3, r3, r2, asr r5
   1aab0:	13a00001 	movne	r0, #1
   1aab4:	03a00000 	moveq	r0, #0
   1aab8:	e8bd81f0 	pop	{r4, r5, r6, r7, r8, pc}
   1aabc:	e3a00000 	mov	r0, #0
   1aac0:	e8bd81f0 	pop	{r4, r5, r6, r7, r8, pc}
   1aac4:	e3a00000 	mov	r0, #0
   1aac8:	e8bd81f0 	pop	{r4, r5, r6, r7, r8, pc}
   1aacc:	e3a00000 	mov	r0, #0
   1aad0:	e8bd81f0 	pop	{r4, r5, r6, r7, r8, pc}
   1aad4:	e6ef4071 	uxtb	r4, r1
   1aad8:	e2444021 	sub	r4, r4, #33	; 0x21
   1aadc:	e35400de 	cmp	r4, #222	; 0xde
   1aae0:	8afffff9 	bhi	1aacc <CharGeneratorGetPixel+0x8c>
   1aae4:	eaffffe3 	b	1aa78 <CharGeneratorGetPixel+0x38>
   1aae8:	0001e89c 	.word	0x0001e89c
   1aaec:	0001b4d8 	.word	0x0001b4d8
   1aaf0:	0001e8ac 	.word	0x0001e8ac
   1aaf4:	0001daac 	.word	0x0001daac

0001aaf8 <DelayLoop>:
   1aaf8:	e2500001 	subs	r0, r0, #1
   1aafc:	8afffffd 	bhi	1aaf8 <DelayLoop>
   1ab00:	e1a0f00e 	mov	pc, lr

0001ab04 <UndefinedInstructionStub>:
   1ab04:	e3a0d823 	mov	sp, #2293760	; 0x230000
   1ab08:	e24ee004 	sub	lr, lr, #4
   1ab0c:	e92d4000 	stmfd	sp!, {lr}
   1ab10:	e14fe000 	mrs	lr, SPSR
   1ab14:	e92d4000 	stmfd	sp!, {lr}
   1ab18:	e94d7fff 	stmdb	sp, {r0, r1, r2, r3, r4, r5, r6, r7, r8, r9, sl, fp, ip, sp, lr}^
   1ab1c:	e24dd03c 	sub	sp, sp, #60	; 0x3c
   1ab20:	e1a0100d 	mov	r1, sp
   1ab24:	f1020012 	cps	#18
   1ab28:	e1a0200d 	mov	r2, sp
   1ab2c:	e1a0300e 	mov	r3, lr
   1ab30:	f102001f 	cps	#31
   1ab34:	e1a0d001 	mov	sp, r1
   1ab38:	e92d000c 	push	{r2, r3}
   1ab3c:	e1a0100d 	mov	r1, sp
   1ab40:	e3a00001 	mov	r0, #1
   1ab44:	eafffe37 	b	1a428 <ExceptionHandler>

0001ab48 <PrefetchAbortStub>:
   1ab48:	e3a0d823 	mov	sp, #2293760	; 0x230000
   1ab4c:	e24ee004 	sub	lr, lr, #4
   1ab50:	e92d4000 	stmfd	sp!, {lr}
   1ab54:	e14fe000 	mrs	lr, SPSR
   1ab58:	e92d4000 	stmfd	sp!, {lr}
   1ab5c:	e94d7fff 	stmdb	sp, {r0, r1, r2, r3, r4, r5, r6, r7, r8, r9, sl, fp, ip, sp, lr}^
   1ab60:	e24dd03c 	sub	sp, sp, #60	; 0x3c
   1ab64:	e1a0100d 	mov	r1, sp
   1ab68:	f1020012 	cps	#18
   1ab6c:	e1a0200d 	mov	r2, sp
   1ab70:	e1a0300e 	mov	r3, lr
   1ab74:	f102001f 	cps	#31
   1ab78:	e1a0d001 	mov	sp, r1
   1ab7c:	e92d000c 	push	{r2, r3}
   1ab80:	e1a0100d 	mov	r1, sp
   1ab84:	e3a00002 	mov	r0, #2
   1ab88:	eafffe26 	b	1a428 <ExceptionHandler>

0001ab8c <DataAbortStub>:
   1ab8c:	e3a0d823 	mov	sp, #2293760	; 0x230000
   1ab90:	e24ee008 	sub	lr, lr, #8
   1ab94:	e92d4000 	stmfd	sp!, {lr}
   1ab98:	e14fe000 	mrs	lr, SPSR
   1ab9c:	e92d4000 	stmfd	sp!, {lr}
   1aba0:	e94d7fff 	stmdb	sp, {r0, r1, r2, r3, r4, r5, r6, r7, r8, r9, sl, fp, ip, sp, lr}^
   1aba4:	e24dd03c 	sub	sp, sp, #60	; 0x3c
   1aba8:	e1a0100d 	mov	r1, sp
   1abac:	f1020012 	cps	#18
   1abb0:	e1a0200d 	mov	r2, sp
   1abb4:	e1a0300e 	mov	r3, lr
   1abb8:	f102001f 	cps	#31
   1abbc:	e1a0d001 	mov	sp, r1
   1abc0:	e92d000c 	push	{r2, r3}
   1abc4:	e1a0100d 	mov	r1, sp
   1abc8:	e3a00003 	mov	r0, #3
   1abcc:	eafffe15 	b	1a428 <ExceptionHandler>

0001abd0 <IRQStub>:
   1abd0:	e3a0d98e 	mov	sp, #2326528	; 0x238000
   1abd4:	e24ee004 	sub	lr, lr, #4
   1abd8:	e92d5fff 	push	{r0, r1, r2, r3, r4, r5, r6, r7, r8, r9, sl, fp, ip, lr}
   1abdc:	eb000104 	bl	1aff4 <InterruptHandler>
   1abe0:	e8fd9fff 	ldm	sp!, {r0, r1, r2, r3, r4, r5, r6, r7, r8, r9, sl, fp, ip, pc}^

0001abe4 <InterruptSystem>:
   1abe4:	e92d4010 	push	{r4, lr}
   1abe8:	e2504000 	subs	r4, r0, #0
   1abec:	1a000003 	bne	1ac00 <InterruptSystem+0x1c>
   1abf0:	e3a02032 	mov	r2, #50	; 0x32
   1abf4:	e59f1030 	ldr	r1, [pc, #48]	; 1ac2c <InterruptSystem+0x48>
   1abf8:	e59f0030 	ldr	r0, [pc, #48]	; 1ac30 <InterruptSystem+0x4c>
   1abfc:	ebfff3e4 	bl	17b94 <assertion_failed>
   1ac00:	e2443004 	sub	r3, r4, #4
   1ac04:	e2840f47 	add	r0, r4, #284	; 0x11c
   1ac08:	e1a01000 	mov	r1, r0
   1ac0c:	e3a02000 	mov	r2, #0
   1ac10:	e5a32004 	str	r2, [r3, #4]!
   1ac14:	e5a12004 	str	r2, [r1, #4]!
   1ac18:	e1530000 	cmp	r3, r0
   1ac1c:	1afffffb 	bne	1ac10 <InterruptSystem+0x2c>
   1ac20:	e59f300c 	ldr	r3, [pc, #12]	; 1ac34 <InterruptSystem+0x50>
   1ac24:	e5834000 	str	r4, [r3]
   1ac28:	e8bd8010 	pop	{r4, pc}
   1ac2c:	0001e8c8 	.word	0x0001e8c8
   1ac30:	0001b4d8 	.word	0x0001b4d8
   1ac34:	00008d54 	.word	0x00008d54

0001ac38 <_InterruptSystem>:
   1ac38:	e3a02000 	mov	r2, #0
   1ac3c:	e59f3004 	ldr	r3, [pc, #4]	; 1ac48 <_InterruptSystem+0x10>
   1ac40:	e5832000 	str	r2, [r3]
   1ac44:	e12fff1e 	bx	lr
   1ac48:	00008d54 	.word	0x00008d54

0001ac4c <InterruptSystemInitialize>:
   1ac4c:	e92d4070 	push	{r4, r5, r6, lr}
   1ac50:	e3500000 	cmp	r0, #0
   1ac54:	1a000003 	bne	1ac68 <InterruptSystemInitialize+0x1c>
   1ac58:	e3a02044 	mov	r2, #68	; 0x44
   1ac5c:	e59f10c0 	ldr	r1, [pc, #192]	; 1ad24 <InterruptSystemInitialize+0xd8>
   1ac60:	e59f00c0 	ldr	r0, [pc, #192]	; 1ad28 <InterruptSystemInitialize+0xdc>
   1ac64:	ebfff3ca 	bl	17b94 <assertion_failed>
   1ac68:	e3a04000 	mov	r4, #0
   1ac6c:	e59f30b8 	ldr	r3, [pc, #184]	; 1ad2c <InterruptSystemInitialize+0xe0>
   1ac70:	e1a03143 	asr	r3, r3, #2
   1ac74:	e2433002 	sub	r3, r3, #2
   1ac78:	e38334ea 	orr	r3, r3, #-369098752	; 0xea000000
   1ac7c:	e5843018 	str	r3, [r4, #24]
   1ac80:	ee074f1a 	mcr	15, 0, r4, cr7, cr10, {0}
   1ac84:	ee074f9a 	mcr	15, 0, r4, cr7, cr10, {4}
   1ac88:	ee074f15 	mcr	15, 0, r4, cr7, cr5, {0}
   1ac8c:	ee074fd5 	mcr	15, 0, r4, cr7, cr5, {6}
   1ac90:	ee074f9a 	mcr	15, 0, r4, cr7, cr10, {4}
   1ac94:	ee074f95 	mcr	15, 0, r4, cr7, cr5, {4}
   1ac98:	ee074fba 	mcr	15, 0, r4, cr7, cr10, {5}
   1ac9c:	e1a01004 	mov	r1, r4
   1aca0:	e59f0088 	ldr	r0, [pc, #136]	; 1ad30 <InterruptSystemInitialize+0xe4>
   1aca4:	eb00013b 	bl	1b198 <write32>
   1aca8:	e3e01000 	mvn	r1, #0
   1acac:	e59f0080 	ldr	r0, [pc, #128]	; 1ad34 <InterruptSystemInitialize+0xe8>
   1acb0:	eb000138 	bl	1b198 <write32>
   1acb4:	e3e01000 	mvn	r1, #0
   1acb8:	e59f0078 	ldr	r0, [pc, #120]	; 1ad38 <InterruptSystemInitialize+0xec>
   1acbc:	eb000135 	bl	1b198 <write32>
   1acc0:	e3e01000 	mvn	r1, #0
   1acc4:	e59f0070 	ldr	r0, [pc, #112]	; 1ad3c <InterruptSystemInitialize+0xf0>
   1acc8:	eb000132 	bl	1b198 <write32>
   1accc:	e59f506c 	ldr	r5, [pc, #108]	; 1ad40 <InterruptSystemInitialize+0xf4>
   1acd0:	e1a00005 	mov	r0, r5
   1acd4:	eb00012d 	bl	1b190 <read32>
   1acd8:	e1a01000 	mov	r1, r0
   1acdc:	e1a00005 	mov	r0, r5
   1ace0:	eb00012c 	bl	1b198 <write32>
   1ace4:	e2855004 	add	r5, r5, #4
   1ace8:	e1a00005 	mov	r0, r5
   1acec:	eb000127 	bl	1b190 <read32>
   1acf0:	e1a01000 	mov	r1, r0
   1acf4:	e1a00005 	mov	r0, r5
   1acf8:	eb000126 	bl	1b198 <write32>
   1acfc:	e2855004 	add	r5, r5, #4
   1ad00:	e1a00005 	mov	r0, r5
   1ad04:	eb000121 	bl	1b190 <read32>
   1ad08:	e1a01000 	mov	r1, r0
   1ad0c:	e1a00005 	mov	r0, r5
   1ad10:	eb000120 	bl	1b198 <write32>
   1ad14:	ee074fba 	mcr	15, 0, r4, cr7, cr10, {5}
   1ad18:	f1080080 	cpsie	i
   1ad1c:	e3a00001 	mov	r0, #1
   1ad20:	e8bd8070 	pop	{r4, r5, r6, pc}
   1ad24:	0001e8c8 	.word	0x0001e8c8
   1ad28:	0001b4d8 	.word	0x0001b4d8
   1ad2c:	0001abb8 	.word	0x0001abb8
   1ad30:	2000b20c 	.word	0x2000b20c
   1ad34:	2000b21c 	.word	0x2000b21c
   1ad38:	2000b220 	.word	0x2000b220
   1ad3c:	2000b224 	.word	0x2000b224
   1ad40:	2000b200 	.word	0x2000b200

0001ad44 <InterruptSystemEnableIRQ>:
   1ad44:	e92d4010 	push	{r4, lr}
   1ad48:	e1a04000 	mov	r4, r0
   1ad4c:	e3a03000 	mov	r3, #0
   1ad50:	ee073fba 	mcr	15, 0, r3, cr7, cr10, {5}
   1ad54:	e3500047 	cmp	r0, #71	; 0x47
   1ad58:	9a000003 	bls	1ad6c <InterruptSystemEnableIRQ+0x28>
   1ad5c:	e3a02084 	mov	r2, #132	; 0x84
   1ad60:	e59f1040 	ldr	r1, [pc, #64]	; 1ada8 <InterruptSystemEnableIRQ+0x64>
   1ad64:	e59f0040 	ldr	r0, [pc, #64]	; 1adac <InterruptSystemEnableIRQ+0x68>
   1ad68:	ebfff389 	bl	17b94 <assertion_failed>
   1ad6c:	e354001f 	cmp	r4, #31
   1ad70:	9a000004 	bls	1ad88 <InterruptSystemEnableIRQ+0x44>
   1ad74:	e59f0034 	ldr	r0, [pc, #52]	; 1adb0 <InterruptSystemEnableIRQ+0x6c>
   1ad78:	e59f3034 	ldr	r3, [pc, #52]	; 1adb4 <InterruptSystemEnableIRQ+0x70>
   1ad7c:	e354003f 	cmp	r4, #63	; 0x3f
   1ad80:	91a00003 	movls	r0, r3
   1ad84:	ea000000 	b	1ad8c <InterruptSystemEnableIRQ+0x48>
   1ad88:	e59f0028 	ldr	r0, [pc, #40]	; 1adb8 <InterruptSystemEnableIRQ+0x74>
   1ad8c:	e204401f 	and	r4, r4, #31
   1ad90:	e3a01001 	mov	r1, #1
   1ad94:	e1a01411 	lsl	r1, r1, r4
   1ad98:	eb0000fe 	bl	1b198 <write32>
   1ad9c:	e3a03000 	mov	r3, #0
   1ada0:	ee073fba 	mcr	15, 0, r3, cr7, cr10, {5}
   1ada4:	e8bd8010 	pop	{r4, pc}
   1ada8:	0001e8c8 	.word	0x0001e8c8
   1adac:	0001e8d4 	.word	0x0001e8d4
   1adb0:	2000b218 	.word	0x2000b218
   1adb4:	2000b214 	.word	0x2000b214
   1adb8:	2000b210 	.word	0x2000b210

0001adbc <InterruptSystemConnectIRQ>:
   1adbc:	e92d41f0 	push	{r4, r5, r6, r7, r8, lr}
   1adc0:	e1a04001 	mov	r4, r1
   1adc4:	e1a08002 	mov	r8, r2
   1adc8:	e1a07003 	mov	r7, r3
   1adcc:	e2505000 	subs	r5, r0, #0
   1add0:	1a000003 	bne	1ade4 <InterruptSystemConnectIRQ+0x28>
   1add4:	e3a02068 	mov	r2, #104	; 0x68
   1add8:	e59f1050 	ldr	r1, [pc, #80]	; 1ae30 <InterruptSystemConnectIRQ+0x74>
   1addc:	e59f0050 	ldr	r0, [pc, #80]	; 1ae34 <InterruptSystemConnectIRQ+0x78>
   1ade0:	ebfff36b 	bl	17b94 <assertion_failed>
   1ade4:	e3540047 	cmp	r4, #71	; 0x47
   1ade8:	9a000003 	bls	1adfc <InterruptSystemConnectIRQ+0x40>
   1adec:	e3a0206a 	mov	r2, #106	; 0x6a
   1adf0:	e59f1038 	ldr	r1, [pc, #56]	; 1ae30 <InterruptSystemConnectIRQ+0x74>
   1adf4:	e59f003c 	ldr	r0, [pc, #60]	; 1ae38 <InterruptSystemConnectIRQ+0x7c>
   1adf8:	ebfff365 	bl	17b94 <assertion_failed>
   1adfc:	e0856104 	add	r6, r5, r4, lsl #2
   1ae00:	e7953104 	ldr	r3, [r5, r4, lsl #2]
   1ae04:	e3530000 	cmp	r3, #0
   1ae08:	0a000003 	beq	1ae1c <InterruptSystemConnectIRQ+0x60>
   1ae0c:	e3a0206b 	mov	r2, #107	; 0x6b
   1ae10:	e59f1018 	ldr	r1, [pc, #24]	; 1ae30 <InterruptSystemConnectIRQ+0x74>
   1ae14:	e59f0020 	ldr	r0, [pc, #32]	; 1ae3c <InterruptSystemConnectIRQ+0x80>
   1ae18:	ebfff35d 	bl	17b94 <assertion_failed>
   1ae1c:	e7858104 	str	r8, [r5, r4, lsl #2]
   1ae20:	e5867120 	str	r7, [r6, #288]	; 0x120
   1ae24:	e1a00004 	mov	r0, r4
   1ae28:	ebffffc5 	bl	1ad44 <InterruptSystemEnableIRQ>
   1ae2c:	e8bd81f0 	pop	{r4, r5, r6, r7, r8, pc}
   1ae30:	0001e8c8 	.word	0x0001e8c8
   1ae34:	0001b4d8 	.word	0x0001b4d8
   1ae38:	0001e8d4 	.word	0x0001e8d4
   1ae3c:	0001e8e8 	.word	0x0001e8e8

0001ae40 <InterruptSystemDisableIRQ>:
   1ae40:	e92d4010 	push	{r4, lr}
   1ae44:	e1a04000 	mov	r4, r0
   1ae48:	e3a03000 	mov	r3, #0
   1ae4c:	ee073fba 	mcr	15, 0, r3, cr7, cr10, {5}
   1ae50:	e3500047 	cmp	r0, #71	; 0x47
   1ae54:	9a000003 	bls	1ae68 <InterruptSystemDisableIRQ+0x28>
   1ae58:	e3a0208f 	mov	r2, #143	; 0x8f
   1ae5c:	e59f1040 	ldr	r1, [pc, #64]	; 1aea4 <InterruptSystemDisableIRQ+0x64>
   1ae60:	e59f0040 	ldr	r0, [pc, #64]	; 1aea8 <InterruptSystemDisableIRQ+0x68>
   1ae64:	ebfff34a 	bl	17b94 <assertion_failed>
   1ae68:	e354001f 	cmp	r4, #31
   1ae6c:	9a000004 	bls	1ae84 <InterruptSystemDisableIRQ+0x44>
   1ae70:	e59f0034 	ldr	r0, [pc, #52]	; 1aeac <InterruptSystemDisableIRQ+0x6c>
   1ae74:	e59f3034 	ldr	r3, [pc, #52]	; 1aeb0 <InterruptSystemDisableIRQ+0x70>
   1ae78:	e354003f 	cmp	r4, #63	; 0x3f
   1ae7c:	91a00003 	movls	r0, r3
   1ae80:	ea000000 	b	1ae88 <InterruptSystemDisableIRQ+0x48>
   1ae84:	e59f0028 	ldr	r0, [pc, #40]	; 1aeb4 <InterruptSystemDisableIRQ+0x74>
   1ae88:	e204401f 	and	r4, r4, #31
   1ae8c:	e3a01001 	mov	r1, #1
   1ae90:	e1a01411 	lsl	r1, r1, r4
   1ae94:	eb0000bf 	bl	1b198 <write32>
   1ae98:	e3a03000 	mov	r3, #0
   1ae9c:	ee073fba 	mcr	15, 0, r3, cr7, cr10, {5}
   1aea0:	e8bd8010 	pop	{r4, pc}
   1aea4:	0001e8c8 	.word	0x0001e8c8
   1aea8:	0001e8d4 	.word	0x0001e8d4
   1aeac:	2000b224 	.word	0x2000b224
   1aeb0:	2000b220 	.word	0x2000b220
   1aeb4:	2000b21c 	.word	0x2000b21c

0001aeb8 <InterruptSystemDisconnectIRQ>:
   1aeb8:	e92d4070 	push	{r4, r5, r6, lr}
   1aebc:	e1a04001 	mov	r4, r1
   1aec0:	e2505000 	subs	r5, r0, #0
   1aec4:	1a000003 	bne	1aed8 <InterruptSystemDisconnectIRQ+0x20>
   1aec8:	e3a02075 	mov	r2, #117	; 0x75
   1aecc:	e59f1054 	ldr	r1, [pc, #84]	; 1af28 <InterruptSystemDisconnectIRQ+0x70>
   1aed0:	e59f0054 	ldr	r0, [pc, #84]	; 1af2c <InterruptSystemDisconnectIRQ+0x74>
   1aed4:	ebfff32e 	bl	17b94 <assertion_failed>
   1aed8:	e3540047 	cmp	r4, #71	; 0x47
   1aedc:	9a000003 	bls	1aef0 <InterruptSystemDisconnectIRQ+0x38>
   1aee0:	e3a02077 	mov	r2, #119	; 0x77
   1aee4:	e59f103c 	ldr	r1, [pc, #60]	; 1af28 <InterruptSystemDisconnectIRQ+0x70>
   1aee8:	e59f0040 	ldr	r0, [pc, #64]	; 1af30 <InterruptSystemDisconnectIRQ+0x78>
   1aeec:	ebfff328 	bl	17b94 <assertion_failed>
   1aef0:	e0856104 	add	r6, r5, r4, lsl #2
   1aef4:	e7953104 	ldr	r3, [r5, r4, lsl #2]
   1aef8:	e3530000 	cmp	r3, #0
   1aefc:	1a000003 	bne	1af10 <InterruptSystemDisconnectIRQ+0x58>
   1af00:	e3a02078 	mov	r2, #120	; 0x78
   1af04:	e59f101c 	ldr	r1, [pc, #28]	; 1af28 <InterruptSystemDisconnectIRQ+0x70>
   1af08:	e59f0024 	ldr	r0, [pc, #36]	; 1af34 <InterruptSystemDisconnectIRQ+0x7c>
   1af0c:	ebfff320 	bl	17b94 <assertion_failed>
   1af10:	e1a00004 	mov	r0, r4
   1af14:	ebffffc9 	bl	1ae40 <InterruptSystemDisableIRQ>
   1af18:	e3a03000 	mov	r3, #0
   1af1c:	e7853104 	str	r3, [r5, r4, lsl #2]
   1af20:	e5863120 	str	r3, [r6, #288]	; 0x120
   1af24:	e8bd8070 	pop	{r4, r5, r6, pc}
   1af28:	0001e8c8 	.word	0x0001e8c8
   1af2c:	0001b4d8 	.word	0x0001b4d8
   1af30:	0001e8d4 	.word	0x0001e8d4
   1af34:	0001e90c 	.word	0x0001e90c

0001af38 <InterruptSystemGet>:
   1af38:	e59f3034 	ldr	r3, [pc, #52]	; 1af74 <InterruptSystemGet+0x3c>
   1af3c:	e5933000 	ldr	r3, [r3]
   1af40:	e3530000 	cmp	r3, #0
   1af44:	1a000007 	bne	1af68 <InterruptSystemGet+0x30>
   1af48:	e92d4010 	push	{r4, lr}
   1af4c:	e3a02098 	mov	r2, #152	; 0x98
   1af50:	e59f1020 	ldr	r1, [pc, #32]	; 1af78 <InterruptSystemGet+0x40>
   1af54:	e59f0020 	ldr	r0, [pc, #32]	; 1af7c <InterruptSystemGet+0x44>
   1af58:	ebfff30d 	bl	17b94 <assertion_failed>
   1af5c:	e59f3010 	ldr	r3, [pc, #16]	; 1af74 <InterruptSystemGet+0x3c>
   1af60:	e5930000 	ldr	r0, [r3]
   1af64:	e8bd8010 	pop	{r4, pc}
   1af68:	e59f3004 	ldr	r3, [pc, #4]	; 1af74 <InterruptSystemGet+0x3c>
   1af6c:	e5930000 	ldr	r0, [r3]
   1af70:	e12fff1e 	bx	lr
   1af74:	00008d54 	.word	0x00008d54
   1af78:	0001e8c8 	.word	0x0001e8c8
   1af7c:	0001c254 	.word	0x0001c254

0001af80 <InterruptSystemCallIRQHandler>:
   1af80:	e92d4070 	push	{r4, r5, r6, lr}
   1af84:	e1a04001 	mov	r4, r1
   1af88:	e2505000 	subs	r5, r0, #0
   1af8c:	1a000003 	bne	1afa0 <InterruptSystemCallIRQHandler+0x20>
   1af90:	e3a0209e 	mov	r2, #158	; 0x9e
   1af94:	e59f104c 	ldr	r1, [pc, #76]	; 1afe8 <InterruptSystemCallIRQHandler+0x68>
   1af98:	e59f004c 	ldr	r0, [pc, #76]	; 1afec <InterruptSystemCallIRQHandler+0x6c>
   1af9c:	ebfff2fc 	bl	17b94 <assertion_failed>
   1afa0:	e3540047 	cmp	r4, #71	; 0x47
   1afa4:	9a000003 	bls	1afb8 <InterruptSystemCallIRQHandler+0x38>
   1afa8:	e3a020a0 	mov	r2, #160	; 0xa0
   1afac:	e59f1034 	ldr	r1, [pc, #52]	; 1afe8 <InterruptSystemCallIRQHandler+0x68>
   1afb0:	e59f0038 	ldr	r0, [pc, #56]	; 1aff0 <InterruptSystemCallIRQHandler+0x70>
   1afb4:	ebfff2f6 	bl	17b94 <assertion_failed>
   1afb8:	e0852104 	add	r2, r5, r4, lsl #2
   1afbc:	e7953104 	ldr	r3, [r5, r4, lsl #2]
   1afc0:	e3530000 	cmp	r3, #0
   1afc4:	0a000003 	beq	1afd8 <InterruptSystemCallIRQHandler+0x58>
   1afc8:	e5920120 	ldr	r0, [r2, #288]	; 0x120
   1afcc:	e12fff33 	blx	r3
   1afd0:	e3a00001 	mov	r0, #1
   1afd4:	e8bd8070 	pop	{r4, r5, r6, pc}
   1afd8:	e1a00004 	mov	r0, r4
   1afdc:	ebffff97 	bl	1ae40 <InterruptSystemDisableIRQ>
   1afe0:	e3a00000 	mov	r0, #0
   1afe4:	e8bd8070 	pop	{r4, r5, r6, pc}
   1afe8:	0001e8c8 	.word	0x0001e8c8
   1afec:	0001b4d8 	.word	0x0001b4d8
   1aff0:	0001e8d4 	.word	0x0001e8d4

0001aff4 <InterruptHandler>:
   1aff4:	e92d47f0 	push	{r4, r5, r6, r7, r8, r9, sl, lr}
   1aff8:	e59f30a0 	ldr	r3, [pc, #160]	; 1b0a0 <InterruptHandler+0xac>
   1affc:	e5933000 	ldr	r3, [r3]
   1b000:	e3530000 	cmp	r3, #0
   1b004:	1a000003 	bne	1b018 <InterruptHandler+0x24>
   1b008:	e3a020b3 	mov	r2, #179	; 0xb3
   1b00c:	e59f1090 	ldr	r1, [pc, #144]	; 1b0a4 <InterruptHandler+0xb0>
   1b010:	e59f0090 	ldr	r0, [pc, #144]	; 1b0a8 <InterruptHandler+0xb4>
   1b014:	ebfff2de 	bl	17b94 <assertion_failed>
   1b018:	e3a04000 	mov	r4, #0
   1b01c:	ee074fba 	mcr	15, 0, r4, cr7, cr10, {5}
   1b020:	e59f0084 	ldr	r0, [pc, #132]	; 1b0ac <InterruptHandler+0xb8>
   1b024:	e3a05001 	mov	r5, #1
   1b028:	e59f9070 	ldr	r9, [pc, #112]	; 1b0a0 <InterruptHandler+0xac>
   1b02c:	e1a08000 	mov	r8, r0
   1b030:	e59f7078 	ldr	r7, [pc, #120]	; 1b0b0 <InterruptHandler+0xbc>
   1b034:	e59f6078 	ldr	r6, [pc, #120]	; 1b0b4 <InterruptHandler+0xc0>
   1b038:	ea000006 	b	1b058 <InterruptHandler+0x64>
   1b03c:	e354001f 	cmp	r4, #31
   1b040:	91a00008 	movls	r0, r8
   1b044:	9a000003 	bls	1b058 <InterruptHandler+0x64>
   1b048:	e354003f 	cmp	r4, #63	; 0x3f
   1b04c:	91a00007 	movls	r0, r7
   1b050:	81a00006 	movhi	r0, r6
   1b054:	eaffffff 	b	1b058 <InterruptHandler+0x64>
   1b058:	eb00004c 	bl	1b190 <read32>
   1b05c:	e204301f 	and	r3, r4, #31
   1b060:	e0103315 	ands	r3, r0, r5, lsl r3
   1b064:	0a000007 	beq	1b088 <InterruptHandler+0x94>
   1b068:	e1a01004 	mov	r1, r4
   1b06c:	e5990000 	ldr	r0, [r9]
   1b070:	ebffffc2 	bl	1af80 <InterruptSystemCallIRQHandler>
   1b074:	e3500000 	cmp	r0, #0
   1b078:	0a000002 	beq	1b088 <InterruptHandler+0x94>
   1b07c:	e3a03000 	mov	r3, #0
   1b080:	ee073fba 	mcr	15, 0, r3, cr7, cr10, {5}
   1b084:	e8bd87f0 	pop	{r4, r5, r6, r7, r8, r9, sl, pc}
   1b088:	e2844001 	add	r4, r4, #1
   1b08c:	e3540048 	cmp	r4, #72	; 0x48
   1b090:	1affffe9 	bne	1b03c <InterruptHandler+0x48>
   1b094:	e3a03000 	mov	r3, #0
   1b098:	ee073fba 	mcr	15, 0, r3, cr7, cr10, {5}
   1b09c:	e8bd87f0 	pop	{r4, r5, r6, r7, r8, r9, sl, pc}
   1b0a0:	00008d54 	.word	0x00008d54
   1b0a4:	0001e8c8 	.word	0x0001e8c8
   1b0a8:	0001c254 	.word	0x0001c254
   1b0ac:	2000b204 	.word	0x2000b204
   1b0b0:	2000b208 	.word	0x2000b208
   1b0b4:	2000b200 	.word	0x2000b200

0001b0b8 <Divide>:
   1b0b8:	e92d41f0 	push	{r4, r5, r6, r7, r8, lr}
   1b0bc:	e1a04000 	mov	r4, r0
   1b0c0:	e1a05002 	mov	r5, r2
   1b0c4:	e2516000 	subs	r6, r1, #0
   1b0c8:	1a000006 	bne	1b0e8 <Divide+0x30>
   1b0cc:	e3a0201f 	mov	r2, #31
   1b0d0:	e59f10b0 	ldr	r1, [pc, #176]	; 1b188 <Divide+0xd0>
   1b0d4:	e59f00b0 	ldr	r0, [pc, #176]	; 1b18c <Divide+0xd4>
   1b0d8:	ebfff2ad 	bl	17b94 <assertion_failed>
   1b0dc:	ebfffcbf 	bl	1a3e0 <ExceptionHandlerGet>
   1b0e0:	e3a01000 	mov	r1, #0
   1b0e4:	ebfffc67 	bl	1a288 <ExceptionHandlerThrow>
   1b0e8:	e1a02006 	mov	r2, r6
   1b0ec:	e3a03000 	mov	r3, #0
   1b0f0:	e1a06004 	mov	r6, r4
   1b0f4:	e3a07000 	mov	r7, #0
   1b0f8:	e1530007 	cmp	r3, r7
   1b0fc:	01520004 	cmpeq	r2, r4
   1b100:	2a00000d 	bcs	1b13c <Divide+0x84>
   1b104:	e3a0c001 	mov	ip, #1
   1b108:	ea000000 	b	1b110 <Divide+0x58>
   1b10c:	e1a0c00e 	mov	ip, lr
   1b110:	e0920002 	adds	r0, r2, r2
   1b114:	e0a31003 	adc	r1, r3, r3
   1b118:	e1a02000 	mov	r2, r0
   1b11c:	e1a03001 	mov	r3, r1
   1b120:	e28ce001 	add	lr, ip, #1
   1b124:	e1510007 	cmp	r1, r7
   1b128:	01500006 	cmpeq	r0, r6
   1b12c:	3afffff6 	bcc	1b10c <Divide+0x54>
   1b130:	e35e0000 	cmp	lr, #0
   1b134:	1a000001 	bne	1b140 <Divide+0x88>
   1b138:	ea00000e 	b	1b178 <Divide+0xc0>
   1b13c:	e3a0c000 	mov	ip, #0
   1b140:	e3a00000 	mov	r0, #0
   1b144:	e1a00080 	lsl	r0, r0, #1
   1b148:	e1a06004 	mov	r6, r4
   1b14c:	e3a07000 	mov	r7, #0
   1b150:	e1570003 	cmp	r7, r3
   1b154:	01540002 	cmpeq	r4, r2
   1b158:	23800001 	orrcs	r0, r0, #1
   1b15c:	20624004 	rsbcs	r4, r2, r4
   1b160:	e1b030a3 	lsrs	r3, r3, #1
   1b164:	e1a02062 	rrx	r2, r2
   1b168:	e24cc001 	sub	ip, ip, #1
   1b16c:	e37c0001 	cmn	ip, #1
   1b170:	1afffff3 	bne	1b144 <Divide+0x8c>
   1b174:	ea000000 	b	1b17c <Divide+0xc4>
   1b178:	e3a00000 	mov	r0, #0
   1b17c:	e3550000 	cmp	r5, #0
   1b180:	15854000 	strne	r4, [r5]
   1b184:	e8bd81f0 	pop	{r4, r5, r6, r7, r8, pc}
   1b188:	0001e930 	.word	0x0001e930
   1b18c:	0001d8fc 	.word	0x0001d8fc

0001b190 <read32>:
   1b190:	e5900000 	ldr	r0, [r0]
   1b194:	e12fff1e 	bx	lr

0001b198 <write32>:
   1b198:	e5801000 	str	r1, [r0]
   1b19c:	e12fff1e 	bx	lr

0001b1a0 <BcmMailBox>:
   1b1a0:	e92d4070 	push	{r4, r5, r6, lr}
   1b1a4:	e1a05001 	mov	r5, r1
   1b1a8:	e2504000 	subs	r4, r0, #0
   1b1ac:	1a000003 	bne	1b1c0 <BcmMailBox+0x20>
   1b1b0:	e3a02020 	mov	r2, #32
   1b1b4:	e59f100c 	ldr	r1, [pc, #12]	; 1b1c8 <BcmMailBox+0x28>
   1b1b8:	e59f000c 	ldr	r0, [pc, #12]	; 1b1cc <BcmMailBox+0x2c>
   1b1bc:	ebfff274 	bl	17b94 <assertion_failed>
   1b1c0:	e5845000 	str	r5, [r4]
   1b1c4:	e8bd8070 	pop	{r4, r5, r6, pc}
   1b1c8:	0001e93c 	.word	0x0001e93c
   1b1cc:	0001b4d8 	.word	0x0001b4d8

0001b1d0 <_BcmMailBox>:
   1b1d0:	e3500000 	cmp	r0, #0
   1b1d4:	112fff1e 	bxne	lr
   1b1d8:	e92d4010 	push	{r4, lr}
   1b1dc:	e3a02027 	mov	r2, #39	; 0x27
   1b1e0:	e59f1008 	ldr	r1, [pc, #8]	; 1b1f0 <_BcmMailBox+0x20>
   1b1e4:	e59f0008 	ldr	r0, [pc, #8]	; 1b1f4 <_BcmMailBox+0x24>
   1b1e8:	ebfff269 	bl	17b94 <assertion_failed>
   1b1ec:	e8bd8010 	pop	{r4, pc}
   1b1f0:	0001e93c 	.word	0x0001e93c
   1b1f4:	0001b4d8 	.word	0x0001b4d8

0001b1f8 <BcmMailBoxFlush>:
   1b1f8:	e92d4070 	push	{r4, r5, r6, lr}
   1b1fc:	e3500000 	cmp	r0, #0
   1b200:	1a000003 	bne	1b214 <BcmMailBoxFlush+0x1c>
   1b204:	e3a0203e 	mov	r2, #62	; 0x3e
   1b208:	e59f1038 	ldr	r1, [pc, #56]	; 1b248 <BcmMailBoxFlush+0x50>
   1b20c:	e59f0038 	ldr	r0, [pc, #56]	; 1b24c <BcmMailBoxFlush+0x54>
   1b210:	ebfff25f 	bl	17b94 <assertion_failed>
   1b214:	e59f4034 	ldr	r4, [pc, #52]	; 1b250 <BcmMailBoxFlush+0x58>
   1b218:	e59f6034 	ldr	r6, [pc, #52]	; 1b254 <BcmMailBoxFlush+0x5c>
   1b21c:	e3a05014 	mov	r5, #20
   1b220:	ea000003 	b	1b234 <BcmMailBoxFlush+0x3c>
   1b224:	e1a00006 	mov	r0, r6
   1b228:	ebffffd8 	bl	1b190 <read32>
   1b22c:	e1a00005 	mov	r0, r5
   1b230:	ebfff868 	bl	193d8 <TimerSimpleMsDelay>
   1b234:	e1a00004 	mov	r0, r4
   1b238:	ebffffd4 	bl	1b190 <read32>
   1b23c:	e3100101 	tst	r0, #1073741824	; 0x40000000
   1b240:	0afffff7 	beq	1b224 <BcmMailBoxFlush+0x2c>
   1b244:	e8bd8070 	pop	{r4, r5, r6, pc}
   1b248:	0001e93c 	.word	0x0001e93c
   1b24c:	0001b4d8 	.word	0x0001b4d8
   1b250:	2000b898 	.word	0x2000b898
   1b254:	2000b880 	.word	0x2000b880

0001b258 <BcmMailBoxRead>:
   1b258:	e92d4070 	push	{r4, r5, r6, lr}
   1b25c:	e2506000 	subs	r6, r0, #0
   1b260:	1a000003 	bne	1b274 <BcmMailBoxRead+0x1c>
   1b264:	e3a0204a 	mov	r2, #74	; 0x4a
   1b268:	e59f103c 	ldr	r1, [pc, #60]	; 1b2ac <BcmMailBoxRead+0x54>
   1b26c:	e59f003c 	ldr	r0, [pc, #60]	; 1b2b0 <BcmMailBoxRead+0x58>
   1b270:	ebfff247 	bl	17b94 <assertion_failed>
   1b274:	e59f4038 	ldr	r4, [pc, #56]	; 1b2b4 <BcmMailBoxRead+0x5c>
   1b278:	e59f5038 	ldr	r5, [pc, #56]	; 1b2b8 <BcmMailBoxRead+0x60>
   1b27c:	e1a00004 	mov	r0, r4
   1b280:	ebffffc2 	bl	1b190 <read32>
   1b284:	e3100101 	tst	r0, #1073741824	; 0x40000000
   1b288:	1afffffb 	bne	1b27c <BcmMailBoxRead+0x24>
   1b28c:	e1a00005 	mov	r0, r5
   1b290:	ebffffbe 	bl	1b190 <read32>
   1b294:	e200200f 	and	r2, r0, #15
   1b298:	e5963000 	ldr	r3, [r6]
   1b29c:	e1520003 	cmp	r2, r3
   1b2a0:	1afffff5 	bne	1b27c <BcmMailBoxRead+0x24>
   1b2a4:	e3c0000f 	bic	r0, r0, #15
   1b2a8:	e8bd8070 	pop	{r4, r5, r6, pc}
   1b2ac:	0001e93c 	.word	0x0001e93c
   1b2b0:	0001b4d8 	.word	0x0001b4d8
   1b2b4:	2000b898 	.word	0x2000b898
   1b2b8:	2000b880 	.word	0x2000b880

0001b2bc <BcmMailBoxWrite>:
   1b2bc:	e92d4070 	push	{r4, r5, r6, lr}
   1b2c0:	e1a05001 	mov	r5, r1
   1b2c4:	e2506000 	subs	r6, r0, #0
   1b2c8:	1a000003 	bne	1b2dc <BcmMailBoxWrite+0x20>
   1b2cc:	e3a0205e 	mov	r2, #94	; 0x5e
   1b2d0:	e59f1044 	ldr	r1, [pc, #68]	; 1b31c <BcmMailBoxWrite+0x60>
   1b2d4:	e59f0044 	ldr	r0, [pc, #68]	; 1b320 <BcmMailBoxWrite+0x64>
   1b2d8:	ebfff22d 	bl	17b94 <assertion_failed>
   1b2dc:	e59f4040 	ldr	r4, [pc, #64]	; 1b324 <BcmMailBoxWrite+0x68>
   1b2e0:	e1a00004 	mov	r0, r4
   1b2e4:	ebffffa9 	bl	1b190 <read32>
   1b2e8:	e3500000 	cmp	r0, #0
   1b2ec:	bafffffb 	blt	1b2e0 <BcmMailBoxWrite+0x24>
   1b2f0:	e315000f 	tst	r5, #15
   1b2f4:	0a000003 	beq	1b308 <BcmMailBoxWrite+0x4c>
   1b2f8:	e3a02065 	mov	r2, #101	; 0x65
   1b2fc:	e59f1018 	ldr	r1, [pc, #24]	; 1b31c <BcmMailBoxWrite+0x60>
   1b300:	e59f0020 	ldr	r0, [pc, #32]	; 1b328 <BcmMailBoxWrite+0x6c>
   1b304:	ebfff222 	bl	17b94 <assertion_failed>
   1b308:	e5961000 	ldr	r1, [r6]
   1b30c:	e1851001 	orr	r1, r5, r1
   1b310:	e59f0014 	ldr	r0, [pc, #20]	; 1b32c <BcmMailBoxWrite+0x70>
   1b314:	ebffff9f 	bl	1b198 <write32>
   1b318:	e8bd8070 	pop	{r4, r5, r6, pc}
   1b31c:	0001e93c 	.word	0x0001e93c
   1b320:	0001b4d8 	.word	0x0001b4d8
   1b324:	2000b8b8 	.word	0x2000b8b8
   1b328:	0001e94c 	.word	0x0001e94c
   1b32c:	2000b8a0 	.word	0x2000b8a0

0001b330 <BcmMailBoxWriteRead>:
   1b330:	e92d4070 	push	{r4, r5, r6, lr}
   1b334:	e1a06001 	mov	r6, r1
   1b338:	e2504000 	subs	r4, r0, #0
   1b33c:	1a000003 	bne	1b350 <BcmMailBoxWriteRead+0x20>
   1b340:	e3a0202d 	mov	r2, #45	; 0x2d
   1b344:	e59f1030 	ldr	r1, [pc, #48]	; 1b37c <BcmMailBoxWriteRead+0x4c>
   1b348:	e59f0030 	ldr	r0, [pc, #48]	; 1b380 <BcmMailBoxWriteRead+0x50>
   1b34c:	ebfff210 	bl	17b94 <assertion_failed>
   1b350:	e3a05000 	mov	r5, #0
   1b354:	ee075fba 	mcr	15, 0, r5, cr7, cr10, {5}
   1b358:	e1a00004 	mov	r0, r4
   1b35c:	ebffffa5 	bl	1b1f8 <BcmMailBoxFlush>
   1b360:	e1a01006 	mov	r1, r6
   1b364:	e1a00004 	mov	r0, r4
   1b368:	ebffffd3 	bl	1b2bc <BcmMailBoxWrite>
   1b36c:	e1a00004 	mov	r0, r4
   1b370:	ebffffb8 	bl	1b258 <BcmMailBoxRead>
   1b374:	ee075fba 	mcr	15, 0, r5, cr7, cr10, {5}
   1b378:	e8bd8070 	pop	{r4, r5, r6, pc}
   1b37c:	0001e93c 	.word	0x0001e93c
   1b380:	0001b4d8 	.word	0x0001b4d8
