
Discarded input sections

 .comment       0x0000000000000000       0x12 build/kernel.o
 .ARM.attributes
                0x0000000000000000       0x30 build/kernel.o
 .comment       0x0000000000000000       0x12 build/startup.o
 .ARM.attributes
                0x0000000000000000       0x30 build/startup.o
 .ARM.attributes
                0x0000000000000000       0x14 build/mailbox.o
 .ARM.attributes
                0x0000000000000000       0x14 build/framebuffer.o
 .ARM.attributes
                0x0000000000000000       0x14 build/text.o
 .ARM.attributes
                0x0000000000000000       0x14 build/systemTimer.o
 .ARM.attributes
                0x0000000000000000       0x14 build/drawing.o
 .ARM.attributes
                0x0000000000000000       0x14 build/gpio.o
 .ARM.attributes
                0x0000000000000000       0x14 build/main.o
 .ARM.attributes
                0x0000000000000000       0x14 build/random.o
 .ARM.attributes
                0x0000000000000000       0x14 build/maths.o
 .ARM.attributes
                0x0000000000000000       0x14 build/tags.o

Memory Configuration

Name             Origin             Length             Attributes
*default*        0x0000000000000000 0xffffffffffffffff

Linker script and memory map

LOAD build/kernel.o
LOAD build/startup.o
LOAD build/mailbox.o
LOAD build/framebuffer.o
LOAD build/text.o
LOAD build/systemTimer.o
LOAD build/drawing.o
LOAD build/gpio.o
LOAD build/main.o
LOAD build/random.o
LOAD build/maths.o
LOAD build/tags.o
LOAD ./libuspi.a

.init           0x0000000000008000        0x8
 *(.init)
 .init          0x0000000000008000        0x8 build/main.o
                0x0000000000008000                _start

.data           0x0000000000008010      0x894
 *(.data)
 .data          0x0000000000008010       0x2d build/kernel.o
                0x0000000000008010                FramebufferInfo
                0x0000000000008038                str
 .data          0x000000000000803d        0x0 build/startup.o
 .data          0x000000000000803d        0x0 build/mailbox.o
 *fill*         0x000000000000803d        0x3 
 .data          0x0000000000008040       0x28 build/framebuffer.o
                0x0000000000008040                FrameBufferInfo
 .data          0x0000000000008068        0x0 build/text.o
 .data          0x0000000000008068        0x0 build/systemTimer.o
 *fill*         0x0000000000008068        0x8 
 .data          0x0000000000008070      0x810 build/drawing.o
 .data          0x0000000000008880        0x0 build/gpio.o
 .data          0x0000000000008880        0x0 build/main.o
 .data          0x0000000000008880        0x0 build/random.o
 .data          0x0000000000008880        0x0 build/maths.o
 .data          0x0000000000008880       0x24 build/tags.o
 *.c.o(*)
 *(.bss)
 .bss           0x00000000000088a4        0x0 build/kernel.o
 .bss           0x00000000000088a4        0x0 build/startup.o
 .bss           0x00000000000088a4        0x0 build/mailbox.o
 .bss           0x00000000000088a4        0x0 build/framebuffer.o
 .bss           0x00000000000088a4        0x0 build/text.o
 .bss           0x00000000000088a4        0x0 build/systemTimer.o
 .bss           0x00000000000088a4        0x0 build/drawing.o
 .bss           0x00000000000088a4        0x0 build/gpio.o
 .bss           0x00000000000088a4        0x0 build/main.o
 .bss           0x00000000000088a4        0x0 build/random.o
 .bss           0x00000000000088a4        0x0 build/maths.o
 .bss           0x00000000000088a4        0x0 build/tags.o

.text           0x00000000000088a4      0x738
 *.c.o(.text)
 *(.text)
 .text          0x00000000000088a4       0x88 build/kernel.o
                0x00000000000088a4                kernel_main
 .text          0x000000000000892c       0x38 build/startup.o
                0x000000000000892c                _cstartup
 .text          0x0000000000008964       0x60 build/mailbox.o
                0x0000000000008964                MailboxWrite
                0x0000000000008990                MailboxRead
 .text          0x00000000000089c4       0x60 build/framebuffer.o
                0x00000000000089c4                InitialiseFrameBuffer
 .text          0x0000000000008a24      0x244 build/text.o
                0x0000000000008a24                DrawStringz
                0x0000000000008a50                CharCount
                0x0000000000008a6c                SignedString
                0x0000000000008aac                UnsignedString
                0x0000000000008b00                ReverseString
                0x0000000000008b2c                FormatString
 .text          0x0000000000008c68       0x24 build/systemTimer.o
                0x0000000000008c68                timerWait
 .text          0x0000000000008c8c      0x1f0 build/drawing.o
                0x0000000000008c8c                SetForeColour
                0x0000000000008ca0                SetGraphicsAddress
                0x0000000000008cac                DrawPixel
                0x0000000000008ce8                DrawLine
                0x0000000000008d64                DrawByte
                0x0000000000008dac                DrawCharacter
                0x0000000000008e00                DrawString
 .text          0x0000000000008e7c       0xa4 build/gpio.o
                0x0000000000008e7c                SetGpioFunction
                0x0000000000008ecc                SetGpio
 .text          0x0000000000008f20        0x0 build/main.o
 .text          0x0000000000008f20       0x18 build/random.o
                0x0000000000008f20                Random
 .text          0x0000000000008f38       0x48 build/maths.o
                0x0000000000008f38                DivideU32
 .text          0x0000000000008f80       0x5c build/tags.o
                0x0000000000008f80                FindTag

/DISCARD/
 *(*)
OUTPUT(build/output.elf elf32-littlearm)
